

Microchip MPLAB XC8 Assembler V2.41 build 20230208172133 
                                                                                               Wed May 03 19:25:57 2023

Microchip MPLAB XC8 C Compiler v2.41 (Free license) build 20230208172133 Og1 
     1                           	processor	18F47K40
     2                           	fnconf	rparam,??,?,0
     3                           	pagewidth 120
     4                           	opt	flic
     5                           	psect	idataBANK1,global,class=CODE,delta=1,noexec
     6                           	psect	nvBANK1,global,class=BANK1,space=1,delta=1,lowdata,noexec
     7                           	psect	smallconst,global,reloc=2,class=SMALLCONST,delta=1,noexec
     8                           	psect	cinit,global,reloc=2,class=CODE,delta=1
     9                           	psect	bssCOMRAM,global,class=COMRAM,space=1,delta=1,lowdata,noexec
    10                           	psect	bssBANK0,global,class=BANK0,space=1,delta=1,lowdata,noexec
    11                           	psect	bssBANK1,global,class=BANK1,space=1,delta=1,lowdata,noexec
    12                           	psect	dataBANK1,global,class=BANK1,space=1,delta=1,lowdata,noexec
    13                           	psect	bssBANK2,global,class=BANK2,space=1,delta=1,lowdata,noexec
    14                           	psect	cstackBANK0,global,class=BANK0,space=1,delta=1,lowdata,noexec
    15                           	psect	cstackCOMRAM,global,class=COMRAM,space=1,delta=1,lowdata,noexec
    16                           	psect	text0,global,reloc=2,class=CODE,delta=1
    17                           	psect	text1,global,reloc=2,class=CODE,delta=1
    18                           	psect	text2,global,reloc=2,class=CODE,delta=1
    19                           	psect	text3,global,reloc=2,class=CODE,delta=1
    20                           	psect	text4,global,reloc=2,class=CODE,delta=1
    21                           	psect	text5,global,reloc=2,class=CODE,delta=1
    22                           	psect	text6,global,reloc=2,class=CODE,delta=1
    23                           	psect	text7,global,reloc=2,class=CODE,delta=1,group=1
    24                           	psect	text8,global,reloc=2,class=CODE,delta=1,group=1
    25                           	psect	text9,global,reloc=2,class=CODE,delta=1,group=1
    26                           	psect	text10,global,reloc=2,class=CODE,delta=1,group=1
    27                           	psect	text11,global,reloc=2,class=CODE,delta=1
    28                           	psect	text12,global,reloc=2,class=CODE,delta=1
    29                           	psect	text13,global,reloc=2,class=CODE,delta=1
    30                           	psect	text14,global,reloc=2,class=CODE,delta=1
    31                           	psect	text15,global,reloc=2,class=CODE,delta=1
    32                           	psect	text16,global,reloc=2,class=CODE,delta=1
    33                           	psect	text17,global,reloc=2,class=CODE,delta=1
    34                           	psect	text18,global,reloc=2,class=CODE,delta=1
    35                           	psect	text19,global,reloc=2,class=CODE,delta=1
    36                           	psect	text20,global,reloc=2,class=CODE,delta=1
    37                           	psect	text21,global,reloc=2,class=CODE,delta=1
    38                           	psect	text22,global,reloc=2,class=CODE,delta=1
    39                           	psect	text23,global,reloc=2,class=CODE,delta=1
    40                           	psect	text24,global,reloc=2,class=CODE,delta=1
    41                           	psect	text25,global,reloc=2,class=CODE,delta=1
    42                           	psect	text26,global,reloc=2,class=CODE,delta=1
    43                           	psect	text27,global,reloc=2,class=CODE,delta=1
    44                           	psect	text28,global,reloc=2,class=CODE,delta=1
    45                           	psect	text29,global,reloc=2,class=CODE,delta=1
    46                           	psect	text30,global,reloc=2,class=CODE,delta=1
    47                           	psect	text31,global,reloc=2,class=CODE,delta=1
    48                           	psect	text32,global,reloc=2,class=CODE,delta=1
    49                           	psect	text33,global,reloc=2,class=CODE,delta=1
    50                           	psect	text34,global,reloc=2,class=CODE,delta=1
    51                           	psect	text35,global,reloc=2,class=CODE,delta=1
    52                           	psect	text36,global,reloc=2,class=CODE,delta=1
    53                           	psect	text37,global,reloc=2,class=CODE,delta=1
    54                           	psect	text38,global,reloc=2,class=CODE,delta=1
    55                           	psect	text39,global,reloc=2,class=CODE,delta=1
    56                           	psect	text40,global,reloc=2,class=CODE,delta=1
    57                           	psect	text41,global,reloc=2,class=CODE,delta=1
    58                           	psect	text42,global,reloc=2,class=CODE,delta=1
    59                           	psect	text43,global,reloc=2,class=CODE,delta=1
    60                           	psect	text44,global,reloc=2,class=CODE,delta=1
    61                           	psect	intcode,global,reloc=2,class=CODE,delta=1
    62                           	psect	text46,global,reloc=2,class=CODE,delta=1
    63                           	psect	text47,global,reloc=2,class=CODE,delta=1
    64                           	psect	text48,global,reloc=2,class=CODE,delta=1
    65                           	psect	text49,global,reloc=2,class=CODE,delta=1
    66                           	psect	text50,global,reloc=2,class=CODE,delta=1
    67                           	psect	text51,global,reloc=2,class=CODE,delta=1
    68                           	psect	text52,global,reloc=2,class=CODE,delta=1
    69                           	psect	text53,global,reloc=2,class=CODE,delta=1
    70                           	psect	text54,global,reloc=2,class=CODE,delta=1
    71                           	psect	text55,global,reloc=2,class=CODE,delta=1
    72                           	psect	text56,global,reloc=2,class=CODE,delta=1
    73                           	psect	text57,global,reloc=2,class=CODE,delta=1
    74                           	psect	text58,global,reloc=2,class=CODE,delta=1
    75                           	psect	text59,global,reloc=2,class=CODE,delta=1
    76                           	psect	text60,global,reloc=2,class=CODE,delta=1
    77                           	psect	text61,global,reloc=2,class=CODE,delta=1
    78                           	psect	text62,global,reloc=2,class=CODE,delta=1
    79                           	psect	text63,global,reloc=2,class=CODE,delta=1
    80                           	psect	text64,global,reloc=2,class=CODE,delta=1
    81                           	psect	text65,global,reloc=2,class=CODE,delta=1
    82                           	psect	text66,global,reloc=2,class=CODE,delta=1
    83                           	psect	text67,global,reloc=2,class=CODE,delta=1
    84                           	psect	text68,global,reloc=2,class=CODE,delta=1
    85                           	psect	text69,global,reloc=2,class=CODE,delta=1
    86                           	psect	text70,global,reloc=2,class=CODE,delta=1
    87                           	psect	text71,global,reloc=2,class=CODE,delta=1
    88                           	psect	text72,global,reloc=2,class=CODE,delta=1
    89                           	psect	text73,global,reloc=2,class=CODE,delta=1,group=1
    90                           	psect	text74,global,reloc=2,class=CODE,delta=1
    91                           	psect	text75,global,reloc=2,class=CODE,delta=1
    92                           	psect	text76,global,reloc=2,class=CODE,delta=1
    93                           	psect	text77,global,reloc=2,class=CODE,delta=1
    94                           	psect	text78,global,reloc=2,class=CODE,delta=1
    95                           	psect	text79,global,reloc=2,class=CODE,delta=1
    96                           	psect	text80,global,reloc=2,class=CODE,delta=1
    97                           	psect	text81,global,reloc=2,class=CODE,delta=1
    98                           	psect	text82,global,reloc=2,class=CODE,delta=1
    99                           	psect	text83,global,reloc=2,class=CODE,delta=1
   100                           	psect	text84,global,reloc=2,class=CODE,delta=1
   101                           	psect	text85,global,reloc=2,class=CODE,delta=1
   102                           	psect	text86,global,reloc=2,class=CODE,delta=1
   103                           	psect	text87,global,reloc=2,class=CODE,delta=1
   104                           	psect	intsave_regs,global,class=BIGRAM,space=1,delta=1,noexec
   105                           	psect	text88,global,reloc=2,class=CODE,delta=1
   106                           	psect	rparam,global,class=COMRAM,space=1,delta=1,noexec
   107                           	psect	temp,global,ovrld,common,class=COMRAM,space=1,delta=1
   108                           	psect	idloc,global,abs,ovrld,class=IDLOC,space=5,delta=1,noexec
   109                           	psect	config,global,abs,ovrld,class=CONFIG,space=4,delta=1,noexec
   110   000000                     
   111                           ; Generated 06/04/2022 GMT
   112                           ; 
   113                           ; Copyright © 2022, Microchip Technology Inc. and its subsidiaries ("Microchip")
   114                           ; All rights reserved.
   115                           ; 
   116                           ; This software is developed by Microchip Technology Inc. and its subsidiaries ("Microch
      +                          ip").
   117                           ; 
   118                           ; Redistribution and use in source and binary forms, with or without modification, are
   119                           ; permitted provided that the following conditions are met:
   120                           ; 
   121                           ;     1. Redistributions of source code must retain the above copyright notice, this lis
      +                          t of
   122                           ;        conditions and the following disclaimer.
   123                           ; 
   124                           ;     2. Redistributions in binary form must reproduce the above copyright notice, this 
      +                          list
   125                           ;        of conditions and the following disclaimer in the documentation and/or other
   126                           ;        materials provided with the distribution. Publication is not required when
   127                           ;        this file is used in an embedded application.
   128                           ; 
   129                           ;     3. Microchip's name may not be used to endorse or promote products derived from th
      +                          is
   130                           ;        software without specific prior written permission.
   131                           ; 
   132                           ; THIS SOFTWARE IS PROVIDED BY MICROCHIP "AS IS" AND ANY EXPRESS OR IMPLIED WARRANTIES,
   133                           ; INCLUDING, BUT NOT LIMITED TO, THE IMPLIED WARRANTIES OF MERCHANTABILITY AND FITNESS F
      +                          OR
   134                           ; PURPOSE ARE DISCLAIMED.  IN NO EVENT SHALL MICROCHIP BE LIABLE FOR ANY DIRECT, INDIREC
      +                          T,
   135                           ; INCIDENTAL, SPECIAL, EXEMPLARY, OR CONSEQUENTIAL DAMAGES (INCLUDING BUT NOT LIMITED TO
   136                           ; PROCUREMENT OF SUBSTITUTE GOODS OR SERVICES; LOSS OF USE, DATA OR PROFITS; OR BUSINESS
   137                           ; INTERRUPTION) HOWSOEVER CAUSED AND ON ANY THEORY OF LIABILITY, WHETHER IN CONTRACT, ST
      +                          RICT
   138                           ; LIABILITY, OR TORT (INCLUDING NEGLIGENCE OR OTHERWISE) ARISING IN ANY WAY OUT OF THE U
      +                          SE OF
   139                           ; THIS SOFTWARE, EVEN IF ADVISED OF THE POSSIBILITY OF SUCH DAMAGE.
   140                           ; 
   141                           ; 
   142                           ; Code-generator required, PIC18F47K40 Definitions
   143                           ; 
   144                           ; SFR Addresses
   145   000000                     
   146                           	psect	idataBANK1
   147   003A90                     __pidataBANK1:
   148                           	callstack 0
   149                           
   150                           ;initializer for main@F11533
   151   003A90  04                 	db	4
   152   003A91  01                 	db	1
   153   003A92  01                 	db	1
   154   003A93  01                 	db	1
   155   003A94  02                 	db	2
   156   003A95  04                 	db	4
   157   003A96  02                 	db	2
   158   003A97  02                 	db	2
   159   003A98  02                 	db	2
   160   003A99  01                 	db	1
   161   003A9A  03                 	db	3
   162                           
   163                           ;initializer for _laserAddresses
   164   003A9B  29                 	db	41
   165   003A9C  2A                 	db	42
   166   003A9D  2B                 	db	43
   167                           
   168                           ;initializer for _ancien_dutyValue_D
   169   003A9E  0190               	dw	400
   170                           
   171                           ;initializer for _ancien_dutyValue_G
   172   003AA0  0190               	dw	400
   173                           
   174                           ;initializer for _Sigma_Erreur_Vitesse_Moteur_D
   175   003AA2  0190               	dw	400
   176                           
   177                           ;initializer for _Sigma_Erreur_Vitesse_Moteur_G
   178   003AA4  0190               	dw	400
   179   000000                     _NVMCON2	set	3970
   180   000000                     _NVMCON1bits	set	3969
   181   000000                     _NVMDAT	set	3968
   182   000000                     _T3CON	set	4041
   183   000000                     _T3CLK	set	4044
   184   000000                     _T3GATE	set	4043
   185   000000                     _T1CON	set	4047
   186   000000                     _T1CLK	set	4050
   187   000000                     _T1GATE	set	4049
   188   000000                     _T4CON	set	4023
   189   000000                     _T4RST	set	4026
   190   000000                     _T2CON	set	4029
   191   000000                     _RC1REG	set	3993
   192   000000                     _TX1REG	set	3994
   193   000000                     _SP1BRGH	set	3996
   194   000000                     _SP1BRGL	set	3995
   195   000000                     _TX1STA	set	3998
   196   000000                     _RC1STA	set	3997
   197   000000                     _BAUD1CON	set	3999
   198   000000                     _ADERRL	set	3950
   199   000000                     _ADERRH	set	3951
   200   000000                     _ADPREVL	set	3937
   201   000000                     _ADPREVH	set	3938
   202   000000                     _ADFLTRL	set	3954
   203   000000                     _ADFLTRH	set	3955
   204   000000                     _ADACCL	set	3952
   205   000000                     _ADACCH	set	3953
   206   000000                     _ADCNT	set	3943
   207   000000                     _ADPRE	set	3934
   208   000000                     _ADRESL	set	3939
   209   000000                     _ADRESH	set	3940
   210   000000                     _ADACQ	set	3932
   211   000000                     _ADCON0	set	3936
   212   000000                     _ADCLK	set	3927
   213   000000                     _ADSTAT	set	3941
   214   000000                     _ADCON3	set	3931
   215   000000                     _ADCON2	set	3930
   216   000000                     _ADSTPTH	set	3945
   217   000000                     _ADUTHH	set	3949
   218   000000                     _ADUTHL	set	3948
   219   000000                     _ADLTHH	set	3947
   220   000000                     _T0CON0	set	4053
   221   000000                     _TMR0L	set	4051
   222   000000                     _TMR0H	set	4052
   223   000000                     _T0CON1	set	4054
   224   000000                     _OSCTUNE	set	3805
   225   000000                     _OSCFRQ	set	3806
   226   000000                     _INTCONbits	set	4082
   227   000000                     _SSP1BUF	set	3986
   228   000000                     _SSP1CON2bits	set	3991
   229   000000                     _SSP1ADD	set	3987
   230   000000                     _SSP1CON3	set	3992
   231   000000                     _SSP1CON1	set	3990
   232   000000                     _SSP1STAT	set	3989
   233   000000                     _RC2PPS	set	3833
   234   000000                     _IOCCPbits	set	3868
   235   000000                     _IOCCNbits	set	3867
   236   000000                     _IOCCFbits	set	3866
   237   000000                     _IOCAPbits	set	3852
   238   000000                     _IOCANbits	set	3851
   239   000000                     _INLVLD	set	3874
   240   000000                     _INLVLC	set	3869
   241   000000                     _SLRCOND	set	3875
   242   000000                     _SLRCONC	set	3870
   243   000000                     _ODCOND	set	3876
   244   000000                     _ODCONC	set	3871
   245   000000                     _WPUC	set	3872
   246   000000                     _WPUD	set	3877
   247   000000                     _TRISD	set	3979
   248   000000                     _TRISC	set	3978
   249   000000                     _TRISB	set	3977
   250   000000                     _TRISA	set	3976
   251   000000                     _TRISE	set	3980
   252   000000                     _LATD	set	3974
   253   000000                     _LATEbits	set	3975
   254   000000                     _LATCbits	set	3973
   255                           
   256                           	psect	nvBANK1
   257   00014F                     __pnvBANK1:
   258                           	callstack 0
   259   00014F                     _TMR3_InterruptHandler:
   260                           	callstack 0
   261   00014F                     	ds	3
   262   000152                     _TMR1_InterruptHandler:
   263                           	callstack 0
   264   000152                     	ds	3
   265   000155                     _TMR4_InterruptHandler:
   266                           	callstack 0
   267   000155                     	ds	3
   268   000158                     _EUSART1_ErrorHandler:
   269                           	callstack 0
   270   000158                     	ds	3
   271   00015B                     _EUSART1_OverrunErrorHandler:
   272                           	callstack 0
   273   00015B                     	ds	3
   274   00015E                     _EUSART1_FramingErrorHandler:
   275                           	callstack 0
   276   00015E                     	ds	3
   277   000161                     _TMR0_InterruptHandler:
   278                           	callstack 0
   279   000161                     	ds	3
   280   000164                     _IOCCF0_InterruptHandler:
   281                           	callstack 0
   282   000164                     	ds	3
   283   000167                     _IOCAF7_InterruptHandler:
   284                           	callstack 0
   285   000167                     	ds	3
   286   00016A                     _IOCAF6_InterruptHandler:
   287                           	callstack 0
   288   00016A                     	ds	3
   289   00016D                     _IOCAF5_InterruptHandler:
   290                           	callstack 0
   291   00016D                     	ds	3
   292   000170                     _EUSART1_RxDefaultInterruptHandler:
   293                           	callstack 0
   294   000170                     	ds	3
   295   000173                     _EUSART1_TxDefaultInterruptHandler:
   296                           	callstack 0
   297   000173                     	ds	3
   298   000000                     _ADCON1bits	set	3929
   299   000000                     _ADCON2bits	set	3930
   300   000000                     _ADCON3bits	set	3931
   301   000000                     _LATDbits	set	3974
   302   000000                     _T3GCONbits	set	4042
   303   000000                     _T3CONbits	set	4041
   304   000000                     _T1GCONbits	set	4048
   305   000000                     _T1CONbits	set	4047
   306   000000                     _CCP2CONbits	set	4008
   307   000000                     _CCP1CONbits	set	4012
   308   000000                     _PR4	set	4022
   309   000000                     _TMR4	set	4021
   310   000000                     _T4CONbits	set	4023
   311   000000                     _T4RSTbits	set	4026
   312   000000                     _T4HLTbits	set	4024
   313   000000                     _PR2	set	4028
   314   000000                     _TMR2	set	4027
   315   000000                     _T2CONbits	set	4029
   316   000000                     _T2RSTbits	set	4032
   317   000000                     _T2HLTbits	set	4030
   318   000000                     _RC1STAbits	set	3997
   319   000000                     _TX1STAbits	set	3998
   320   000000                     _ADSTATbits	set	3941
   321   000000                     _ADCON0bits	set	3936
   322   000000                     _T0CON0bits	set	4053
   323   000000                     _SSP1CON1bits	set	3990
   324   000000                     _LATC	set	3973
   325   000000                     _LATB	set	3972
   326   000000                     _LATA	set	3971
   327   000000                     _LATE	set	3975
   328   000000                     _GIE	set	32663
   329   000000                     _RX1PPS	set	3765
   330   000000                     _SSP1CLKPPS	set	3767
   331   000000                     _PIE0bits	set	3778
   332   000000                     _IOCAFbits	set	3850
   333   000000                     _INLVLA	set	3853
   334   000000                     _SLRCONA	set	3854
   335   000000                     _ODCONA	set	3855
   336   000000                     _WPUA	set	3856
   337   000000                     _ANSELA	set	3857
   338   000000                     _ANSELB	set	3865
   339   000000                     _ANSELC	set	3873
   340   000000                     _ANSELD	set	3878
   341   000000                     _LATAbits	set	3971
   342   000000                     _LATBbits	set	3972
   343   000000                     _PORTBbits	set	3982
   344   000000                     _PORTDbits	set	3984
   345   000000                     _PORTAbits	set	3981
   346   000000                     _PORTEbits	set	3985
   347   000000                     _INLVLE	set	3882
   348   000000                     _SLRCONE	set	3883
   349   000000                     _ODCONE	set	3884
   350   000000                     _WPUE	set	3885
   351   000000                     _ANSELE	set	3886
   352   000000                     _ADACT	set	3926
   353   000000                     _ADREF	set	3928
   354   000000                     _ADCON1	set	3929
   355   000000                     _ADCAP	set	3933
   356   000000                     _ADPCH	set	3935
   357   000000                     _ADRPT	set	3942
   358   000000                     _ADSTPTL	set	3944
   359   000000                     _ADLTHL	set	3946
   360   000000                     _INLVLB	set	3861
   361   000000                     _SLRCONB	set	3862
   362   000000                     _ODCONB	set	3863
   363   000000                     _WPUB	set	3864
   364   000000                     _PIE3bits	set	3781
   365   000000                     _PIR3bits	set	3789
   366   000000                     _RC1PPS	set	3832
   367   000000                     _RC3PPS	set	3834
   368   000000                     _SSP1DATPPS	set	3768
   369   000000                     _RC6PPS	set	3837
   370   000000                     _RC4PPS	set	3835
   371   000000                     _OSCCON1	set	3800
   372   000000                     _PIR4bits	set	3790
   373   000000                     _PIE4bits	set	3782
   374   000000                     _PIR0bits	set	3786
   375   000000                     _OSCCON3	set	3802
   376   000000                     _OSCEN	set	3804
   377   000000                     _PMD0	set	3809
   378   000000                     _PMD5	set	3814
   379   000000                     _PMD4	set	3813
   380   000000                     _PMD3	set	3812
   381   000000                     _PMD2	set	3811
   382   000000                     _PMD1	set	3810
   383   000000                     _NVMADRL	set	3966
   384   000000                     _NVMADRH	set	3967
   385   000000                     _CCPR2L	set	4006
   386   000000                     _CCPR2H	set	4007
   387   000000                     _CCP2CON	set	4008
   388   000000                     _CCPR1L	set	4010
   389   000000                     _CCPR1H	set	4011
   390   000000                     _CCP1CON	set	4012
   391   000000                     _T4TMR	set	4021
   392   000000                     _T4PR	set	4022
   393   000000                     _T4HLT	set	4024
   394   000000                     _T4CLKCON	set	4025
   395   000000                     _T2TMR	set	4027
   396   000000                     _T2PR	set	4028
   397   000000                     _T2HLT	set	4030
   398   000000                     _T2CLKCON	set	4031
   399   000000                     _TMR3L	set	4039
   400   000000                     _TMR3H	set	4040
   401   000000                     _T3GCON	set	4042
   402   000000                     _TMR1L	set	4045
   403   000000                     _TMR1H	set	4046
   404   000000                     _T1GCON	set	4048
   405   000000                     _T2RST	set	4032
   406   000000                     _CCPTMRSbits	set	4014
   407                           
   408                           	psect	smallconst
   409   000F00                     __psmallconst:
   410                           	callstack 0
   411   000F00  00                 	db	0
   412   000F01                     
   413                           ; BSR set to: 0
   414   000F01  2D                 	db	45
   415   000F02  2D                 	db	45
   416   000F03  2D                 	db	45
   417   000F04  00                 	db	0
   418   000F05                     
   419                           ; BSR set to: 0
   420   000F05  58                 	db	88	;'X'
   421   000F06  41                 	db	65	;'A'
   422   000F07  4D                 	db	77	;'M'
   423   000F08  00                 	db	0
   424   000F09  00                 	db	0	; dummy byte at the end
   425   000000                     
   426                           ; #config settings
   427                           
   428                           	psect	cinit
   429   0032FA                     __pcinit:
   430                           	callstack 0
   431   0032FA                     start_initialization:
   432                           	callstack 0
   433   0032FA                     __initialization:
   434                           	callstack 0
   435                           
   436                           ; Initialize objects allocated to BANK1 (22 bytes)
   437                           ; load TBLPTR registers with __pidataBANK1
   438   0032FA  0E90               	movlw	low __pidataBANK1
   439   0032FC  6EF6               	movwf	tblptrl,c
   440   0032FE  0E3A               	movlw	high __pidataBANK1
   441   003300  6EF7               	movwf	tblptrh,c
   442   003302  0E00               	movlw	low (__pidataBANK1 shr (0+16))
   443   003304  6EF8               	movwf	tblptru,c
   444   003306  EE01  F076         	lfsr	0,__pdataBANK1
   445   00330A  EE10 F016          	lfsr	1,22
   446   00330E                     copy_data0:
   447   00330E  0009               	tblrd		*+
   448   003310  CFF5 FFEE          	movff	tablat,postinc0
   449   003314  50E5               	movf	postdec1,w,c
   450   003316  50E1               	movf	fsr1l,w,c
   451   003318  E1FA               	bnz	copy_data0
   452                           
   453                           ; Clear objects allocated to BANK2 (117 bytes)
   454   00331A  EE02  F000         	lfsr	0,__pbssBANK2
   455   00331E  0E75               	movlw	117
   456   003320                     clear_0:
   457   003320  6AEE               	clrf	postinc0,c
   458   003322  06E8               	decf	wreg,f,c
   459   003324  E1FD               	bnz	clear_0
   460                           
   461                           ; Clear objects allocated to BANK1 (79 bytes)
   462   003326  EE01  F000         	lfsr	0,__pbssBANK1
   463   00332A  0E4F               	movlw	79
   464   00332C                     clear_1:
   465   00332C  6AEE               	clrf	postinc0,c
   466   00332E  06E8               	decf	wreg,f,c
   467   003330  E1FD               	bnz	clear_1
   468                           
   469                           ; Clear objects allocated to BANK0 (21 bytes)
   470   003332  EE00  F0EB         	lfsr	0,__pbssBANK0
   471   003336  0E15               	movlw	21
   472   003338                     clear_2:
   473   003338  6AEE               	clrf	postinc0,c
   474   00333A  06E8               	decf	wreg,f,c
   475   00333C  E1FD               	bnz	clear_2
   476                           
   477                           ; Clear objects allocated to COMRAM (15 bytes)
   478   00333E  EE00  F04C         	lfsr	0,__pbssCOMRAM
   479   003342  0E0F               	movlw	15
   480   003344                     clear_3:
   481   003344  6AEE               	clrf	postinc0,c
   482   003346  06E8               	decf	wreg,f,c
   483   003348  E1FD               	bnz	clear_3
   484   00334A                     end_of_initialization:
   485                           	callstack 0
   486   00334A                     __end_of__initialization:
   487                           	callstack 0
   488   00334A  905B               	bcf	int$flags,0,c	;clear compiler interrupt flag (level 1)
   489   00334C  925B               	bcf	int$flags,1,c	;clear compiler interrupt flag (level 2)
   490   00334E  0100               	movlb	0
   491   003350  EF85  F007         	goto	_main	;jump to C main() function
   492                           
   493                           	psect	bssCOMRAM
   494   00004C                     __pbssCOMRAM:
   495                           	callstack 0
   496   00004C                     _dutyValue_D:
   497                           	callstack 0
   498   00004C                     	ds	2
   499   00004E                     _dutyValue_G:
   500                           	callstack 0
   501   00004E                     	ds	2
   502   000050                     _millisec:
   503                           	callstack 0
   504   000050                     	ds	2
   505   000052                     _eusart1RxLastError:
   506                           	callstack 0
   507   000052                     	ds	1
   508   000053                     _eusart1RxCount:
   509                           	callstack 0
   510   000053                     	ds	1
   511   000054                     _eusart1RxTail:
   512                           	callstack 0
   513   000054                     	ds	1
   514   000055                     I2C1_ISR@i2c_10bit_address_restart:
   515                           	callstack 0
   516   000055                     	ds	1
   517   000056                     I2C1_ISR@i2c_bytes_left:
   518                           	callstack 0
   519   000056                     	ds	1
   520   000057                     _i2c1_trb_count:
   521                           	callstack 0
   522   000057                     	ds	1
   523   000058                     _i2c1_state:
   524                           	callstack 0
   525   000058                     	ds	1
   526   000059                     I2C1_ISR@i2c_address:
   527                           	callstack 0
   528   000059                     	ds	2
   529                           
   530                           	psect	bssBANK0
   531   0000EB                     __pbssBANK0:
   532                           	callstack 0
   533   0000EB                     _i2c1_object:
   534                           	callstack 0
   535   0000EB                     	ds	7
   536   0000F2                     _timer3ReloadVal:
   537                           	callstack 0
   538   0000F2                     	ds	2
   539   0000F4                     _timer1ReloadVal:
   540                           	callstack 0
   541   0000F4                     	ds	2
   542   0000F6                     _timer0ReloadVal16bit:
   543                           	callstack 0
   544   0000F6                     	ds	2
   545   0000F8                     _p_i2c1_current:
   546                           	callstack 0
   547   0000F8                     	ds	2
   548   0000FA                     _p_i2c1_trb_current:
   549                           	callstack 0
   550   0000FA                     	ds	2
   551   0000FC                     _eusart1RxHead:
   552                           	callstack 0
   553   0000FC                     	ds	1
   554   0000FD                     _eusart1TxBufferRemaining:
   555                           	callstack 0
   556   0000FD                     	ds	1
   557   0000FE                     _eusart1TxTail:
   558                           	callstack 0
   559   0000FE                     	ds	1
   560   0000FF                     _eusart1TxHead:
   561                           	callstack 0
   562   0000FF                     	ds	1
   563                           
   564                           	psect	bssBANK1
   565   000100                     __pbssBANK1:
   566                           	callstack 0
   567   000100                     _eusart1RxStatusBuffer:
   568                           	callstack 0
   569   000100                     	ds	8
   570   000108                     _eusart1RxBuffer:
   571                           	callstack 0
   572   000108                     	ds	8
   573   000110                     _eusart1TxBuffer:
   574                           	callstack 0
   575   000110                     	ds	8
   576   000118                     _DMD:
   577                           	callstack 0
   578   000118                     	ds	4
   579   00011C                     _DMG:
   580                           	callstack 0
   581   00011C                     	ds	4
   582   000120                     _R1:
   583                           	callstack 0
   584   000120                     	ds	4
   585   000124                     _R0:
   586                           	callstack 0
   587   000124                     	ds	4
   588   000128                     _millisec_32bits:
   589                           	callstack 0
   590   000128                     	ds	4
   591   00012C                     _Ancienne_Erreur_Vitesse_Moteur_D:
   592                           	callstack 0
   593   00012C                     	ds	2
   594   00012E                     _Erreur_Vitesse_Moteur_D:
   595                           	callstack 0
   596   00012E                     	ds	2
   597   000130                     _Ancienne_Erreur_Vitesse_Moteur_G:
   598                           	callstack 0
   599   000130                     	ds	2
   600   000132                     _Erreur_Vitesse_Moteur_G:
   601                           	callstack 0
   602   000132                     	ds	2
   603   000134                     _Consigne_Vitesse_Moteur_D:
   604                           	callstack 0
   605   000134                     	ds	2
   606   000136                     _Consigne_Vitesse_Moteur_G:
   607                           	callstack 0
   608   000136                     	ds	2
   609   000138                     I2C1_ISR@pi2c_buf_ptr:
   610                           	callstack 0
   611   000138                     	ds	2
   612   00013A                     _selection:
   613                           	callstack 0
   614   00013A                     	ds	2
   615   00013C                     _Vitesse_Moteur_D:
   616                           	callstack 0
   617   00013C                     	ds	2
   618   00013E                     _Vitesse_Moteur_G:
   619                           	callstack 0
   620   00013E                     	ds	2
   621   000140                     I2C1_MasterRead@trBlock:
   622                           	callstack 0
   623   000140                     	ds	5
   624   000145                     I2C1_MasterWrite@trBlock:
   625                           	callstack 0
   626   000145                     	ds	5
   627   00014A                     _i2c1_tr_queue:
   628                           	callstack 0
   629   00014A                     	ds	5
   630                           
   631                           	psect	dataBANK1
   632   000176                     __pdataBANK1:
   633                           	callstack 0
   634   000176                     main@F11533:
   635                           	callstack 0
   636   000176                     	ds	11
   637   000181                     _laserAddresses:
   638                           	callstack 0
   639   000181                     	ds	3
   640   000184                     _ancien_dutyValue_D:
   641                           	callstack 0
   642   000184                     	ds	2
   643   000186                     _ancien_dutyValue_G:
   644                           	callstack 0
   645   000186                     	ds	2
   646   000188                     _Sigma_Erreur_Vitesse_Moteur_D:
   647                           	callstack 0
   648   000188                     	ds	2
   649   00018A                     _Sigma_Erreur_Vitesse_Moteur_G:
   650                           	callstack 0
   651   00018A                     	ds	2
   652                           
   653                           	psect	bssBANK2
   654   000200                     __pbssBANK2:
   655                           	callstack 0
   656   000200                     _vl53l0xDev:
   657                           	callstack 0
   658   000200                     	ds	117
   659                           
   660                           	psect	cstackBANK0
   661   000060                     __pcstackBANK0:
   662                           	callstack 0
   663   000060                     ??_lcdNibble:
   664   000060                     ??_Digital_read:
   665   000060                     ?_ADCC_GetSingleConversion:
   666                           	callstack 0
   667   000060                     ?_millis:
   668                           	callstack 0
   669   000060                     ?___xxtofl:
   670                           	callstack 0
   671   000060                     retroLCD@on_off:
   672                           	callstack 0
   673   000060                     Motors@on_off:
   674                           	callstack 0
   675   000060                     Buzzer@on_off:
   676                           	callstack 0
   677   000060                     LED@on_off:
   678                           	callstack 0
   679   000060                     IOCAF5_SetInterruptHandler@InterruptHandler:
   680                           	callstack 0
   681   000060                     IOCAF6_SetInterruptHandler@InterruptHandler:
   682                           	callstack 0
   683   000060                     IOCAF7_SetInterruptHandler@InterruptHandler:
   684                           	callstack 0
   685   000060                     IOCCF0_SetInterruptHandler@InterruptHandler:
   686                           	callstack 0
   687   000060                     TMR0_SetInterruptHandler@InterruptHandler:
   688                           	callstack 0
   689   000060                     EUSART1_SetFramingErrorHandler@interruptHandler:
   690                           	callstack 0
   691   000060                     EUSART1_SetOverrunErrorHandler@interruptHandler:
   692                           	callstack 0
   693   000060                     EUSART1_SetErrorHandler@interruptHandler:
   694                           	callstack 0
   695   000060                     EUSART1_SetTxInterruptHandler@interruptHandler:
   696                           	callstack 0
   697   000060                     EUSART1_SetRxInterruptHandler@interruptHandler:
   698                           	callstack 0
   699   000060                     TMR4_SetInterruptHandler@InterruptHandler:
   700                           	callstack 0
   701   000060                     TMR1_SetInterruptHandler@InterruptHandler:
   702                           	callstack 0
   703   000060                     TMR3_SetInterruptHandler@InterruptHandler:
   704                           	callstack 0
   705   000060                     ___xxtofl@val:
   706                           	callstack 0
   707                           
   708                           ; 4 bytes @ 0x0
   709   000060                     	ds	1
   710   000061                     ??_LED:
   711   000061                     lcdNibble@nibble:
   712                           	callstack 0
   713                           
   714                           ; 1 bytes @ 0x1
   715   000061                     	ds	1
   716   000062                     ??_ADCC_GetSingleConversion:
   717   000062                     writeLCD@type:
   718                           	callstack 0
   719   000062                     Digital_read@io:
   720                           	callstack 0
   721                           
   722                           ; 1 bytes @ 0x2
   723   000062                     	ds	1
   724   000063                     ??_TMR0_Initialize:
   725   000063                     ??_TMR3_Initialize:
   726   000063                     ??_TMR1_Initialize:
   727   000063                     writeLCD@byte:
   728                           	callstack 0
   729   000063                     LED@io:
   730                           	callstack 0
   731                           
   732                           ; 1 bytes @ 0x3
   733   000063                     	ds	1
   734   000064                     ??_clearLCD:
   735   000064                     ??___xxtofl:
   736   000064                     ADCC_GetSingleConversion@channel:
   737                           	callstack 0
   738                           
   739                           ; 1 bytes @ 0x4
   740   000064                     	ds	1
   741   000065                     ??_initLCD:
   742   000065                     
   743                           ; 1 bytes @ 0x5
   744   000065                     	ds	3
   745   000068                     ___xxtofl@sign:
   746                           	callstack 0
   747                           
   748                           ; 1 bytes @ 0x8
   749   000068                     	ds	1
   750   000069                     ___xxtofl@exp:
   751                           	callstack 0
   752                           
   753                           ; 1 bytes @ 0x9
   754   000069                     	ds	1
   755   00006A                     ___xxtofl@arg:
   756                           	callstack 0
   757                           
   758                           ; 4 bytes @ 0xA
   759   00006A                     	ds	4
   760   00006E                     ?___flmul:
   761                           	callstack 0
   762   00006E                     ___flmul@b:
   763                           	callstack 0
   764                           
   765                           ; 4 bytes @ 0xE
   766   00006E                     	ds	4
   767   000072                     ___flmul@a:
   768                           	callstack 0
   769                           
   770                           ; 4 bytes @ 0x12
   771   000072                     	ds	4
   772   000076                     ??___flmul:
   773                           
   774                           ; 1 bytes @ 0x16
   775   000076                     	ds	4
   776   00007A                     ___flmul@sign:
   777                           	callstack 0
   778                           
   779                           ; 1 bytes @ 0x1A
   780   00007A                     	ds	1
   781   00007B                     ___flmul@grs:
   782                           	callstack 0
   783                           
   784                           ; 4 bytes @ 0x1B
   785   00007B                     	ds	4
   786   00007F                     ___flmul@aexp:
   787                           	callstack 0
   788                           
   789                           ; 1 bytes @ 0x1F
   790   00007F                     	ds	1
   791   000080                     ___flmul@bexp:
   792                           	callstack 0
   793                           
   794                           ; 1 bytes @ 0x20
   795   000080                     	ds	1
   796   000081                     ___flmul@prod:
   797                           	callstack 0
   798                           
   799                           ; 4 bytes @ 0x21
   800   000081                     	ds	4
   801   000085                     ___flmul@temp:
   802                           	callstack 0
   803                           
   804                           ; 2 bytes @ 0x25
   805   000085                     	ds	2
   806   000087                     ?___fladd:
   807                           	callstack 0
   808   000087                     ___fladd@b:
   809                           	callstack 0
   810                           
   811                           ; 4 bytes @ 0x27
   812   000087                     	ds	4
   813   00008B                     ___fladd@a:
   814                           	callstack 0
   815                           
   816                           ; 4 bytes @ 0x2B
   817   00008B                     	ds	4
   818   00008F                     ??___fladd:
   819                           
   820                           ; 1 bytes @ 0x2F
   821   00008F                     	ds	4
   822   000093                     ___fladd@signs:
   823                           	callstack 0
   824                           
   825                           ; 1 bytes @ 0x33
   826   000093                     	ds	1
   827   000094                     ___fladd@aexp:
   828                           	callstack 0
   829                           
   830                           ; 1 bytes @ 0x34
   831   000094                     	ds	1
   832   000095                     ___fladd@bexp:
   833                           	callstack 0
   834                           
   835                           ; 1 bytes @ 0x35
   836   000095                     	ds	1
   837   000096                     ___fladd@grs:
   838                           	callstack 0
   839                           
   840                           ; 1 bytes @ 0x36
   841   000096                     	ds	1
   842   000097                     ?___fltol:
   843                           	callstack 0
   844   000097                     ___fltol@f1:
   845                           	callstack 0
   846                           
   847                           ; 4 bytes @ 0x37
   848   000097                     	ds	4
   849   00009B                     ??___fltol:
   850                           
   851                           ; 1 bytes @ 0x3B
   852   00009B                     	ds	4
   853   00009F                     ___fltol@sign1:
   854                           	callstack 0
   855                           
   856                           ; 1 bytes @ 0x3F
   857   00009F                     	ds	1
   858   0000A0                     ___fltol@exp1:
   859                           	callstack 0
   860                           
   861                           ; 1 bytes @ 0x40
   862   0000A0                     	ds	1
   863   0000A1                     Speed_Motors@Cons_Vit_Mot_G:
   864                           	callstack 0
   865                           
   866                           ; 2 bytes @ 0x41
   867   0000A1                     	ds	2
   868   0000A3                     Speed_Motors@Cons_Vit_Mot_D:
   869                           	callstack 0
   870                           
   871                           ; 2 bytes @ 0x43
   872   0000A3                     	ds	2
   873   0000A5                     ??_main:
   874                           
   875                           ; 1 bytes @ 0x45
   876   0000A5                     	ds	4
   877   0000A9                     main@stateSequence:
   878                           	callstack 0
   879                           
   880                           ; 11 bytes @ 0x49
   881   0000A9                     	ds	11
   882   0000B4                     main@vBase:
   883                           	callstack 0
   884                           
   885                           ; 2 bytes @ 0x54
   886   0000B4                     	ds	2
   887   0000B6                     main@leftCounter:
   888                           	callstack 0
   889                           
   890                           ; 1 bytes @ 0x56
   891   0000B6                     	ds	1
   892   0000B7                     main@rightCounter:
   893                           	callstack 0
   894                           
   895                           ; 1 bytes @ 0x57
   896   0000B7                     	ds	1
   897   0000B8                     main@currentSeq:
   898                           	callstack 0
   899                           
   900                           ; 2 bytes @ 0x58
   901   0000B8                     	ds	2
   902   0000BA                     main@lastDRight:
   903                           	callstack 0
   904                           
   905                           ; 1 bytes @ 0x5A
   906   0000BA                     	ds	1
   907   0000BB                     main@lastDLeft:
   908                           	callstack 0
   909                           
   910                           ; 1 bytes @ 0x5B
   911   0000BB                     	ds	1
   912   0000BC                     _main$5546:
   913                           	callstack 0
   914                           
   915                           ; 4 bytes @ 0x5C
   916   0000BC                     	ds	4
   917   0000C0                     _main$5547:
   918                           	callstack 0
   919                           
   920                           ; 4 bytes @ 0x60
   921   0000C0                     	ds	4
   922   0000C4                     _main$5548:
   923                           	callstack 0
   924                           
   925                           ; 4 bytes @ 0x64
   926   0000C4                     	ds	4
   927   0000C8                     _main$5549:
   928                           	callstack 0
   929                           
   930                           ; 4 bytes @ 0x68
   931   0000C8                     	ds	4
   932   0000CC                     main@elasped_rotate:
   933                           	callstack 0
   934                           
   935                           ; 4 bytes @ 0x6C
   936   0000CC                     	ds	4
   937   0000D0                     main@cptDLeft:
   938                           	callstack 0
   939                           
   940                           ; 1 bytes @ 0x70
   941   0000D0                     	ds	1
   942   0000D1                     main@cptDRight:
   943                           	callstack 0
   944                           
   945                           ; 1 bytes @ 0x71
   946   0000D1                     	ds	1
   947   0000D2                     main@coefP:
   948                           	callstack 0
   949                           
   950                           ; 4 bytes @ 0x72
   951   0000D2                     	ds	4
   952   0000D6                     main@coefD:
   953                           	callstack 0
   954                           
   955                           ; 4 bytes @ 0x76
   956   0000D6                     	ds	4
   957   0000DA                     main@coefI:
   958                           	callstack 0
   959                           
   960                           ; 4 bytes @ 0x7A
   961   0000DA                     	ds	4
   962   0000DE                     main@lastError:
   963                           	callstack 0
   964                           
   965                           ; 2 bytes @ 0x7E
   966   0000DE                     	ds	2
   967   0000E0                     main@integralError:
   968                           	callstack 0
   969                           
   970                           ; 2 bytes @ 0x80
   971   0000E0                     	ds	2
   972   0000E2                     main@aValCenter:
   973                           	callstack 0
   974                           
   975                           ; 2 bytes @ 0x82
   976   0000E2                     	ds	2
   977   0000E4                     main@aValRight:
   978                           	callstack 0
   979                           
   980                           ; 2 bytes @ 0x84
   981   0000E4                     	ds	2
   982   0000E6                     main@state:
   983                           	callstack 0
   984                           
   985                           ; 1 bytes @ 0x86
   986   0000E6                     	ds	1
   987   0000E7                     main@aValLeft:
   988                           	callstack 0
   989                           
   990                           ; 2 bytes @ 0x87
   991   0000E7                     	ds	2
   992   0000E9                     main@error:
   993                           	callstack 0
   994                           
   995                           ; 2 bytes @ 0x89
   996   0000E9                     	ds	2
   997                           
   998                           	psect	cstackCOMRAM
   999   000001                     __pcstackCOMRAM:
  1000                           	callstack 0
  1001   000001                     ??_IOCAF6_DefaultInterruptHandler:
  1002   000001                     ??_I2C1_Stop:
  1003   000001                     ?_TMR1_ReadTimer:
  1004                           	callstack 0
  1005   000001                     ?_TMR3_ReadTimer:
  1006                           	callstack 0
  1007   000001                     ?i2___xxtofl:
  1008                           	callstack 0
  1009   000001                     PWM1_LoadDutyValue@dutyValue:
  1010                           	callstack 0
  1011   000001                     PWM2_LoadDutyValue@dutyValue:
  1012                           	callstack 0
  1013   000001                     TMR1_WriteTimer@timerVal:
  1014                           	callstack 0
  1015   000001                     TMR3_WriteTimer@timerVal:
  1016                           	callstack 0
  1017   000001                     i2___xxtofl@val:
  1018                           	callstack 0
  1019                           
  1020                           ; 4 bytes @ 0x0
  1021   000001                     	ds	2
  1022   000003                     ??_TMR1_ReadTimer:
  1023   000003                     ??_TMR3_ReadTimer:
  1024   000003                     I2C1_Stop@completion_code:
  1025                           	callstack 0
  1026                           
  1027                           ; 1 bytes @ 0x2
  1028   000003                     	ds	1
  1029   000004                     ??_I2C1_ISR:
  1030                           
  1031                           ; 1 bytes @ 0x3
  1032   000004                     	ds	1
  1033   000005                     ??i2___xxtofl:
  1034   000005                     TMR1_ReadTimer@readVal:
  1035                           	callstack 0
  1036   000005                     TMR3_ReadTimer@readVal:
  1037                           	callstack 0
  1038                           
  1039                           ; 2 bytes @ 0x4
  1040   000005                     	ds	2
  1041   000007                     TMR1_ReadTimer@readValHigh:
  1042                           	callstack 0
  1043   000007                     TMR3_ReadTimer@readValHigh:
  1044                           	callstack 0
  1045                           
  1046                           ; 1 bytes @ 0x6
  1047   000007                     	ds	1
  1048   000008                     TMR1_ReadTimer@readValLow:
  1049                           	callstack 0
  1050   000008                     TMR3_ReadTimer@readValLow:
  1051                           	callstack 0
  1052                           
  1053                           ; 1 bytes @ 0x7
  1054   000008                     	ds	1
  1055   000009                     ?___aldiv:
  1056                           	callstack 0
  1057   000009                     i2___xxtofl@sign:
  1058                           	callstack 0
  1059   000009                     ___aldiv@dividend:
  1060                           	callstack 0
  1061                           
  1062                           ; 4 bytes @ 0x8
  1063   000009                     	ds	1
  1064   00000A                     i2___xxtofl@exp:
  1065                           	callstack 0
  1066                           
  1067                           ; 1 bytes @ 0x9
  1068   00000A                     	ds	1
  1069   00000B                     i2___xxtofl@arg:
  1070                           	callstack 0
  1071                           
  1072                           ; 4 bytes @ 0xA
  1073   00000B                     	ds	2
  1074   00000D                     ___aldiv@divisor:
  1075                           	callstack 0
  1076                           
  1077                           ; 4 bytes @ 0xC
  1078   00000D                     	ds	2
  1079   00000F                     ?i2___flmul:
  1080                           	callstack 0
  1081   00000F                     i2___flmul@b:
  1082                           	callstack 0
  1083                           
  1084                           ; 4 bytes @ 0xE
  1085   00000F                     	ds	2
  1086   000011                     ___aldiv@counter:
  1087                           	callstack 0
  1088                           
  1089                           ; 1 bytes @ 0x10
  1090   000011                     	ds	1
  1091   000012                     ___aldiv@sign:
  1092                           	callstack 0
  1093                           
  1094                           ; 1 bytes @ 0x11
  1095   000012                     	ds	1
  1096   000013                     ___aldiv@quotient:
  1097                           	callstack 0
  1098   000013                     i2___flmul@a:
  1099                           	callstack 0
  1100                           
  1101                           ; 4 bytes @ 0x12
  1102   000013                     	ds	4
  1103   000017                     ??i2___flmul:
  1104                           
  1105                           ; 1 bytes @ 0x16
  1106   000017                     	ds	4
  1107   00001B                     i2___flmul@sign:
  1108                           	callstack 0
  1109                           
  1110                           ; 1 bytes @ 0x1A
  1111   00001B                     	ds	1
  1112   00001C                     i2___flmul@grs:
  1113                           	callstack 0
  1114                           
  1115                           ; 4 bytes @ 0x1B
  1116   00001C                     	ds	4
  1117   000020                     i2___flmul@aexp:
  1118                           	callstack 0
  1119                           
  1120                           ; 1 bytes @ 0x1F
  1121   000020                     	ds	1
  1122   000021                     i2___flmul@bexp:
  1123                           	callstack 0
  1124                           
  1125                           ; 1 bytes @ 0x20
  1126   000021                     	ds	1
  1127   000022                     i2___flmul@prod:
  1128                           	callstack 0
  1129                           
  1130                           ; 4 bytes @ 0x21
  1131   000022                     	ds	4
  1132   000026                     i2___flmul@temp:
  1133                           	callstack 0
  1134                           
  1135                           ; 2 bytes @ 0x25
  1136   000026                     	ds	2
  1137   000028                     ?i2___fladd:
  1138                           	callstack 0
  1139   000028                     i2___fladd@b:
  1140                           	callstack 0
  1141                           
  1142                           ; 4 bytes @ 0x27
  1143   000028                     	ds	4
  1144   00002C                     i2___fladd@a:
  1145                           	callstack 0
  1146                           
  1147                           ; 4 bytes @ 0x2B
  1148   00002C                     	ds	4
  1149   000030                     ??i2___fladd:
  1150                           
  1151                           ; 1 bytes @ 0x2F
  1152   000030                     	ds	4
  1153   000034                     i2___fladd@signs:
  1154                           	callstack 0
  1155                           
  1156                           ; 1 bytes @ 0x33
  1157   000034                     	ds	1
  1158   000035                     i2___fladd@aexp:
  1159                           	callstack 0
  1160                           
  1161                           ; 1 bytes @ 0x34
  1162   000035                     	ds	1
  1163   000036                     i2___fladd@bexp:
  1164                           	callstack 0
  1165                           
  1166                           ; 1 bytes @ 0x35
  1167   000036                     	ds	1
  1168   000037                     i2___fladd@grs:
  1169                           	callstack 0
  1170                           
  1171                           ; 1 bytes @ 0x36
  1172   000037                     	ds	1
  1173   000038                     ?i2___fltol:
  1174                           	callstack 0
  1175   000038                     i2___fltol@f1:
  1176                           	callstack 0
  1177                           
  1178                           ; 4 bytes @ 0x37
  1179   000038                     	ds	4
  1180   00003C                     ??i2___fltol:
  1181                           
  1182                           ; 1 bytes @ 0x3B
  1183   00003C                     	ds	4
  1184   000040                     i2___fltol@sign1:
  1185                           	callstack 0
  1186                           
  1187                           ; 1 bytes @ 0x3F
  1188   000040                     	ds	1
  1189   000041                     i2___fltol@exp1:
  1190                           	callstack 0
  1191                           
  1192                           ; 1 bytes @ 0x40
  1193   000041                     	ds	1
  1194   000042                     _TMR4_DefaultInterruptHandler$5646:
  1195                           	callstack 0
  1196                           
  1197                           ; 4 bytes @ 0x41
  1198   000042                     	ds	4
  1199   000046                     ??_INTERRUPT_InterruptManager:
  1200                           
  1201                           ; 1 bytes @ 0x45
  1202   000046                     	ds	6
  1203                           
  1204 ;;
  1205 ;;Main: autosize = 0, tempsize = 4, incstack = 0, save=0
  1206 ;;
  1207 ;; *************** function _main *****************
  1208 ;; Defined at:
  1209 ;;		line 18 in file "main.c"
  1210 ;; Parameters:    Size  Location     Type
  1211 ;;		None
  1212 ;; Auto vars:     Size  Location     Type
  1213 ;;  coefI           4  122[BANK0 ] float 
  1214 ;;  coefD           4  118[BANK0 ] float 
  1215 ;;  coefP           4  114[BANK0 ] float 
  1216 ;;  aValLeft        2  135[BANK0 ] unsigned short 
  1217 ;;  aValRight       2  132[BANK0 ] unsigned short 
  1218 ;;  aValCenter      2  130[BANK0 ] unsigned short 
  1219 ;;  vBase           2   84[BANK0 ] int 
  1220 ;;  cptDRight       1  113[BANK0 ] unsigned char 
  1221 ;;  cptDLeft        1  112[BANK0 ] unsigned char 
  1222 ;;  stateSequenc   11   73[BANK0 ] unsigned char [11]
  1223 ;;  elasped_rota    4  108[BANK0 ] unsigned long 
  1224 ;;  elapsed_100m    4    0        unsigned long 
  1225 ;;  error           2  137[BANK0 ] int 
  1226 ;;  integralErro    2  128[BANK0 ] int 
  1227 ;;  lastError       2  126[BANK0 ] int 
  1228 ;;  currentSeq      2   88[BANK0 ] int 
  1229 ;;  state           1  134[BANK0 ] unsigned char 
  1230 ;;  lastDLeft       1   91[BANK0 ] unsigned char 
  1231 ;;  lastDRight      1   90[BANK0 ] unsigned char 
  1232 ;;  rightCounter    1   87[BANK0 ] unsigned char 
  1233 ;;  leftCounter     1   86[BANK0 ] unsigned char 
  1234 ;; Return value:  Size  Location     Type
  1235 ;;                  1    wreg      void 
  1236 ;; Registers used:
  1237 ;;		wreg, fsr1l, fsr1h, fsr2l, fsr2h, status,2, status,0, prodl, prodh, cstack
  1238 ;; Tracked objects:
  1239 ;;		On entry : 0/0
  1240 ;;		On exit  : 0/0
  1241 ;;		Unchanged: 0/0
  1242 ;; Data sizes:     COMRAM   BANK0   BANK1   BANK2   BANK3   BANK4   BANK5   BANK6   BANK7   BANK8   BANK9  BANK10  BANK1
      +1  BANK12  BANK13  BANK14
  1243 ;;      Params:         0       0       0       0       0       0       0       0       0       0       0       0       
      +0       0       0       0
  1244 ;;      Locals:         0      66       0       0       0       0       0       0       0       0       0       0       
      +0       0       0       0
  1245 ;;      Temps:          0       4       0       0       0       0       0       0       0       0       0       0       
      +0       0       0       0
  1246 ;;      Totals:         0      70       0       0       0       0       0       0       0       0       0       0       
      +0       0       0       0
  1247 ;;Total ram usage:       70 bytes
  1248 ;; Hardware stack levels required when called: 9
  1249 ;; This function calls:
  1250 ;;		_ADCC_GetSingleConversion
  1251 ;;		_Buzzer
  1252 ;;		_Digital_read
  1253 ;;		_LED
  1254 ;;		_Motors
  1255 ;;		_SYSTEM_Initialize
  1256 ;;		_Speed_Motors
  1257 ;;		___fladd
  1258 ;;		___flmul
  1259 ;;		___fltol
  1260 ;;		___xxtofl
  1261 ;;		_clearLCD
  1262 ;;		_initLCD
  1263 ;;		_millis
  1264 ;;		_retroLCD
  1265 ;; This function is called by:
  1266 ;;		Startup code after reset
  1267 ;; This function uses a non-reentrant model
  1268 ;;
  1269                           
  1270                           	psect	text0
  1271   000F0A                     __ptext0:
  1272                           	callstack 0
  1273   000F0A                     _main:
  1274                           	callstack 22
  1275                           
  1276                           ;main.c: 20:     SYSTEM_Initialize();
  1277                           
  1278                           ;incstack = 0
  1279   000F0A  EC19  F01B         	call	_SYSTEM_Initialize	;wreg free
  1280                           
  1281                           ;main.c: 21:     (INTCONbits.GIE = 1);
  1282   000F0E  8EF2               	bsf	242,7,c	;volatile
  1283                           
  1284                           ;main.c: 22:     (INTCONbits.PEIE = 1);
  1285   000F10  8CF2               	bsf	242,6,c	;volatile
  1286                           
  1287                           ;main.c: 24:     LED(0, 1);
  1288   000F12  0E01               	movlw	1
  1289   000F14  0100               	movlb	0	; () banked
  1290   000F16  6F60               	movwf	LED@on_off& (0+255),b
  1291   000F18  0E00               	movlw	0
  1292   000F1A  ECD8  F01A         	call	_LED
  1293                           
  1294                           ;main.c: 25:     LED(1, 0);
  1295   000F1E  0E00               	movlw	0
  1296   000F20  0100               	movlb	0	; () banked
  1297   000F22  6F60               	movwf	LED@on_off& (0+255),b
  1298   000F24  0E01               	movlw	1
  1299   000F26  ECD8  F01A         	call	_LED
  1300                           
  1301                           ;main.c: 26:     Motors(0);
  1302   000F2A  0E00               	movlw	0
  1303   000F2C  EC73  F01D         	call	_Motors
  1304                           
  1305                           ;main.c: 27:     Speed_Motors( 0, 0 );
  1306   000F30  0E00               	movlw	0
  1307   000F32  0100               	movlb	0	; () banked
  1308   000F34  6FA2               	movwf	(Speed_Motors@Cons_Vit_Mot_G+1)& (0+255),b
  1309   000F36  0E00               	movlw	0
  1310   000F38  6FA1               	movwf	Speed_Motors@Cons_Vit_Mot_G& (0+255),b
  1311   000F3A  0E00               	movlw	0
  1312   000F3C  6FA4               	movwf	(Speed_Motors@Cons_Vit_Mot_D+1)& (0+255),b
  1313   000F3E  0E00               	movlw	0
  1314   000F40  6FA3               	movwf	Speed_Motors@Cons_Vit_Mot_D& (0+255),b
  1315   000F42  EC9A  F01D         	call	_Speed_Motors	;wreg free
  1316                           
  1317                           ;main.c: 28:     initLCD();
  1318   000F46  ECFB  F016         	call	_initLCD	;wreg free
  1319                           
  1320                           ;main.c: 29:     clearLCD();
  1321   000F4A  ECAA  F01C         	call	_clearLCD	;wreg free
  1322                           
  1323                           ;main.c: 30:     retroLCD(1);
  1324   000F4E  0E01               	movlw	1
  1325   000F50  EC69  F01D         	call	_retroLCD
  1326                           
  1327                           ;main.c: 31:     _delay((unsigned long)((50)*(64000000/4000.0)));
  1328   000F54  0E05               	movlw	5
  1329   000F56  0100               	movlb	0	; () banked
  1330   000F58  6FA6               	movwf	(??_main+1)& (0+255),b
  1331   000F5A  0E0F               	movlw	15
  1332   000F5C  6FA5               	movwf	??_main& (0+255),b
  1333   000F5E  0EF1               	movlw	241
  1334   000F60                     u8357:
  1335   000F60  2EE8               	decfsz	wreg,f,c
  1336   000F62  D7FE               	bra	u8357
  1337   000F64  2FA5               	decfsz	??_main& (0+255),f,b
  1338   000F66  D7FC               	bra	u8357
  1339   000F68  2FA6               	decfsz	(??_main+1)& (0+255),f,b
  1340   000F6A  D7FA               	bra	u8357
  1341                           
  1342                           ;main.c: 33:     Speed_Motors(5, -5);
  1343   000F6C  0E00               	movlw	0
  1344   000F6E  0100               	movlb	0	; () banked
  1345   000F70  6FA2               	movwf	(Speed_Motors@Cons_Vit_Mot_G+1)& (0+255),b
  1346   000F72  0E05               	movlw	5
  1347   000F74  6FA1               	movwf	Speed_Motors@Cons_Vit_Mot_G& (0+255),b
  1348   000F76  0EFF               	movlw	255
  1349   000F78  6FA4               	movwf	(Speed_Motors@Cons_Vit_Mot_D+1)& (0+255),b
  1350   000F7A  0EFB               	movlw	251
  1351   000F7C  6FA3               	movwf	Speed_Motors@Cons_Vit_Mot_D& (0+255),b
  1352   000F7E  EC9A  F01D         	call	_Speed_Motors	;wreg free
  1353                           
  1354                           ;main.c: 36:     uint32_t elasped_rotate = 0;
  1355   000F82  0E00               	movlw	0
  1356   000F84  0100               	movlb	0	; () banked
  1357   000F86  6FCC               	movwf	main@elasped_rotate& (0+255),b
  1358   000F88  0E00               	movlw	0
  1359   000F8A  6FCD               	movwf	(main@elasped_rotate+1)& (0+255),b
  1360   000F8C  0E00               	movlw	0
  1361   000F8E  6FCE               	movwf	(main@elasped_rotate+2)& (0+255),b
  1362   000F90  0E00               	movlw	0
  1363   000F92  6FCF               	movwf	(main@elasped_rotate+3)& (0+255),b
  1364                           
  1365                           ; BSR set to: 0
  1366                           ;main.c: 37:     Motors(1);
  1367   000F94  0E01               	movlw	1
  1368   000F96  EC73  F01D         	call	_Motors
  1369                           
  1370                           ;main.c: 38:     int error = 0;
  1371   000F9A  0E00               	movlw	0
  1372   000F9C  0100               	movlb	0	; () banked
  1373   000F9E  6FEA               	movwf	(main@error+1)& (0+255),b
  1374   000FA0  0E00               	movlw	0
  1375   000FA2  6FE9               	movwf	main@error& (0+255),b
  1376                           
  1377                           ; BSR set to: 0
  1378                           ;main.c: 39:     int lastError = 0;
  1379   000FA4  0E00               	movlw	0
  1380   000FA6  6FDF               	movwf	(main@lastError+1)& (0+255),b
  1381   000FA8  0E00               	movlw	0
  1382   000FAA  6FDE               	movwf	main@lastError& (0+255),b
  1383                           
  1384                           ; BSR set to: 0
  1385                           ;main.c: 40:     int integralError = 0;
  1386   000FAC  0E00               	movlw	0
  1387   000FAE  6FE1               	movwf	(main@integralError+1)& (0+255),b
  1388   000FB0  0E00               	movlw	0
  1389   000FB2  6FE0               	movwf	main@integralError& (0+255),b
  1390                           
  1391                           ; BSR set to: 0
  1392                           ;main.c: 42:     uint8_t leftCounter = 0;
  1393   000FB4  0E00               	movlw	0
  1394   000FB6  6FB6               	movwf	main@leftCounter& (0+255),b
  1395                           
  1396                           ; BSR set to: 0
  1397                           ;main.c: 43:     uint8_t rightCounter = 0;
  1398   000FB8  0E00               	movlw	0
  1399   000FBA  6FB7               	movwf	main@rightCounter& (0+255),b
  1400                           
  1401                           ; BSR set to: 0
  1402                           ;main.c: 45:     uint8_t lastDRight = 0;
  1403   000FBC  0E00               	movlw	0
  1404   000FBE  6FBA               	movwf	main@lastDRight& (0+255),b
  1405                           
  1406                           ; BSR set to: 0
  1407                           ;main.c: 46:     uint8_t lastDLeft = 0;
  1408   000FC0  0E00               	movlw	0
  1409   000FC2  6FBB               	movwf	main@lastDLeft& (0+255),b
  1410                           
  1411                           ; BSR set to: 0
  1412                           ;main.c: 48:     uint8_t state = 0;
  1413   000FC4  0E00               	movlw	0
  1414   000FC6  6FE6               	movwf	main@state& (0+255),b
  1415                           
  1416                           ; BSR set to: 0
  1417                           ;main.c: 50:     uint8_t stateSequence[11] = {4, 1, 1, 1, 2, 4, 2, 2, 2, 1, 3};
  1418   000FC8  EE21  F076         	lfsr	2,main@F11533
  1419   000FCC  EE10  F0A9         	lfsr	1,main@stateSequence
  1420   000FD0  0E0A               	movlw	10
  1421   000FD2                     u7761:
  1422   000FD2  CFDB FFE3          	movff	plusw2,plusw1
  1423   000FD6  06E8               	decf	wreg,f,c
  1424   000FD8  E2FC               	bc	u7761
  1425                           
  1426                           ; BSR set to: 0
  1427                           ;main.c: 51:     int currentSeq = 0;
  1428   000FDA  0E00               	movlw	0
  1429   000FDC  6FB9               	movwf	(main@currentSeq+1)& (0+255),b
  1430   000FDE  0E00               	movlw	0
  1431   000FE0  6FB8               	movwf	main@currentSeq& (0+255),b
  1432   000FE2                     l8251:
  1433                           
  1434                           ;main.c: 53:         float coefP = - 9.5 / 200.0;
  1435   000FE2  0E5C               	movlw	92
  1436   000FE4  0100               	movlb	0	; () banked
  1437   000FE6  6FD2               	movwf	main@coefP& (0+255),b
  1438   000FE8  0E8F               	movlw	143
  1439   000FEA  6FD3               	movwf	(main@coefP+1)& (0+255),b
  1440   000FEC  0E42               	movlw	66
  1441   000FEE  6FD4               	movwf	(main@coefP+2)& (0+255),b
  1442   000FF0  0EBD               	movlw	189
  1443   000FF2  6FD5               	movwf	(main@coefP+3)& (0+255),b
  1444                           
  1445                           ; BSR set to: 0
  1446                           ;main.c: 54:         float coefD = -4.5 / 250;
  1447   000FF4  0EBC               	movlw	188
  1448   000FF6  6FD6               	movwf	main@coefD& (0+255),b
  1449   000FF8  0E74               	movlw	116
  1450   000FFA  6FD7               	movwf	(main@coefD+1)& (0+255),b
  1451   000FFC  0E93               	movlw	147
  1452   000FFE  6FD8               	movwf	(main@coefD+2)& (0+255),b
  1453   001000  0EBC               	movlw	188
  1454   001002  6FD9               	movwf	(main@coefD+3)& (0+255),b
  1455                           
  1456                           ; BSR set to: 0
  1457                           ;main.c: 55:         float coefI = 0;
  1458   001004  0E00               	movlw	0
  1459   001006  6FDA               	movwf	main@coefI& (0+255),b
  1460   001008  0E00               	movlw	0
  1461   00100A  6FDB               	movwf	(main@coefI+1)& (0+255),b
  1462   00100C  0E00               	movlw	0
  1463   00100E  6FDC               	movwf	(main@coefI+2)& (0+255),b
  1464   001010  0E00               	movlw	0
  1465   001012  6FDD               	movwf	(main@coefI+3)& (0+255),b
  1466                           
  1467                           ; BSR set to: 0
  1468                           ;main.c: 56:         int vBase = 10;
  1469   001014  0E00               	movlw	0
  1470   001016  6FB5               	movwf	(main@vBase+1)& (0+255),b
  1471   001018  0E0A               	movlw	10
  1472   00101A  6FB4               	movwf	main@vBase& (0+255),b
  1473                           
  1474                           ; BSR set to: 0
  1475                           ;main.c: 59:         uint16_t aValCenter = ADCC_GetSingleConversion(30);
  1476   00101C  0E1E               	movlw	30
  1477   00101E  EC3D  F01C         	call	_ADCC_GetSingleConversion
  1478   001022  C060  F0E2         	movff	?_ADCC_GetSingleConversion,main@aValCenter
  1479   001026  C061  F0E3         	movff	?_ADCC_GetSingleConversion+1,main@aValCenter+1
  1480                           
  1481                           ;main.c: 60:         uint16_t aValRight = ADCC_GetSingleConversion(29);
  1482   00102A  0E1D               	movlw	29
  1483   00102C  EC3D  F01C         	call	_ADCC_GetSingleConversion
  1484   001030  C060  F0E4         	movff	?_ADCC_GetSingleConversion,main@aValRight
  1485   001034  C061  F0E5         	movff	?_ADCC_GetSingleConversion+1,main@aValRight+1
  1486                           
  1487                           ;main.c: 61:         uint16_t aValLeft = ADCC_GetSingleConversion(31);
  1488   001038  0E1F               	movlw	31
  1489   00103A  EC3D  F01C         	call	_ADCC_GetSingleConversion
  1490   00103E  C060  F0E7         	movff	?_ADCC_GetSingleConversion,main@aValLeft
  1491   001042  C061  F0E8         	movff	?_ADCC_GetSingleConversion+1,main@aValLeft+1
  1492                           
  1493                           ;main.c: 63:         uint8_t cptDLeft = Digital_read(0);
  1494   001046  0E00               	movlw	0
  1495   001048  ECAA  F019         	call	_Digital_read
  1496   00104C  0100               	movlb	0	; () banked
  1497   00104E  6FD0               	movwf	main@cptDLeft& (0+255),b
  1498                           
  1499                           ; BSR set to: 0
  1500                           ;main.c: 64:         uint8_t cptDRight = Digital_read(1);
  1501   001050  0E01               	movlw	1
  1502   001052  ECAA  F019         	call	_Digital_read
  1503   001056  0100               	movlb	0	; () banked
  1504   001058  6FD1               	movwf	main@cptDRight& (0+255),b
  1505                           
  1506                           ; BSR set to: 0
  1507                           ;main.c: 66:         if(cptDLeft && !lastDLeft) {
  1508   00105A  51D0               	movf	main@cptDLeft& (0+255),w,b
  1509   00105C  B4D8               	btfsc	status,2,c
  1510   00105E  D003               	goto	l8275
  1511                           
  1512                           ; BSR set to: 0
  1513   001060  51BB               	movf	main@lastDLeft& (0+255),w,b
  1514   001062  B4D8               	btfsc	status,2,c
  1515                           
  1516                           ; BSR set to: 0
  1517                           ;main.c: 67:             leftCounter++;
  1518   001064  2BB6               	incf	main@leftCounter& (0+255),f,b
  1519   001066                     l8275:
  1520                           
  1521                           ; BSR set to: 0
  1522                           ;main.c: 69:         if(cptDRight && !lastDRight) {
  1523   001066  51D1               	movf	main@cptDRight& (0+255),w,b
  1524   001068  B4D8               	btfsc	status,2,c
  1525   00106A  D003               	goto	l8281
  1526                           
  1527                           ; BSR set to: 0
  1528   00106C  51BA               	movf	main@lastDRight& (0+255),w,b
  1529   00106E  B4D8               	btfsc	status,2,c
  1530                           
  1531                           ; BSR set to: 0
  1532                           ;main.c: 70:             rightCounter++;
  1533   001070  2BB7               	incf	main@rightCounter& (0+255),f,b
  1534   001072                     l8281:
  1535                           
  1536                           ; BSR set to: 0
  1537                           ;main.c: 73:         lastDRight = cptDRight;
  1538   001072  C0D1  F0BA         	movff	main@cptDRight,main@lastDRight
  1539                           
  1540                           ; BSR set to: 0
  1541                           ;main.c: 74:         lastDLeft = cptDLeft;
  1542   001076  C0D0  F0BB         	movff	main@cptDLeft,main@lastDLeft
  1543                           
  1544                           ; BSR set to: 0
  1545                           ;main.c: 77:         if(cptDLeft && cptDRight && state == 0) {
  1546   00107A  51D0               	movf	main@cptDLeft& (0+255),w,b
  1547   00107C  B4D8               	btfsc	status,2,c
  1548   00107E  D01A               	goto	l8297
  1549                           
  1550                           ; BSR set to: 0
  1551   001080  51D1               	movf	main@cptDRight& (0+255),w,b
  1552   001082  B4D8               	btfsc	status,2,c
  1553   001084  D017               	goto	l8297
  1554                           
  1555                           ; BSR set to: 0
  1556   001086  51E6               	movf	main@state& (0+255),w,b
  1557   001088  A4D8               	btfss	status,2,c
  1558   00108A  D014               	goto	l8297
  1559                           
  1560                           ; BSR set to: 0
  1561                           ;main.c: 78:             state = stateSequence[currentSeq];
  1562   00108C  0EA9               	movlw	low main@stateSequence
  1563   00108E  25B8               	addwf	main@currentSeq& (0+255),w,b
  1564   001090  6ED9               	movwf	fsr2l,c
  1565   001092  0E00               	movlw	high main@stateSequence
  1566   001094  21B9               	addwfc	(main@currentSeq+1)& (0+255),w,b
  1567   001096  6EDA               	movwf	fsr2h,c
  1568   001098  50DF               	movf	indf2,w,c
  1569   00109A  6FE6               	movwf	main@state& (0+255),b
  1570                           
  1571                           ; BSR set to: 0
  1572                           ;main.c: 79:             currentSeq++;
  1573   00109C  4BB8               	infsnz	main@currentSeq& (0+255),f,b
  1574   00109E  2BB9               	incf	(main@currentSeq+1)& (0+255),f,b
  1575                           
  1576                           ; BSR set to: 0
  1577                           ;main.c: 80:             elasped_rotate = millis();
  1578   0010A0  EC91  F01D         	call	_millis	;wreg free
  1579   0010A4  C060  F0CC         	movff	?_millis,main@elasped_rotate
  1580   0010A8  C061  F0CD         	movff	?_millis+1,main@elasped_rotate+1
  1581   0010AC  C062  F0CE         	movff	?_millis+2,main@elasped_rotate+2
  1582   0010B0  C063  F0CF         	movff	?_millis+3,main@elasped_rotate+3
  1583   0010B4                     l8297:
  1584                           
  1585                           ;main.c: 83:         if(!(-50 < aValLeft - aValRight && aValLeft - aValRight < 50 && aVa
      +                          lCenter < 800)) {
  1586   0010B4  0100               	movlb	0	; () banked
  1587   0010B6  51E4               	movf	main@aValRight& (0+255),w,b
  1588   0010B8  5DE7               	subwf	main@aValLeft& (0+255),w,b
  1589   0010BA  6FA5               	movwf	??_main& (0+255),b
  1590   0010BC  51E5               	movf	(main@aValRight+1)& (0+255),w,b
  1591   0010BE  59E8               	subwfb	(main@aValLeft+1)& (0+255),w,b
  1592   0010C0  6FA6               	movwf	(??_main+1)& (0+255),b
  1593   0010C2  0ECF               	movlw	207
  1594   0010C4  5DA5               	subwf	??_main& (0+255),w,b
  1595   0010C6  0EFF               	movlw	255
  1596   0010C8  59A6               	subwfb	(??_main+1)& (0+255),w,b
  1597   0010CA  A0D8               	btfss	status,0,c
  1598   0010CC  D012               	goto	u7860
  1599                           
  1600                           ; BSR set to: 0
  1601   0010CE  51E4               	movf	main@aValRight& (0+255),w,b
  1602   0010D0  5DE7               	subwf	main@aValLeft& (0+255),w,b
  1603   0010D2  6FA5               	movwf	??_main& (0+255),b
  1604   0010D4  51E5               	movf	(main@aValRight+1)& (0+255),w,b
  1605   0010D6  59E8               	subwfb	(main@aValLeft+1)& (0+255),w,b
  1606   0010D8  6FA6               	movwf	(??_main+1)& (0+255),b
  1607   0010DA  51A6               	movf	(??_main+1)& (0+255),w,b
  1608   0010DC  E10A               	bnz	l8303
  1609   0010DE  0E32               	movlw	50
  1610   0010E0  5DA5               	subwf	??_main& (0+255),w,b
  1611   0010E2  B0D8               	btfsc	status,0,c
  1612   0010E4  D006               	goto	u7860
  1613                           
  1614                           ; BSR set to: 0
  1615   0010E6  0E20               	movlw	32
  1616   0010E8  5DE2               	subwf	main@aValCenter& (0+255),w,b
  1617   0010EA  0E03               	movlw	3
  1618   0010EC  59E3               	subwfb	(main@aValCenter+1)& (0+255),w,b
  1619   0010EE  A0D8               	btfss	status,0,c
  1620   0010F0  D02A               	goto	l8309
  1621   0010F2                     u7860:
  1622   0010F2                     l8303:
  1623                           
  1624                           ; BSR set to: 0
  1625                           ;main.c: 84:             if(aValLeft < aValRight) {
  1626   0010F2  51E4               	movf	main@aValRight& (0+255),w,b
  1627   0010F4  5DE7               	subwf	main@aValLeft& (0+255),w,b
  1628   0010F6  51E5               	movf	(main@aValRight+1)& (0+255),w,b
  1629   0010F8  59E8               	subwfb	(main@aValLeft+1)& (0+255),w,b
  1630   0010FA  B0D8               	btfsc	status,0,c
  1631   0010FC  D013               	goto	l8307
  1632                           
  1633                           ; BSR set to: 0
  1634                           ;main.c: 85:                 error = aValLeft - 2 * aValRight + aValCenter;
  1635   0010FE  C0E4  F0A5         	movff	main@aValRight,??_main
  1636   001102  C0E5  F0A6         	movff	main@aValRight+1,??_main+1
  1637   001106  90D8               	bcf	status,0,c
  1638   001108  37A5               	rlcf	??_main& (0+255),f,b
  1639   00110A  37A6               	rlcf	(??_main+1)& (0+255),f,b
  1640   00110C  51A5               	movf	??_main& (0+255),w,b
  1641   00110E  5DE7               	subwf	main@aValLeft& (0+255),w,b
  1642   001110  6FA7               	movwf	(??_main+2)& (0+255),b
  1643   001112  51A6               	movf	(??_main+1)& (0+255),w,b
  1644   001114  59E8               	subwfb	(main@aValLeft+1)& (0+255),w,b
  1645   001116  6FA8               	movwf	(??_main+3)& (0+255),b
  1646   001118  51E2               	movf	main@aValCenter& (0+255),w,b
  1647   00111A  25A7               	addwf	(??_main+2)& (0+255),w,b
  1648   00111C  6FE9               	movwf	main@error& (0+255),b
  1649   00111E  51E3               	movf	(main@aValCenter+1)& (0+255),w,b
  1650   001120  21A8               	addwfc	(??_main+3)& (0+255),w,b
  1651   001122  D010               	goto	L1
  1652   001124                     l8307:
  1653                           
  1654                           ; BSR set to: 0
  1655                           ;main.c: 88:                 error = aValLeft * 2 - aValLeft - aValCenter;
  1656   001124  C0E7  F0A5         	movff	main@aValLeft,??_main
  1657   001128  C0E8  F0A6         	movff	main@aValLeft+1,??_main+1
  1658   00112C  90D8               	bcf	status,0,c
  1659   00112E  37A5               	rlcf	??_main& (0+255),f,b
  1660   001130  37A6               	rlcf	(??_main+1)& (0+255),f,b
  1661   001132  51E7               	movf	main@aValLeft& (0+255),w,b
  1662   001134  5FA5               	subwf	??_main& (0+255),f,b
  1663   001136  51E8               	movf	(main@aValLeft+1)& (0+255),w,b
  1664   001138  5BA6               	subwfb	(??_main+1)& (0+255),f,b
  1665   00113A  51E2               	movf	main@aValCenter& (0+255),w,b
  1666   00113C  5DA5               	subwf	??_main& (0+255),w,b
  1667   00113E  6FE9               	movwf	main@error& (0+255),b
  1668   001140  51E3               	movf	(main@aValCenter+1)& (0+255),w,b
  1669   001142  59A6               	subwfb	(??_main+1)& (0+255),w,b
  1670   001144                     L1:
  1671   001144  6FEA               	movwf	(main@error+1)& (0+255),b
  1672   001146                     l8309:
  1673                           
  1674                           ; BSR set to: 0
  1675                           ;main.c: 92:         if(state == 0) {
  1676   001146  51E6               	movf	main@state& (0+255),w,b
  1677   001148  A4D8               	btfss	status,2,c
  1678   00114A  D172               	goto	l8315
  1679                           
  1680                           ; BSR set to: 0
  1681                           ;main.c: 93:             Speed_Motors((coefP * error + coefD * (error - lastError) + coe
      +                          fI * integralError) + 20, (coefP * error + coefD * (error - lastError) + + coefI * integ
      +                          ralError) - 10 );
  1682   00114C  C0D6  F072         	movff	main@coefD,___flmul@a
  1683   001150  C0D7  F073         	movff	main@coefD+1,___flmul@a+1
  1684   001154  C0D8  F074         	movff	main@coefD+2,___flmul@a+2
  1685   001158  C0D9  F075         	movff	main@coefD+3,___flmul@a+3
  1686   00115C  51DE               	movf	main@lastError& (0+255),w,b
  1687   00115E  5DE9               	subwf	main@error& (0+255),w,b
  1688   001160  6FA5               	movwf	??_main& (0+255),b
  1689   001162  51DF               	movf	(main@lastError+1)& (0+255),w,b
  1690   001164  59EA               	subwfb	(main@error+1)& (0+255),w,b
  1691   001166  6FA6               	movwf	(??_main+1)& (0+255),b
  1692   001168  C0A5  F060         	movff	??_main,___xxtofl@val
  1693   00116C  C0A6  F061         	movff	??_main+1,___xxtofl@val+1
  1694   001170  0E00               	movlw	0
  1695   001172  BF61               	btfsc	(___xxtofl@val+1)& (0+255),7,b
  1696   001174  0EFF               	movlw	-1
  1697   001176  6F62               	movwf	(___xxtofl@val+2)& (0+255),b
  1698   001178  6F63               	movwf	(___xxtofl@val+3)& (0+255),b
  1699   00117A  0E01               	movlw	1
  1700   00117C  EC37  F015         	call	___xxtofl
  1701   001180  C060  F06E         	movff	?___xxtofl,___flmul@b
  1702   001184  C061  F06F         	movff	?___xxtofl+1,___flmul@b+1
  1703   001188  C062  F070         	movff	?___xxtofl+2,___flmul@b+2
  1704   00118C  C063  F071         	movff	?___xxtofl+3,___flmul@b+3
  1705   001190  EC5D  F00C         	call	___flmul	;wreg free
  1706   001194  C06E  F08B         	movff	?___flmul,___fladd@a
  1707   001198  C06F  F08C         	movff	?___flmul+1,___fladd@a+1
  1708   00119C  C070  F08D         	movff	?___flmul+2,___fladd@a+2
  1709   0011A0  C071  F08E         	movff	?___flmul+3,___fladd@a+3
  1710   0011A4  C0D2  F072         	movff	main@coefP,___flmul@a
  1711   0011A8  C0D3  F073         	movff	main@coefP+1,___flmul@a+1
  1712   0011AC  C0D4  F074         	movff	main@coefP+2,___flmul@a+2
  1713   0011B0  C0D5  F075         	movff	main@coefP+3,___flmul@a+3
  1714   0011B4  C0E9  F060         	movff	main@error,___xxtofl@val
  1715   0011B8  C0EA  F061         	movff	main@error+1,___xxtofl@val+1
  1716   0011BC  0100               	movlb	0	; () banked
  1717   0011BE  0E00               	movlw	0
  1718   0011C0  BF61               	btfsc	(___xxtofl@val+1)& (0+255),7,b
  1719   0011C2  0EFF               	movlw	-1
  1720   0011C4  6F62               	movwf	(___xxtofl@val+2)& (0+255),b
  1721   0011C6  6F63               	movwf	(___xxtofl@val+3)& (0+255),b
  1722   0011C8  0E01               	movlw	1
  1723   0011CA  EC37  F015         	call	___xxtofl
  1724   0011CE  C060  F06E         	movff	?___xxtofl,___flmul@b
  1725   0011D2  C061  F06F         	movff	?___xxtofl+1,___flmul@b+1
  1726   0011D6  C062  F070         	movff	?___xxtofl+2,___flmul@b+2
  1727   0011DA  C063  F071         	movff	?___xxtofl+3,___flmul@b+3
  1728   0011DE  EC5D  F00C         	call	___flmul	;wreg free
  1729   0011E2  C06E  F087         	movff	?___flmul,___fladd@b
  1730   0011E6  C06F  F088         	movff	?___flmul+1,___fladd@b+1
  1731   0011EA  C070  F089         	movff	?___flmul+2,___fladd@b+2
  1732   0011EE  C071  F08A         	movff	?___flmul+3,___fladd@b+3
  1733   0011F2  ECB0  F00F         	call	___fladd	;wreg free
  1734   0011F6  C087  F0BC         	movff	?___fladd,_main$5546
  1735   0011FA  C088  F0BD         	movff	?___fladd+1,_main$5546+1
  1736   0011FE  C089  F0BE         	movff	?___fladd+2,_main$5546+2
  1737   001202  C08A  F0BF         	movff	?___fladd+3,_main$5546+3
  1738                           
  1739                           ;main.c: 93:             Speed_Motors((coefP * error + coefD * (error - lastError) + coe
      +                          fI * integralError) + 20, (coefP * error + coefD * (error - lastError) + + coefI * integ
      +                          ralError) - 10 );
  1740   001206  C0DA  F072         	movff	main@coefI,___flmul@a
  1741   00120A  C0DB  F073         	movff	main@coefI+1,___flmul@a+1
  1742   00120E  C0DC  F074         	movff	main@coefI+2,___flmul@a+2
  1743   001212  C0DD  F075         	movff	main@coefI+3,___flmul@a+3
  1744   001216  C0E0  F060         	movff	main@integralError,___xxtofl@val
  1745   00121A  C0E1  F061         	movff	main@integralError+1,___xxtofl@val+1
  1746   00121E  0100               	movlb	0	; () banked
  1747   001220  0E00               	movlw	0
  1748   001222  BF61               	btfsc	(___xxtofl@val+1)& (0+255),7,b
  1749   001224  0EFF               	movlw	-1
  1750   001226  6F62               	movwf	(___xxtofl@val+2)& (0+255),b
  1751   001228  6F63               	movwf	(___xxtofl@val+3)& (0+255),b
  1752   00122A  0E01               	movlw	1
  1753   00122C  EC37  F015         	call	___xxtofl
  1754   001230  C060  F06E         	movff	?___xxtofl,___flmul@b
  1755   001234  C061  F06F         	movff	?___xxtofl+1,___flmul@b+1
  1756   001238  C062  F070         	movff	?___xxtofl+2,___flmul@b+2
  1757   00123C  C063  F071         	movff	?___xxtofl+3,___flmul@b+3
  1758   001240  EC5D  F00C         	call	___flmul	;wreg free
  1759   001244  C06E  F08B         	movff	?___flmul,___fladd@a
  1760   001248  C06F  F08C         	movff	?___flmul+1,___fladd@a+1
  1761   00124C  C070  F08D         	movff	?___flmul+2,___fladd@a+2
  1762   001250  C071  F08E         	movff	?___flmul+3,___fladd@a+3
  1763   001254  C0BC  F087         	movff	_main$5546,___fladd@b
  1764   001258  C0BD  F088         	movff	_main$5546+1,___fladd@b+1
  1765   00125C  C0BE  F089         	movff	_main$5546+2,___fladd@b+2
  1766   001260  C0BF  F08A         	movff	_main$5546+3,___fladd@b+3
  1767   001264  ECB0  F00F         	call	___fladd	;wreg free
  1768   001268  C087  F0C0         	movff	?___fladd,_main$5547
  1769   00126C  C088  F0C1         	movff	?___fladd+1,_main$5547+1
  1770   001270  C089  F0C2         	movff	?___fladd+2,_main$5547+2
  1771   001274  C08A  F0C3         	movff	?___fladd+3,_main$5547+3
  1772                           
  1773                           ;main.c: 93:             Speed_Motors((coefP * error + coefD * (error - lastError) + coe
      +                          fI * integralError) + 20, (coefP * error + coefD * (error - lastError) + + coefI * integ
      +                          ralError) - 10 );
  1774   001278  C0D6  F072         	movff	main@coefD,___flmul@a
  1775   00127C  C0D7  F073         	movff	main@coefD+1,___flmul@a+1
  1776   001280  C0D8  F074         	movff	main@coefD+2,___flmul@a+2
  1777   001284  C0D9  F075         	movff	main@coefD+3,___flmul@a+3
  1778   001288  0100               	movlb	0	; () banked
  1779   00128A  51DE               	movf	main@lastError& (0+255),w,b
  1780   00128C  5DE9               	subwf	main@error& (0+255),w,b
  1781   00128E  6FA5               	movwf	??_main& (0+255),b
  1782   001290  51DF               	movf	(main@lastError+1)& (0+255),w,b
  1783   001292  59EA               	subwfb	(main@error+1)& (0+255),w,b
  1784   001294  6FA6               	movwf	(??_main+1)& (0+255),b
  1785   001296  C0A5  F060         	movff	??_main,___xxtofl@val
  1786   00129A  C0A6  F061         	movff	??_main+1,___xxtofl@val+1
  1787   00129E  0E00               	movlw	0
  1788   0012A0  BF61               	btfsc	(___xxtofl@val+1)& (0+255),7,b
  1789   0012A2  0EFF               	movlw	-1
  1790   0012A4  6F62               	movwf	(___xxtofl@val+2)& (0+255),b
  1791   0012A6  6F63               	movwf	(___xxtofl@val+3)& (0+255),b
  1792   0012A8  0E01               	movlw	1
  1793   0012AA  EC37  F015         	call	___xxtofl
  1794   0012AE  C060  F06E         	movff	?___xxtofl,___flmul@b
  1795   0012B2  C061  F06F         	movff	?___xxtofl+1,___flmul@b+1
  1796   0012B6  C062  F070         	movff	?___xxtofl+2,___flmul@b+2
  1797   0012BA  C063  F071         	movff	?___xxtofl+3,___flmul@b+3
  1798   0012BE  EC5D  F00C         	call	___flmul	;wreg free
  1799   0012C2  C06E  F08B         	movff	?___flmul,___fladd@a
  1800   0012C6  C06F  F08C         	movff	?___flmul+1,___fladd@a+1
  1801   0012CA  C070  F08D         	movff	?___flmul+2,___fladd@a+2
  1802   0012CE  C071  F08E         	movff	?___flmul+3,___fladd@a+3
  1803   0012D2  C0D2  F072         	movff	main@coefP,___flmul@a
  1804   0012D6  C0D3  F073         	movff	main@coefP+1,___flmul@a+1
  1805   0012DA  C0D4  F074         	movff	main@coefP+2,___flmul@a+2
  1806   0012DE  C0D5  F075         	movff	main@coefP+3,___flmul@a+3
  1807   0012E2  C0E9  F060         	movff	main@error,___xxtofl@val
  1808   0012E6  C0EA  F061         	movff	main@error+1,___xxtofl@val+1
  1809   0012EA  0100               	movlb	0	; () banked
  1810   0012EC  0E00               	movlw	0
  1811   0012EE  BF61               	btfsc	(___xxtofl@val+1)& (0+255),7,b
  1812   0012F0  0EFF               	movlw	-1
  1813   0012F2  6F62               	movwf	(___xxtofl@val+2)& (0+255),b
  1814   0012F4  6F63               	movwf	(___xxtofl@val+3)& (0+255),b
  1815   0012F6  0E01               	movlw	1
  1816   0012F8  EC37  F015         	call	___xxtofl
  1817   0012FC  C060  F06E         	movff	?___xxtofl,___flmul@b
  1818   001300  C061  F06F         	movff	?___xxtofl+1,___flmul@b+1
  1819   001304  C062  F070         	movff	?___xxtofl+2,___flmul@b+2
  1820   001308  C063  F071         	movff	?___xxtofl+3,___flmul@b+3
  1821   00130C  EC5D  F00C         	call	___flmul	;wreg free
  1822   001310  C06E  F087         	movff	?___flmul,___fladd@b
  1823   001314  C06F  F088         	movff	?___flmul+1,___fladd@b+1
  1824   001318  C070  F089         	movff	?___flmul+2,___fladd@b+2
  1825   00131C  C071  F08A         	movff	?___flmul+3,___fladd@b+3
  1826   001320  ECB0  F00F         	call	___fladd	;wreg free
  1827   001324  C087  F0C4         	movff	?___fladd,_main$5548
  1828   001328  C088  F0C5         	movff	?___fladd+1,_main$5548+1
  1829   00132C  C089  F0C6         	movff	?___fladd+2,_main$5548+2
  1830   001330  C08A  F0C7         	movff	?___fladd+3,_main$5548+3
  1831                           
  1832                           ;main.c: 93:             Speed_Motors((coefP * error + coefD * (error - lastError) + coe
      +                          fI * integralError) + 20, (coefP * error + coefD * (error - lastError) + + coefI * integ
      +                          ralError) - 10 );
  1833   001334  C0DA  F072         	movff	main@coefI,___flmul@a
  1834   001338  C0DB  F073         	movff	main@coefI+1,___flmul@a+1
  1835   00133C  C0DC  F074         	movff	main@coefI+2,___flmul@a+2
  1836   001340  C0DD  F075         	movff	main@coefI+3,___flmul@a+3
  1837   001344  C0E0  F060         	movff	main@integralError,___xxtofl@val
  1838   001348  C0E1  F061         	movff	main@integralError+1,___xxtofl@val+1
  1839   00134C  0100               	movlb	0	; () banked
  1840   00134E  0E00               	movlw	0
  1841   001350  BF61               	btfsc	(___xxtofl@val+1)& (0+255),7,b
  1842   001352  0EFF               	movlw	-1
  1843   001354  6F62               	movwf	(___xxtofl@val+2)& (0+255),b
  1844   001356  6F63               	movwf	(___xxtofl@val+3)& (0+255),b
  1845   001358  0E01               	movlw	1
  1846   00135A  EC37  F015         	call	___xxtofl
  1847   00135E  C060  F06E         	movff	?___xxtofl,___flmul@b
  1848   001362  C061  F06F         	movff	?___xxtofl+1,___flmul@b+1
  1849   001366  C062  F070         	movff	?___xxtofl+2,___flmul@b+2
  1850   00136A  C063  F071         	movff	?___xxtofl+3,___flmul@b+3
  1851   00136E  EC5D  F00C         	call	___flmul	;wreg free
  1852   001372  C06E  F08B         	movff	?___flmul,___fladd@a
  1853   001376  C06F  F08C         	movff	?___flmul+1,___fladd@a+1
  1854   00137A  C070  F08D         	movff	?___flmul+2,___fladd@a+2
  1855   00137E  C071  F08E         	movff	?___flmul+3,___fladd@a+3
  1856   001382  C0C4  F087         	movff	_main$5548,___fladd@b
  1857   001386  C0C5  F088         	movff	_main$5548+1,___fladd@b+1
  1858   00138A  C0C6  F089         	movff	_main$5548+2,___fladd@b+2
  1859   00138E  C0C7  F08A         	movff	_main$5548+3,___fladd@b+3
  1860   001392  ECB0  F00F         	call	___fladd	;wreg free
  1861   001396  C087  F0C8         	movff	?___fladd,_main$5549
  1862   00139A  C088  F0C9         	movff	?___fladd+1,_main$5549+1
  1863   00139E  C089  F0CA         	movff	?___fladd+2,_main$5549+2
  1864   0013A2  C08A  F0CB         	movff	?___fladd+3,_main$5549+3
  1865                           
  1866                           ;main.c: 93:             Speed_Motors((coefP * error + coefD * (error - lastError) + coe
      +                          fI * integralError) + 20, (coefP * error + coefD * (error - lastError) + + coefI * integ
      +                          ralError) - 10 );
  1867   0013A6  0E00               	movlw	0
  1868   0013A8  0100               	movlb	0	; () banked
  1869   0013AA  6F8B               	movwf	___fladd@a& (0+255),b
  1870   0013AC  0E00               	movlw	0
  1871   0013AE  6F8C               	movwf	(___fladd@a+1)& (0+255),b
  1872   0013B0  0EA0               	movlw	160
  1873   0013B2  6F8D               	movwf	(___fladd@a+2)& (0+255),b
  1874   0013B4  0E41               	movlw	65
  1875   0013B6  6F8E               	movwf	(___fladd@a+3)& (0+255),b
  1876   0013B8  C0C0  F087         	movff	_main$5547,___fladd@b
  1877   0013BC  C0C1  F088         	movff	_main$5547+1,___fladd@b+1
  1878   0013C0  C0C2  F089         	movff	_main$5547+2,___fladd@b+2
  1879   0013C4  C0C3  F08A         	movff	_main$5547+3,___fladd@b+3
  1880   0013C8  ECB0  F00F         	call	___fladd	;wreg free
  1881   0013CC  C087  F097         	movff	?___fladd,___fltol@f1
  1882   0013D0  C088  F098         	movff	?___fladd+1,___fltol@f1+1
  1883   0013D4  C089  F099         	movff	?___fladd+2,___fltol@f1+2
  1884   0013D8  C08A  F09A         	movff	?___fladd+3,___fltol@f1+3
  1885   0013DC  ECDC  F017         	call	___fltol	;wreg free
  1886   0013E0  C097  F0A1         	movff	?___fltol,Speed_Motors@Cons_Vit_Mot_G
  1887   0013E4  C098  F0A2         	movff	?___fltol+1,Speed_Motors@Cons_Vit_Mot_G+1
  1888   0013E8  0E00               	movlw	0
  1889   0013EA  0100               	movlb	0	; () banked
  1890   0013EC  6F8B               	movwf	___fladd@a& (0+255),b
  1891   0013EE  0E00               	movlw	0
  1892   0013F0  6F8C               	movwf	(___fladd@a+1)& (0+255),b
  1893   0013F2  0E20               	movlw	32
  1894   0013F4  6F8D               	movwf	(___fladd@a+2)& (0+255),b
  1895   0013F6  0EC1               	movlw	193
  1896   0013F8  6F8E               	movwf	(___fladd@a+3)& (0+255),b
  1897   0013FA  C0C8  F087         	movff	_main$5549,___fladd@b
  1898   0013FE  C0C9  F088         	movff	_main$5549+1,___fladd@b+1
  1899   001402  C0CA  F089         	movff	_main$5549+2,___fladd@b+2
  1900   001406  C0CB  F08A         	movff	_main$5549+3,___fladd@b+3
  1901   00140A  ECB0  F00F         	call	___fladd	;wreg free
  1902   00140E  C087  F097         	movff	?___fladd,___fltol@f1
  1903   001412  C088  F098         	movff	?___fladd+1,___fltol@f1+1
  1904   001416  C089  F099         	movff	?___fladd+2,___fltol@f1+2
  1905   00141A  C08A  F09A         	movff	?___fladd+3,___fltol@f1+3
  1906   00141E  ECDC  F017         	call	___fltol	;wreg free
  1907   001422  C097  F0A3         	movff	?___fltol,Speed_Motors@Cons_Vit_Mot_D
  1908   001426  C098  F0A4         	movff	?___fltol+1,Speed_Motors@Cons_Vit_Mot_D+1
  1909   00142A  EC9A  F01D         	call	_Speed_Motors	;wreg free
  1910                           
  1911                           ;main.c: 94:         }
  1912   00142E  D5D9               	goto	l8251
  1913   001430                     l8315:
  1914                           
  1915                           ; BSR set to: 0
  1916   001430  05E6               	decf	main@state& (0+255),w,b
  1917   001432  A4D8               	btfss	status,2,c
  1918   001434  D046               	goto	l8333
  1919                           
  1920                           ; BSR set to: 0
  1921                           ;main.c: 96:             Speed_Motors(10, 10);
  1922   001436  0E00               	movlw	0
  1923   001438  6FA2               	movwf	(Speed_Motors@Cons_Vit_Mot_G+1)& (0+255),b
  1924   00143A  0E0A               	movlw	10
  1925   00143C  6FA1               	movwf	Speed_Motors@Cons_Vit_Mot_G& (0+255),b
  1926   00143E  0E00               	movlw	0
  1927   001440  6FA4               	movwf	(Speed_Motors@Cons_Vit_Mot_D+1)& (0+255),b
  1928   001442  0E0A               	movlw	10
  1929   001444  6FA3               	movwf	Speed_Motors@Cons_Vit_Mot_D& (0+255),b
  1930   001446  EC9A  F01D         	call	_Speed_Motors	;wreg free
  1931                           
  1932                           ;main.c: 97:             if(millis() - elasped_rotate > 200) {
  1933   00144A  EC91  F01D         	call	_millis	;wreg free
  1934   00144E  0100               	movlb	0	; () banked
  1935   001450  51CC               	movf	main@elasped_rotate& (0+255),w,b
  1936   001452  5D60               	subwf	?_millis& (0+255),w,b
  1937   001454  6FA5               	movwf	??_main& (0+255),b
  1938   001456  51CD               	movf	(main@elasped_rotate+1)& (0+255),w,b
  1939   001458  5961               	subwfb	(?_millis+1)& (0+255),w,b
  1940   00145A  6FA6               	movwf	(??_main+1)& (0+255),b
  1941   00145C  51CE               	movf	(main@elasped_rotate+2)& (0+255),w,b
  1942   00145E  5962               	subwfb	(?_millis+2)& (0+255),w,b
  1943   001460  6FA7               	movwf	(??_main+2)& (0+255),b
  1944   001462  51CF               	movf	(main@elasped_rotate+3)& (0+255),w,b
  1945   001464  5963               	subwfb	(?_millis+3)& (0+255),w,b
  1946   001466  6FA8               	movwf	(??_main+3)& (0+255),b
  1947   001468  51A8               	movf	(??_main+3)& (0+255),w,b
  1948   00146A  11A7               	iorwf	(??_main+2)& (0+255),w,b
  1949   00146C  11A6               	iorwf	(??_main+1)& (0+255),w,b
  1950   00146E  E104               	bnz	u7900
  1951   001470  0EC9               	movlw	201
  1952   001472  5DA5               	subwf	??_main& (0+255),w,b
  1953   001474  A0D8               	btfss	status,0,c
  1954   001476  D5B5               	goto	l8251
  1955   001478                     u7900:
  1956                           
  1957                           ; BSR set to: 0
  1958                           ;main.c: 98:                 if(error < 10 && error > -10 && !(aValCenter < 300 && aValL
      +                          eft < 300 && aValRight < 300)) {
  1959   001478  BFEA               	btfsc	(main@error+1)& (0+255),7,b
  1960   00147A  D006               	goto	u7910
  1961   00147C  51EA               	movf	(main@error+1)& (0+255),w,b
  1962   00147E  E103               	bnz	u7911
  1963   001480  0E0A               	movlw	10
  1964   001482  5DE9               	subwf	main@error& (0+255),w,b
  1965   001484  B0D8               	btfsc	status,0,c
  1966   001486                     u7911:
  1967   001486  D5AD               	goto	l8251
  1968   001488                     u7910:
  1969                           
  1970                           ; BSR set to: 0
  1971   001488  AFEA               	btfss	(main@error+1)& (0+255),7,b
  1972   00148A  D006               	goto	u7920
  1973   00148C  0EF7               	movlw	247
  1974   00148E  5DE9               	subwf	main@error& (0+255),w,b
  1975   001490  0EFF               	movlw	255
  1976   001492  59EA               	subwfb	(main@error+1)& (0+255),w,b
  1977   001494  A0D8               	btfss	status,0,c
  1978   001496  D5A5               	goto	l8251
  1979   001498                     u7920:
  1980                           
  1981                           ; BSR set to: 0
  1982   001498  0E2C               	movlw	44
  1983   00149A  5DE2               	subwf	main@aValCenter& (0+255),w,b
  1984   00149C  0E01               	movlw	1
  1985   00149E  59E3               	subwfb	(main@aValCenter+1)& (0+255),w,b
  1986   0014A0  B0D8               	btfsc	status,0,c
  1987   0014A2  D00C               	goto	u7950
  1988                           
  1989                           ; BSR set to: 0
  1990   0014A4  0E2C               	movlw	44
  1991   0014A6  5DE7               	subwf	main@aValLeft& (0+255),w,b
  1992   0014A8  0E01               	movlw	1
  1993   0014AA  59E8               	subwfb	(main@aValLeft+1)& (0+255),w,b
  1994   0014AC  B0D8               	btfsc	status,0,c
  1995   0014AE  D006               	goto	u7950
  1996                           
  1997                           ; BSR set to: 0
  1998   0014B0  0E2C               	movlw	44
  1999   0014B2  5DE4               	subwf	main@aValRight& (0+255),w,b
  2000   0014B4  0E01               	movlw	1
  2001   0014B6  59E5               	subwfb	(main@aValRight+1)& (0+255),w,b
  2002   0014B8  A0D8               	btfss	status,0,c
  2003   0014BA  D593               	goto	l8251
  2004   0014BC                     u7950:
  2005                           
  2006                           ; BSR set to: 0
  2007                           ;main.c: 99:                     state = 0;
  2008   0014BC  0E00               	movlw	0
  2009   0014BE  6FE6               	movwf	main@state& (0+255),b
  2010   0014C0  D590               	goto	l8251
  2011   0014C2                     l8333:
  2012                           
  2013                           ; BSR set to: 0
  2014   0014C2  0E02               	movlw	2
  2015   0014C4  19E6               	xorwf	main@state& (0+255),w,b
  2016   0014C6  A4D8               	btfss	status,2,c
  2017   0014C8  D044               	goto	l8351
  2018                           
  2019                           ; BSR set to: 0
  2020                           ;main.c: 104:             Speed_Motors(-10, -10);
  2021   0014CA  0EFF               	movlw	255
  2022   0014CC  6FA2               	movwf	(Speed_Motors@Cons_Vit_Mot_G+1)& (0+255),b
  2023   0014CE  0EF6               	movlw	246
  2024   0014D0  6FA1               	movwf	Speed_Motors@Cons_Vit_Mot_G& (0+255),b
  2025   0014D2  0EFF               	movlw	255
  2026   0014D4  6FA4               	movwf	(Speed_Motors@Cons_Vit_Mot_D+1)& (0+255),b
  2027   0014D6  0EF6               	movlw	246
  2028   0014D8  6FA3               	movwf	Speed_Motors@Cons_Vit_Mot_D& (0+255),b
  2029   0014DA  EC9A  F01D         	call	_Speed_Motors	;wreg free
  2030                           
  2031                           ;main.c: 105:             if(millis() - elasped_rotate > 200) {
  2032   0014DE  EC91  F01D         	call	_millis	;wreg free
  2033   0014E2  0100               	movlb	0	; () banked
  2034   0014E4  51CC               	movf	main@elasped_rotate& (0+255),w,b
  2035   0014E6  5D60               	subwf	?_millis& (0+255),w,b
  2036   0014E8  6FA5               	movwf	??_main& (0+255),b
  2037   0014EA  51CD               	movf	(main@elasped_rotate+1)& (0+255),w,b
  2038   0014EC  5961               	subwfb	(?_millis+1)& (0+255),w,b
  2039   0014EE  6FA6               	movwf	(??_main+1)& (0+255),b
  2040   0014F0  51CE               	movf	(main@elasped_rotate+2)& (0+255),w,b
  2041   0014F2  5962               	subwfb	(?_millis+2)& (0+255),w,b
  2042   0014F4  6FA7               	movwf	(??_main+2)& (0+255),b
  2043   0014F6  51CF               	movf	(main@elasped_rotate+3)& (0+255),w,b
  2044   0014F8  5963               	subwfb	(?_millis+3)& (0+255),w,b
  2045   0014FA  6FA8               	movwf	(??_main+3)& (0+255),b
  2046   0014FC  51A8               	movf	(??_main+3)& (0+255),w,b
  2047   0014FE  11A7               	iorwf	(??_main+2)& (0+255),w,b
  2048   001500  11A6               	iorwf	(??_main+1)& (0+255),w,b
  2049   001502  E104               	bnz	u7970
  2050   001504  0EC9               	movlw	201
  2051   001506  5DA5               	subwf	??_main& (0+255),w,b
  2052   001508  A0D8               	btfss	status,0,c
  2053   00150A  D56B               	goto	l8251
  2054   00150C                     u7970:
  2055                           
  2056                           ; BSR set to: 0
  2057                           ;main.c: 106:                 if(error < 10 && error > -10 && !(aValCenter < 300 && aVal
      +                          Left < 300 && aValRight < 300)) {
  2058   00150C  BFEA               	btfsc	(main@error+1)& (0+255),7,b
  2059   00150E  D006               	goto	u7980
  2060   001510  51EA               	movf	(main@error+1)& (0+255),w,b
  2061   001512  E103               	bnz	u7981
  2062   001514  0E0A               	movlw	10
  2063   001516  5DE9               	subwf	main@error& (0+255),w,b
  2064   001518  B0D8               	btfsc	status,0,c
  2065   00151A                     u7981:
  2066   00151A  D563               	goto	l8251
  2067   00151C                     u7980:
  2068                           
  2069                           ; BSR set to: 0
  2070   00151C  AFEA               	btfss	(main@error+1)& (0+255),7,b
  2071   00151E  D006               	goto	u7990
  2072   001520  0EF7               	movlw	247
  2073   001522  5DE9               	subwf	main@error& (0+255),w,b
  2074   001524  0EFF               	movlw	255
  2075   001526  59EA               	subwfb	(main@error+1)& (0+255),w,b
  2076   001528  A0D8               	btfss	status,0,c
  2077   00152A  D55B               	goto	l8251
  2078   00152C                     u7990:
  2079                           
  2080                           ; BSR set to: 0
  2081   00152C  0E2C               	movlw	44
  2082   00152E  5DE2               	subwf	main@aValCenter& (0+255),w,b
  2083   001530  0E01               	movlw	1
  2084   001532  59E3               	subwfb	(main@aValCenter+1)& (0+255),w,b
  2085   001534  B0D8               	btfsc	status,0,c
  2086   001536  D7C2               	goto	u7950
  2087                           
  2088                           ; BSR set to: 0
  2089   001538  0E2C               	movlw	44
  2090   00153A  5DE7               	subwf	main@aValLeft& (0+255),w,b
  2091   00153C  0E01               	movlw	1
  2092   00153E  59E8               	subwfb	(main@aValLeft+1)& (0+255),w,b
  2093   001540  B0D8               	btfsc	status,0,c
  2094   001542  D7BC               	goto	u7950
  2095                           
  2096                           ; BSR set to: 0
  2097   001544  0E2C               	movlw	44
  2098   001546  5DE4               	subwf	main@aValRight& (0+255),w,b
  2099   001548  0E01               	movlw	1
  2100   00154A  59E5               	subwfb	(main@aValRight+1)& (0+255),w,b
  2101   00154C  B0D8               	btfsc	status,0,c
  2102   00154E  D7B6               	goto	u7950
  2103   001550  D548               	goto	l8251
  2104   001552                     l8351:
  2105                           
  2106                           ; BSR set to: 0
  2107   001552  0E03               	movlw	3
  2108   001554  19E6               	xorwf	main@state& (0+255),w,b
  2109   001556  A4D8               	btfss	status,2,c
  2110   001558  D024               	goto	l8359
  2111                           
  2112                           ; BSR set to: 0
  2113                           ;main.c: 112:             Motors(0);
  2114   00155A  0E00               	movlw	0
  2115   00155C  EC73  F01D         	call	_Motors
  2116                           
  2117                           ;main.c: 113:             Buzzer(1);
  2118   001560  0E01               	movlw	1
  2119   001562  EC7D  F01D         	call	_Buzzer
  2120                           
  2121                           ;main.c: 114:             _delay((unsigned long)((250)*(64000000/4000.0)));
  2122   001566  0E15               	movlw	21
  2123   001568  0100               	movlb	0	; () banked
  2124   00156A  6FA6               	movwf	(??_main+1)& (0+255),b
  2125   00156C  0E4B               	movlw	75
  2126   00156E  6FA5               	movwf	??_main& (0+255),b
  2127   001570  0EBE               	movlw	190
  2128   001572                     u8367:
  2129   001572  2EE8               	decfsz	wreg,f,c
  2130   001574  D7FE               	bra	u8367
  2131   001576  2FA5               	decfsz	??_main& (0+255),f,b
  2132   001578  D7FC               	bra	u8367
  2133   00157A  2FA6               	decfsz	(??_main+1)& (0+255),f,b
  2134   00157C  D7FA               	bra	u8367
  2135   00157E  F000               	nop	
  2136                           
  2137                           ;main.c: 115:             Buzzer(0);
  2138   001580  0E00               	movlw	0
  2139   001582  EC7D  F01D         	call	_Buzzer
  2140                           
  2141                           ;main.c: 116:             _delay((unsigned long)((250)*(64000000/4000.0)));
  2142   001586  0E15               	movlw	21
  2143   001588  0100               	movlb	0	; () banked
  2144   00158A  6FA6               	movwf	(??_main+1)& (0+255),b
  2145   00158C  0E4B               	movlw	75
  2146   00158E  6FA5               	movwf	??_main& (0+255),b
  2147   001590  0EBE               	movlw	190
  2148   001592                     u8377:
  2149   001592  2EE8               	decfsz	wreg,f,c
  2150   001594  D7FE               	bra	u8377
  2151   001596  2FA5               	decfsz	??_main& (0+255),f,b
  2152   001598  D7FC               	bra	u8377
  2153   00159A  2FA6               	decfsz	(??_main+1)& (0+255),f,b
  2154   00159C  D7FA               	bra	u8377
  2155   00159E  F000               	nop	
  2156                           
  2157                           ;main.c: 117:         }
  2158   0015A0  D520               	goto	l8251
  2159   0015A2                     l8359:
  2160                           
  2161                           ; BSR set to: 0
  2162   0015A2  0E04               	movlw	4
  2163   0015A4  19E6               	xorwf	main@state& (0+255),w,b
  2164   0015A6  A4D8               	btfss	status,2,c
  2165   0015A8  D51C               	goto	l8251
  2166                           
  2167                           ; BSR set to: 0
  2168                           ;main.c: 119:             Speed_Motors((coefP * error + coefD * (error - lastError) + co
      +                          efI * integralError) + 20, (coefP * error + coefD * (error - lastError) + + coefI * inte
      +                          gralError) - 10 );
  2169   0015AA  C0D6  F072         	movff	main@coefD,___flmul@a
  2170   0015AE  C0D7  F073         	movff	main@coefD+1,___flmul@a+1
  2171   0015B2  C0D8  F074         	movff	main@coefD+2,___flmul@a+2
  2172   0015B6  C0D9  F075         	movff	main@coefD+3,___flmul@a+3
  2173   0015BA  51DE               	movf	main@lastError& (0+255),w,b
  2174   0015BC  5DE9               	subwf	main@error& (0+255),w,b
  2175   0015BE  6FA5               	movwf	??_main& (0+255),b
  2176   0015C0  51DF               	movf	(main@lastError+1)& (0+255),w,b
  2177   0015C2  59EA               	subwfb	(main@error+1)& (0+255),w,b
  2178   0015C4  6FA6               	movwf	(??_main+1)& (0+255),b
  2179   0015C6  C0A5  F060         	movff	??_main,___xxtofl@val
  2180   0015CA  C0A6  F061         	movff	??_main+1,___xxtofl@val+1
  2181   0015CE  0E00               	movlw	0
  2182   0015D0  BF61               	btfsc	(___xxtofl@val+1)& (0+255),7,b
  2183   0015D2  0EFF               	movlw	-1
  2184   0015D4  6F62               	movwf	(___xxtofl@val+2)& (0+255),b
  2185   0015D6  6F63               	movwf	(___xxtofl@val+3)& (0+255),b
  2186   0015D8  0E01               	movlw	1
  2187   0015DA  EC37  F015         	call	___xxtofl
  2188   0015DE  C060  F06E         	movff	?___xxtofl,___flmul@b
  2189   0015E2  C061  F06F         	movff	?___xxtofl+1,___flmul@b+1
  2190   0015E6  C062  F070         	movff	?___xxtofl+2,___flmul@b+2
  2191   0015EA  C063  F071         	movff	?___xxtofl+3,___flmul@b+3
  2192   0015EE  EC5D  F00C         	call	___flmul	;wreg free
  2193   0015F2  C06E  F08B         	movff	?___flmul,___fladd@a
  2194   0015F6  C06F  F08C         	movff	?___flmul+1,___fladd@a+1
  2195   0015FA  C070  F08D         	movff	?___flmul+2,___fladd@a+2
  2196   0015FE  C071  F08E         	movff	?___flmul+3,___fladd@a+3
  2197   001602  C0D2  F072         	movff	main@coefP,___flmul@a
  2198   001606  C0D3  F073         	movff	main@coefP+1,___flmul@a+1
  2199   00160A  C0D4  F074         	movff	main@coefP+2,___flmul@a+2
  2200   00160E  C0D5  F075         	movff	main@coefP+3,___flmul@a+3
  2201   001612  C0E9  F060         	movff	main@error,___xxtofl@val
  2202   001616  C0EA  F061         	movff	main@error+1,___xxtofl@val+1
  2203   00161A  0100               	movlb	0	; () banked
  2204   00161C  0E00               	movlw	0
  2205   00161E  BF61               	btfsc	(___xxtofl@val+1)& (0+255),7,b
  2206   001620  0EFF               	movlw	-1
  2207   001622  6F62               	movwf	(___xxtofl@val+2)& (0+255),b
  2208   001624  6F63               	movwf	(___xxtofl@val+3)& (0+255),b
  2209   001626  0E01               	movlw	1
  2210   001628  EC37  F015         	call	___xxtofl
  2211   00162C  C060  F06E         	movff	?___xxtofl,___flmul@b
  2212   001630  C061  F06F         	movff	?___xxtofl+1,___flmul@b+1
  2213   001634  C062  F070         	movff	?___xxtofl+2,___flmul@b+2
  2214   001638  C063  F071         	movff	?___xxtofl+3,___flmul@b+3
  2215   00163C  EC5D  F00C         	call	___flmul	;wreg free
  2216   001640  C06E  F087         	movff	?___flmul,___fladd@b
  2217   001644  C06F  F088         	movff	?___flmul+1,___fladd@b+1
  2218   001648  C070  F089         	movff	?___flmul+2,___fladd@b+2
  2219   00164C  C071  F08A         	movff	?___flmul+3,___fladd@b+3
  2220   001650  ECB0  F00F         	call	___fladd	;wreg free
  2221   001654  C087  F0BC         	movff	?___fladd,_main$5546
  2222   001658  C088  F0BD         	movff	?___fladd+1,_main$5546+1
  2223   00165C  C089  F0BE         	movff	?___fladd+2,_main$5546+2
  2224   001660  C08A  F0BF         	movff	?___fladd+3,_main$5546+3
  2225                           
  2226                           ;main.c: 119:             Speed_Motors((coefP * error + coefD * (error - lastError) + co
      +                          efI * integralError) + 20, (coefP * error + coefD * (error - lastError) + + coefI * inte
      +                          gralError) - 10 );
  2227   001664  C0DA  F072         	movff	main@coefI,___flmul@a
  2228   001668  C0DB  F073         	movff	main@coefI+1,___flmul@a+1
  2229   00166C  C0DC  F074         	movff	main@coefI+2,___flmul@a+2
  2230   001670  C0DD  F075         	movff	main@coefI+3,___flmul@a+3
  2231   001674  C0E0  F060         	movff	main@integralError,___xxtofl@val
  2232   001678  C0E1  F061         	movff	main@integralError+1,___xxtofl@val+1
  2233   00167C  0100               	movlb	0	; () banked
  2234   00167E  0E00               	movlw	0
  2235   001680  BF61               	btfsc	(___xxtofl@val+1)& (0+255),7,b
  2236   001682  0EFF               	movlw	-1
  2237   001684  6F62               	movwf	(___xxtofl@val+2)& (0+255),b
  2238   001686  6F63               	movwf	(___xxtofl@val+3)& (0+255),b
  2239   001688  0E01               	movlw	1
  2240   00168A  EC37  F015         	call	___xxtofl
  2241   00168E  C060  F06E         	movff	?___xxtofl,___flmul@b
  2242   001692  C061  F06F         	movff	?___xxtofl+1,___flmul@b+1
  2243   001696  C062  F070         	movff	?___xxtofl+2,___flmul@b+2
  2244   00169A  C063  F071         	movff	?___xxtofl+3,___flmul@b+3
  2245   00169E  EC5D  F00C         	call	___flmul	;wreg free
  2246   0016A2  C06E  F08B         	movff	?___flmul,___fladd@a
  2247   0016A6  C06F  F08C         	movff	?___flmul+1,___fladd@a+1
  2248   0016AA  C070  F08D         	movff	?___flmul+2,___fladd@a+2
  2249   0016AE  C071  F08E         	movff	?___flmul+3,___fladd@a+3
  2250   0016B2  C0BC  F087         	movff	_main$5546,___fladd@b
  2251   0016B6  C0BD  F088         	movff	_main$5546+1,___fladd@b+1
  2252   0016BA  C0BE  F089         	movff	_main$5546+2,___fladd@b+2
  2253   0016BE  C0BF  F08A         	movff	_main$5546+3,___fladd@b+3
  2254   0016C2  ECB0  F00F         	call	___fladd	;wreg free
  2255   0016C6  C087  F0C0         	movff	?___fladd,_main$5547
  2256   0016CA  C088  F0C1         	movff	?___fladd+1,_main$5547+1
  2257   0016CE  C089  F0C2         	movff	?___fladd+2,_main$5547+2
  2258   0016D2  C08A  F0C3         	movff	?___fladd+3,_main$5547+3
  2259                           
  2260                           ;main.c: 119:             Speed_Motors((coefP * error + coefD * (error - lastError) + co
      +                          efI * integralError) + 20, (coefP * error + coefD * (error - lastError) + + coefI * inte
      +                          gralError) - 10 );
  2261   0016D6  C0D6  F072         	movff	main@coefD,___flmul@a
  2262   0016DA  C0D7  F073         	movff	main@coefD+1,___flmul@a+1
  2263   0016DE  C0D8  F074         	movff	main@coefD+2,___flmul@a+2
  2264   0016E2  C0D9  F075         	movff	main@coefD+3,___flmul@a+3
  2265   0016E6  0100               	movlb	0	; () banked
  2266   0016E8  51DE               	movf	main@lastError& (0+255),w,b
  2267   0016EA  5DE9               	subwf	main@error& (0+255),w,b
  2268   0016EC  6FA5               	movwf	??_main& (0+255),b
  2269   0016EE  51DF               	movf	(main@lastError+1)& (0+255),w,b
  2270   0016F0  59EA               	subwfb	(main@error+1)& (0+255),w,b
  2271   0016F2  6FA6               	movwf	(??_main+1)& (0+255),b
  2272   0016F4  C0A5  F060         	movff	??_main,___xxtofl@val
  2273   0016F8  C0A6  F061         	movff	??_main+1,___xxtofl@val+1
  2274   0016FC  0E00               	movlw	0
  2275   0016FE  BF61               	btfsc	(___xxtofl@val+1)& (0+255),7,b
  2276   001700  0EFF               	movlw	-1
  2277   001702  6F62               	movwf	(___xxtofl@val+2)& (0+255),b
  2278   001704  6F63               	movwf	(___xxtofl@val+3)& (0+255),b
  2279   001706  0E01               	movlw	1
  2280   001708  EC37  F015         	call	___xxtofl
  2281   00170C  C060  F06E         	movff	?___xxtofl,___flmul@b
  2282   001710  C061  F06F         	movff	?___xxtofl+1,___flmul@b+1
  2283   001714  C062  F070         	movff	?___xxtofl+2,___flmul@b+2
  2284   001718  C063  F071         	movff	?___xxtofl+3,___flmul@b+3
  2285   00171C  EC5D  F00C         	call	___flmul	;wreg free
  2286   001720  C06E  F08B         	movff	?___flmul,___fladd@a
  2287   001724  C06F  F08C         	movff	?___flmul+1,___fladd@a+1
  2288   001728  C070  F08D         	movff	?___flmul+2,___fladd@a+2
  2289   00172C  C071  F08E         	movff	?___flmul+3,___fladd@a+3
  2290   001730  C0D2  F072         	movff	main@coefP,___flmul@a
  2291   001734  C0D3  F073         	movff	main@coefP+1,___flmul@a+1
  2292   001738  C0D4  F074         	movff	main@coefP+2,___flmul@a+2
  2293   00173C  C0D5  F075         	movff	main@coefP+3,___flmul@a+3
  2294   001740  C0E9  F060         	movff	main@error,___xxtofl@val
  2295   001744  C0EA  F061         	movff	main@error+1,___xxtofl@val+1
  2296   001748  0100               	movlb	0	; () banked
  2297   00174A  0E00               	movlw	0
  2298   00174C  BF61               	btfsc	(___xxtofl@val+1)& (0+255),7,b
  2299   00174E  0EFF               	movlw	-1
  2300   001750  6F62               	movwf	(___xxtofl@val+2)& (0+255),b
  2301   001752  6F63               	movwf	(___xxtofl@val+3)& (0+255),b
  2302   001754  0E01               	movlw	1
  2303   001756  EC37  F015         	call	___xxtofl
  2304   00175A  C060  F06E         	movff	?___xxtofl,___flmul@b
  2305   00175E  C061  F06F         	movff	?___xxtofl+1,___flmul@b+1
  2306   001762  C062  F070         	movff	?___xxtofl+2,___flmul@b+2
  2307   001766  C063  F071         	movff	?___xxtofl+3,___flmul@b+3
  2308   00176A  EC5D  F00C         	call	___flmul	;wreg free
  2309   00176E  C06E  F087         	movff	?___flmul,___fladd@b
  2310   001772  C06F  F088         	movff	?___flmul+1,___fladd@b+1
  2311   001776  C070  F089         	movff	?___flmul+2,___fladd@b+2
  2312   00177A  C071  F08A         	movff	?___flmul+3,___fladd@b+3
  2313   00177E  ECB0  F00F         	call	___fladd	;wreg free
  2314   001782  C087  F0C4         	movff	?___fladd,_main$5548
  2315   001786  C088  F0C5         	movff	?___fladd+1,_main$5548+1
  2316   00178A  C089  F0C6         	movff	?___fladd+2,_main$5548+2
  2317   00178E  C08A  F0C7         	movff	?___fladd+3,_main$5548+3
  2318                           
  2319                           ;main.c: 119:             Speed_Motors((coefP * error + coefD * (error - lastError) + co
      +                          efI * integralError) + 20, (coefP * error + coefD * (error - lastError) + + coefI * inte
      +                          gralError) - 10 );
  2320   001792  C0DA  F072         	movff	main@coefI,___flmul@a
  2321   001796  C0DB  F073         	movff	main@coefI+1,___flmul@a+1
  2322   00179A  C0DC  F074         	movff	main@coefI+2,___flmul@a+2
  2323   00179E  C0DD  F075         	movff	main@coefI+3,___flmul@a+3
  2324   0017A2  C0E0  F060         	movff	main@integralError,___xxtofl@val
  2325   0017A6  C0E1  F061         	movff	main@integralError+1,___xxtofl@val+1
  2326   0017AA  0100               	movlb	0	; () banked
  2327   0017AC  0E00               	movlw	0
  2328   0017AE  BF61               	btfsc	(___xxtofl@val+1)& (0+255),7,b
  2329   0017B0  0EFF               	movlw	-1
  2330   0017B2  6F62               	movwf	(___xxtofl@val+2)& (0+255),b
  2331   0017B4  6F63               	movwf	(___xxtofl@val+3)& (0+255),b
  2332   0017B6  0E01               	movlw	1
  2333   0017B8  EC37  F015         	call	___xxtofl
  2334   0017BC  C060  F06E         	movff	?___xxtofl,___flmul@b
  2335   0017C0  C061  F06F         	movff	?___xxtofl+1,___flmul@b+1
  2336   0017C4  C062  F070         	movff	?___xxtofl+2,___flmul@b+2
  2337   0017C8  C063  F071         	movff	?___xxtofl+3,___flmul@b+3
  2338   0017CC  EC5D  F00C         	call	___flmul	;wreg free
  2339   0017D0  C06E  F08B         	movff	?___flmul,___fladd@a
  2340   0017D4  C06F  F08C         	movff	?___flmul+1,___fladd@a+1
  2341   0017D8  C070  F08D         	movff	?___flmul+2,___fladd@a+2
  2342   0017DC  C071  F08E         	movff	?___flmul+3,___fladd@a+3
  2343   0017E0  C0C4  F087         	movff	_main$5548,___fladd@b
  2344   0017E4  C0C5  F088         	movff	_main$5548+1,___fladd@b+1
  2345   0017E8  C0C6  F089         	movff	_main$5548+2,___fladd@b+2
  2346   0017EC  C0C7  F08A         	movff	_main$5548+3,___fladd@b+3
  2347   0017F0  ECB0  F00F         	call	___fladd	;wreg free
  2348   0017F4  C087  F0C8         	movff	?___fladd,_main$5549
  2349   0017F8  C088  F0C9         	movff	?___fladd+1,_main$5549+1
  2350   0017FC  C089  F0CA         	movff	?___fladd+2,_main$5549+2
  2351   001800  C08A  F0CB         	movff	?___fladd+3,_main$5549+3
  2352                           
  2353                           ;main.c: 119:             Speed_Motors((coefP * error + coefD * (error - lastError) + co
      +                          efI * integralError) + 20, (coefP * error + coefD * (error - lastError) + + coefI * inte
      +                          gralError) - 10 );
  2354   001804  0E00               	movlw	0
  2355   001806  0100               	movlb	0	; () banked
  2356   001808  6F8B               	movwf	___fladd@a& (0+255),b
  2357   00180A  0E00               	movlw	0
  2358   00180C  6F8C               	movwf	(___fladd@a+1)& (0+255),b
  2359   00180E  0EA0               	movlw	160
  2360   001810  6F8D               	movwf	(___fladd@a+2)& (0+255),b
  2361   001812  0E41               	movlw	65
  2362   001814  6F8E               	movwf	(___fladd@a+3)& (0+255),b
  2363   001816  C0C0  F087         	movff	_main$5547,___fladd@b
  2364   00181A  C0C1  F088         	movff	_main$5547+1,___fladd@b+1
  2365   00181E  C0C2  F089         	movff	_main$5547+2,___fladd@b+2
  2366   001822  C0C3  F08A         	movff	_main$5547+3,___fladd@b+3
  2367   001826  ECB0  F00F         	call	___fladd	;wreg free
  2368   00182A  C087  F097         	movff	?___fladd,___fltol@f1
  2369   00182E  C088  F098         	movff	?___fladd+1,___fltol@f1+1
  2370   001832  C089  F099         	movff	?___fladd+2,___fltol@f1+2
  2371   001836  C08A  F09A         	movff	?___fladd+3,___fltol@f1+3
  2372   00183A  ECDC  F017         	call	___fltol	;wreg free
  2373   00183E  C097  F0A1         	movff	?___fltol,Speed_Motors@Cons_Vit_Mot_G
  2374   001842  C098  F0A2         	movff	?___fltol+1,Speed_Motors@Cons_Vit_Mot_G+1
  2375   001846  0E00               	movlw	0
  2376   001848  0100               	movlb	0	; () banked
  2377   00184A  6F8B               	movwf	___fladd@a& (0+255),b
  2378   00184C  0E00               	movlw	0
  2379   00184E  6F8C               	movwf	(___fladd@a+1)& (0+255),b
  2380   001850  0E20               	movlw	32
  2381   001852  6F8D               	movwf	(___fladd@a+2)& (0+255),b
  2382   001854  0EC1               	movlw	193
  2383   001856  6F8E               	movwf	(___fladd@a+3)& (0+255),b
  2384   001858  C0C8  F087         	movff	_main$5549,___fladd@b
  2385   00185C  C0C9  F088         	movff	_main$5549+1,___fladd@b+1
  2386   001860  C0CA  F089         	movff	_main$5549+2,___fladd@b+2
  2387   001864  C0CB  F08A         	movff	_main$5549+3,___fladd@b+3
  2388   001868  ECB0  F00F         	call	___fladd	;wreg free
  2389   00186C  C087  F097         	movff	?___fladd,___fltol@f1
  2390   001870  C088  F098         	movff	?___fladd+1,___fltol@f1+1
  2391   001874  C089  F099         	movff	?___fladd+2,___fltol@f1+2
  2392   001878  C08A  F09A         	movff	?___fladd+3,___fltol@f1+3
  2393   00187C  ECDC  F017         	call	___fltol	;wreg free
  2394   001880  C097  F0A3         	movff	?___fltol,Speed_Motors@Cons_Vit_Mot_D
  2395   001884  C098  F0A4         	movff	?___fltol+1,Speed_Motors@Cons_Vit_Mot_D+1
  2396   001888  EC9A  F01D         	call	_Speed_Motors	;wreg free
  2397                           
  2398                           ;main.c: 120:             if(millis() - elasped_rotate > 200) {
  2399   00188C  EC91  F01D         	call	_millis	;wreg free
  2400   001890  0100               	movlb	0	; () banked
  2401   001892  51CC               	movf	main@elasped_rotate& (0+255),w,b
  2402   001894  5D60               	subwf	?_millis& (0+255),w,b
  2403   001896  6FA5               	movwf	??_main& (0+255),b
  2404   001898  51CD               	movf	(main@elasped_rotate+1)& (0+255),w,b
  2405   00189A  5961               	subwfb	(?_millis+1)& (0+255),w,b
  2406   00189C  6FA6               	movwf	(??_main+1)& (0+255),b
  2407   00189E  51CE               	movf	(main@elasped_rotate+2)& (0+255),w,b
  2408   0018A0  5962               	subwfb	(?_millis+2)& (0+255),w,b
  2409   0018A2  6FA7               	movwf	(??_main+2)& (0+255),b
  2410   0018A4  51CF               	movf	(main@elasped_rotate+3)& (0+255),w,b
  2411   0018A6  5963               	subwfb	(?_millis+3)& (0+255),w,b
  2412   0018A8  6FA8               	movwf	(??_main+3)& (0+255),b
  2413   0018AA  51A8               	movf	(??_main+3)& (0+255),w,b
  2414   0018AC  11A7               	iorwf	(??_main+2)& (0+255),w,b
  2415   0018AE  11A6               	iorwf	(??_main+1)& (0+255),w,b
  2416   0018B0  E103               	bnz	u8050
  2417   0018B2  0EC9               	movlw	201
  2418   0018B4  5DA5               	subwf	??_main& (0+255),w,b
  2419   0018B6  D64A               	goto	L2
  2420   0018B8                     u8050:
  2421   0018B8  D601               	goto	u7950
  2422   0018BA                     __end_of_main:
  2423                           	callstack 0
  2424                           
  2425 ;; *************** function _retroLCD *****************
  2426 ;; Defined at:
  2427 ;;		line 176 in file "drivers/LCD.c"
  2428 ;; Parameters:    Size  Location     Type
  2429 ;;  on_off          1    wreg     unsigned char 
  2430 ;; Auto vars:     Size  Location     Type
  2431 ;;  on_off          1    0[BANK0 ] unsigned char 
  2432 ;; Return value:  Size  Location     Type
  2433 ;;                  1    wreg      void 
  2434 ;; Registers used:
  2435 ;;		wreg, status,2
  2436 ;; Tracked objects:
  2437 ;;		On entry : 0/0
  2438 ;;		On exit  : 0/0
  2439 ;;		Unchanged: 0/0
  2440 ;; Data sizes:     COMRAM   BANK0   BANK1   BANK2   BANK3   BANK4   BANK5   BANK6   BANK7   BANK8   BANK9  BANK10  BANK1
      +1  BANK12  BANK13  BANK14
  2441 ;;      Params:         0       0       0       0       0       0       0       0       0       0       0       0       
      +0       0       0       0
  2442 ;;      Locals:         0       1       0       0       0       0       0       0       0       0       0       0       
      +0       0       0       0
  2443 ;;      Temps:          0       0       0       0       0       0       0       0       0       0       0       0       
      +0       0       0       0
  2444 ;;      Totals:         0       1       0       0       0       0       0       0       0       0       0       0       
      +0       0       0       0
  2445 ;;Total ram usage:        1 bytes
  2446 ;; Hardware stack levels used: 1
  2447 ;; Hardware stack levels required when called: 5
  2448 ;; This function calls:
  2449 ;;		Nothing
  2450 ;; This function is called by:
  2451 ;;		_main
  2452 ;; This function uses a non-reentrant model
  2453 ;;
  2454                           
  2455                           	psect	text1
  2456   003AD2                     __ptext1:
  2457                           	callstack 0
  2458   003AD2                     _retroLCD:
  2459                           	callstack 25
  2460                           
  2461                           ; BSR set to: 0
  2462                           ;incstack = 0
  2463                           ;retroLCD@on_off stored from wreg
  2464   003AD2  0100               	movlb	0	; () banked
  2465   003AD4  6F60               	movwf	retroLCD@on_off& (0+255),b
  2466                           
  2467                           ;drivers/LCD.c: 176: void retroLCD(uint8_t on_off);drivers/LCD.c: 177: {;drivers/LCD.c: 
      +                          178:     if(on_off)
  2468   003AD6  0100               	movlb	0	; () banked
  2469   003AD8  5160               	movf	retroLCD@on_off& (0+255),w,b
  2470   003ADA  B4D8               	btfsc	status,2,c
  2471   003ADC  D002               	goto	l399
  2472                           
  2473                           ; BSR set to: 0
  2474                           ;drivers/LCD.c: 179:             {;drivers/LCD.c: 180:                 LATEbits.LATE2 = 
      +                          1;
  2475   003ADE  8487               	bsf	135,2,c	;volatile
  2476                           
  2477                           ;drivers/LCD.c: 181:             }
  2478   003AE0  0012               	return	
  2479   003AE2                     l399:
  2480                           
  2481                           ; BSR set to: 0
  2482                           ;drivers/LCD.c: 183:             {;drivers/LCD.c: 184:                 LATEbits.LATE2 = 
      +                          0;
  2483   003AE2  9487               	bcf	135,2,c	;volatile
  2484                           
  2485                           ; BSR set to: 0
  2486   003AE4  0012               	return		;funcret
  2487   003AE6                     __end_of_retroLCD:
  2488                           	callstack 0
  2489                           
  2490 ;; *************** function _millis *****************
  2491 ;; Defined at:
  2492 ;;		line 9 in file "commandes.c"
  2493 ;; Parameters:    Size  Location     Type
  2494 ;;		None
  2495 ;; Auto vars:     Size  Location     Type
  2496 ;;		None
  2497 ;; Return value:  Size  Location     Type
  2498 ;;                  4    0[BANK0 ] unsigned long 
  2499 ;; Registers used:
  2500 ;;		None
  2501 ;; Tracked objects:
  2502 ;;		On entry : 0/0
  2503 ;;		On exit  : 0/0
  2504 ;;		Unchanged: 0/0
  2505 ;; Data sizes:     COMRAM   BANK0   BANK1   BANK2   BANK3   BANK4   BANK5   BANK6   BANK7   BANK8   BANK9  BANK10  BANK1
      +1  BANK12  BANK13  BANK14
  2506 ;;      Params:         0       4       0       0       0       0       0       0       0       0       0       0       
      +0       0       0       0
  2507 ;;      Locals:         0       0       0       0       0       0       0       0       0       0       0       0       
      +0       0       0       0
  2508 ;;      Temps:          0       0       0       0       0       0       0       0       0       0       0       0       
      +0       0       0       0
  2509 ;;      Totals:         0       4       0       0       0       0       0       0       0       0       0       0       
      +0       0       0       0
  2510 ;;Total ram usage:        4 bytes
  2511 ;; Hardware stack levels used: 1
  2512 ;; Hardware stack levels required when called: 5
  2513 ;; This function calls:
  2514 ;;		Nothing
  2515 ;; This function is called by:
  2516 ;;		_main
  2517 ;; This function uses a non-reentrant model
  2518 ;;
  2519                           
  2520                           	psect	text2
  2521   003B22                     __ptext2:
  2522                           	callstack 0
  2523   003B22                     _millis:
  2524                           	callstack 25
  2525                           
  2526                           ;commandes.c: 11:     return (millisec_32bits);
  2527                           
  2528                           ; BSR set to: 0
  2529                           ;incstack = 0
  2530   003B22  C128  F060         	movff	_millisec_32bits,?_millis
  2531   003B26  C129  F061         	movff	_millisec_32bits+1,?_millis+1
  2532   003B2A  C12A  F062         	movff	_millisec_32bits+2,?_millis+2
  2533   003B2E  C12B  F063         	movff	_millisec_32bits+3,?_millis+3
  2534   003B32  0012               	return		;funcret
  2535   003B34                     __end_of_millis:
  2536                           	callstack 0
  2537                           
  2538 ;; *************** function _initLCD *****************
  2539 ;; Defined at:
  2540 ;;		line 44 in file "drivers/LCD.c"
  2541 ;; Parameters:    Size  Location     Type
  2542 ;;		None
  2543 ;; Auto vars:     Size  Location     Type
  2544 ;;		None
  2545 ;; Return value:  Size  Location     Type
  2546 ;;                  1    wreg      void 
  2547 ;; Registers used:
  2548 ;;		wreg, status,2, status,0, cstack
  2549 ;; Tracked objects:
  2550 ;;		On entry : 0/0
  2551 ;;		On exit  : 0/0
  2552 ;;		Unchanged: 0/0
  2553 ;; Data sizes:     COMRAM   BANK0   BANK1   BANK2   BANK3   BANK4   BANK5   BANK6   BANK7   BANK8   BANK9  BANK10  BANK1
      +1  BANK12  BANK13  BANK14
  2554 ;;      Params:         0       0       0       0       0       0       0       0       0       0       0       0       
      +0       0       0       0
  2555 ;;      Locals:         0       0       0       0       0       0       0       0       0       0       0       0       
      +0       0       0       0
  2556 ;;      Temps:          0       2       0       0       0       0       0       0       0       0       0       0       
      +0       0       0       0
  2557 ;;      Totals:         0       2       0       0       0       0       0       0       0       0       0       0       
      +0       0       0       0
  2558 ;;Total ram usage:        2 bytes
  2559 ;; Hardware stack levels used: 1
  2560 ;; Hardware stack levels required when called: 8
  2561 ;; This function calls:
  2562 ;;		_clearLCD
  2563 ;;		_lcdNibble
  2564 ;;		_writeLCD
  2565 ;; This function is called by:
  2566 ;;		_main
  2567 ;; This function uses a non-reentrant model
  2568 ;;
  2569                           
  2570                           	psect	text3
  2571   002DF6                     __ptext3:
  2572                           	callstack 0
  2573   002DF6                     _initLCD:
  2574                           	callstack 22
  2575                           
  2576                           ;drivers/LCD.c: 45:     LATAbits.LATA0 = 0;
  2577                           
  2578                           ;incstack = 0
  2579   002DF6  9083               	bcf	131,0,c	;volatile
  2580                           
  2581                           ;drivers/LCD.c: 46:     LATAbits.LATA1 = 0;
  2582   002DF8  9283               	bcf	131,1,c	;volatile
  2583                           
  2584                           ;drivers/LCD.c: 48:     _delay((unsigned long)((40)*(64000000/4000.0)));
  2585   002DFA  0E04               	movlw	4
  2586   002DFC  0100               	movlb	0	; () banked
  2587   002DFE  6F66               	movwf	(??_initLCD+1)& (0+255),b
  2588   002E00  0E40               	movlw	64
  2589   002E02  6F65               	movwf	??_initLCD& (0+255),b
  2590   002E04  0E26               	movlw	38
  2591   002E06                     u8387:
  2592   002E06  2EE8               	decfsz	wreg,f,c
  2593   002E08  D7FE               	bra	u8387
  2594   002E0A  2F65               	decfsz	??_initLCD& (0+255),f,b
  2595   002E0C  D7FC               	bra	u8387
  2596   002E0E  2F66               	decfsz	(??_initLCD+1)& (0+255),f,b
  2597   002E10  D7FA               	bra	u8387
  2598   002E12  F000               	nop	
  2599                           
  2600                           ;drivers/LCD.c: 52:     lcdNibble(0b0011);
  2601   002E14  0E03               	movlw	3
  2602   002E16  EC33  F019         	call	_lcdNibble
  2603                           
  2604                           ;drivers/LCD.c: 53:     _delay((unsigned long)((5)*(64000000/4000.0)));
  2605   002E1A  0E68               	movlw	104
  2606   002E1C  0100               	movlb	0	; () banked
  2607   002E1E  6F65               	movwf	??_initLCD& (0+255),b
  2608   002E20  0EE4               	movlw	228
  2609   002E22                     u8397:
  2610   002E22  2EE8               	decfsz	wreg,f,c
  2611   002E24  D7FE               	bra	u8397
  2612   002E26  2F65               	decfsz	??_initLCD& (0+255),f,b
  2613   002E28  D7FC               	bra	u8397
  2614   002E2A  F000               	nop	
  2615                           
  2616                           ;drivers/LCD.c: 54:     lcdNibble(0b0011);
  2617   002E2C  0E03               	movlw	3
  2618   002E2E  EC33  F019         	call	_lcdNibble
  2619                           
  2620                           ;drivers/LCD.c: 55:     _delay((unsigned long)((5)*(64000000/4000.0)));
  2621   002E32  0E68               	movlw	104
  2622   002E34  0100               	movlb	0	; () banked
  2623   002E36  6F65               	movwf	??_initLCD& (0+255),b
  2624   002E38  0EE4               	movlw	228
  2625   002E3A                     u8407:
  2626   002E3A  2EE8               	decfsz	wreg,f,c
  2627   002E3C  D7FE               	bra	u8407
  2628   002E3E  2F65               	decfsz	??_initLCD& (0+255),f,b
  2629   002E40  D7FC               	bra	u8407
  2630   002E42  F000               	nop	
  2631                           
  2632                           ;drivers/LCD.c: 56:     lcdNibble(0b0011);
  2633   002E44  0E03               	movlw	3
  2634   002E46  EC33  F019         	call	_lcdNibble
  2635                           
  2636                           ;drivers/LCD.c: 57:     _delay((unsigned long)((5)*(64000000/4000.0)));
  2637   002E4A  0E68               	movlw	104
  2638   002E4C  0100               	movlb	0	; () banked
  2639   002E4E  6F65               	movwf	??_initLCD& (0+255),b
  2640   002E50  0EE4               	movlw	228
  2641   002E52                     u8417:
  2642   002E52  2EE8               	decfsz	wreg,f,c
  2643   002E54  D7FE               	bra	u8417
  2644   002E56  2F65               	decfsz	??_initLCD& (0+255),f,b
  2645   002E58  D7FC               	bra	u8417
  2646   002E5A  F000               	nop	
  2647                           
  2648                           ;drivers/LCD.c: 58:     lcdNibble(0b0010);
  2649   002E5C  0E02               	movlw	2
  2650   002E5E  EC33  F019         	call	_lcdNibble
  2651                           
  2652                           ;drivers/LCD.c: 59:     _delay((unsigned long)((5)*(64000000/4000.0)));
  2653   002E62  0E68               	movlw	104
  2654   002E64  0100               	movlb	0	; () banked
  2655   002E66  6F65               	movwf	??_initLCD& (0+255),b
  2656   002E68  0EE4               	movlw	228
  2657   002E6A                     u8427:
  2658   002E6A  2EE8               	decfsz	wreg,f,c
  2659   002E6C  D7FE               	bra	u8427
  2660   002E6E  2F65               	decfsz	??_initLCD& (0+255),f,b
  2661   002E70  D7FC               	bra	u8427
  2662   002E72  F000               	nop	
  2663                           
  2664                           ;drivers/LCD.c: 71:     writeLCD(((0b0010 << 4) | (1 << 3)), COMMAND);
  2665   002E74  0E00               	movlw	0
  2666   002E76  0100               	movlb	0	; () banked
  2667   002E78  6F62               	movwf	writeLCD@type& (0+255),b
  2668   002E7A  0E28               	movlw	40
  2669   002E7C  EC36  F01B         	call	_writeLCD
  2670                           
  2671                           ;drivers/LCD.c: 72:     _delay((unsigned long)((5)*(64000000/4000.0)));
  2672   002E80  0E68               	movlw	104
  2673   002E82  0100               	movlb	0	; () banked
  2674   002E84  6F65               	movwf	??_initLCD& (0+255),b
  2675   002E86  0EE4               	movlw	228
  2676   002E88                     u8437:
  2677   002E88  2EE8               	decfsz	wreg,f,c
  2678   002E8A  D7FE               	bra	u8437
  2679   002E8C  2F65               	decfsz	??_initLCD& (0+255),f,b
  2680   002E8E  D7FC               	bra	u8437
  2681   002E90  F000               	nop	
  2682                           
  2683                           ;drivers/LCD.c: 73:     writeLCD(((0b1100) | (0 << 1) | (0 << 0)), COMMAND);
  2684   002E92  0E00               	movlw	0
  2685   002E94  0100               	movlb	0	; () banked
  2686   002E96  6F62               	movwf	writeLCD@type& (0+255),b
  2687   002E98  0E0C               	movlw	12
  2688   002E9A  EC36  F01B         	call	_writeLCD
  2689                           
  2690                           ;drivers/LCD.c: 74:     _delay((unsigned long)((8)*(64000000/4000.0)));
  2691   002E9E  0EA7               	movlw	167
  2692   002EA0  0100               	movlb	0	; () banked
  2693   002EA2  6F65               	movwf	??_initLCD& (0+255),b
  2694   002EA4  0E3A               	movlw	58
  2695   002EA6                     u8447:
  2696   002EA6  2EE8               	decfsz	wreg,f,c
  2697   002EA8  D7FE               	bra	u8447
  2698   002EAA  2F65               	decfsz	??_initLCD& (0+255),f,b
  2699   002EAC  D7FC               	bra	u8447
  2700   002EAE  F000               	nop	
  2701                           
  2702                           ;drivers/LCD.c: 75:     clearLCD();
  2703   002EB0  ECAA  F01C         	call	_clearLCD	;wreg free
  2704                           
  2705                           ;drivers/LCD.c: 76:     _delay((unsigned long)((5)*(64000000/4000.0)));
  2706   002EB4  0E68               	movlw	104
  2707   002EB6  0100               	movlb	0	; () banked
  2708   002EB8  6F65               	movwf	??_initLCD& (0+255),b
  2709   002EBA  0EE4               	movlw	228
  2710   002EBC                     u8457:
  2711   002EBC  2EE8               	decfsz	wreg,f,c
  2712   002EBE  D7FE               	bra	u8457
  2713   002EC0  2F65               	decfsz	??_initLCD& (0+255),f,b
  2714   002EC2  D7FC               	bra	u8457
  2715   002EC4  F000               	nop	
  2716                           
  2717                           ;drivers/LCD.c: 77:     writeLCD(0x06, COMMAND);
  2718   002EC6  0E00               	movlw	0
  2719   002EC8  0100               	movlb	0	; () banked
  2720   002ECA  6F62               	movwf	writeLCD@type& (0+255),b
  2721   002ECC  0E06               	movlw	6
  2722   002ECE  EC36  F01B         	call	_writeLCD
  2723                           
  2724                           ;drivers/LCD.c: 78:     _delay((unsigned long)((5)*(64000000/4000.0)));
  2725   002ED2  0E68               	movlw	104
  2726   002ED4  0100               	movlb	0	; () banked
  2727   002ED6  6F65               	movwf	??_initLCD& (0+255),b
  2728   002ED8  0EE4               	movlw	228
  2729   002EDA                     u8467:
  2730   002EDA  2EE8               	decfsz	wreg,f,c
  2731   002EDC  D7FE               	bra	u8467
  2732   002EDE  2F65               	decfsz	??_initLCD& (0+255),f,b
  2733   002EE0  D7FC               	bra	u8467
  2734   002EE2  F000               	nop	
  2735                           
  2736                           ;drivers/LCD.c: 79:     clearLCD();
  2737   002EE4  ECAA  F01C         	call	_clearLCD	;wreg free
  2738                           
  2739                           ;drivers/LCD.c: 81:     LATAbits.LATA0 = 1;
  2740   002EE8  8083               	bsf	131,0,c	;volatile
  2741   002EEA  0012               	return		;funcret
  2742   002EEC                     __end_of_initLCD:
  2743                           	callstack 0
  2744                           
  2745 ;; *************** function _clearLCD *****************
  2746 ;; Defined at:
  2747 ;;		line 103 in file "drivers/LCD.c"
  2748 ;; Parameters:    Size  Location     Type
  2749 ;;		None
  2750 ;; Auto vars:     Size  Location     Type
  2751 ;;		None
  2752 ;; Return value:  Size  Location     Type
  2753 ;;                  1    wreg      void 
  2754 ;; Registers used:
  2755 ;;		wreg, status,2, status,0, cstack
  2756 ;; Tracked objects:
  2757 ;;		On entry : 0/0
  2758 ;;		On exit  : 0/0
  2759 ;;		Unchanged: 0/0
  2760 ;; Data sizes:     COMRAM   BANK0   BANK1   BANK2   BANK3   BANK4   BANK5   BANK6   BANK7   BANK8   BANK9  BANK10  BANK1
      +1  BANK12  BANK13  BANK14
  2761 ;;      Params:         0       0       0       0       0       0       0       0       0       0       0       0       
      +0       0       0       0
  2762 ;;      Locals:         0       0       0       0       0       0       0       0       0       0       0       0       
      +0       0       0       0
  2763 ;;      Temps:          0       1       0       0       0       0       0       0       0       0       0       0       
      +0       0       0       0
  2764 ;;      Totals:         0       1       0       0       0       0       0       0       0       0       0       0       
      +0       0       0       0
  2765 ;;Total ram usage:        1 bytes
  2766 ;; Hardware stack levels used: 1
  2767 ;; Hardware stack levels required when called: 7
  2768 ;; This function calls:
  2769 ;;		_writeLCD
  2770 ;; This function is called by:
  2771 ;;		_initLCD
  2772 ;;		_main
  2773 ;; This function uses a non-reentrant model
  2774 ;;
  2775                           
  2776                           	psect	text4
  2777   003954                     __ptext4:
  2778                           	callstack 0
  2779   003954                     _clearLCD:
  2780                           	callstack 22
  2781                           
  2782                           ;drivers/LCD.c: 104:     writeLCD(0x01, COMMAND);
  2783                           
  2784                           ;incstack = 0
  2785   003954  0E00               	movlw	0
  2786   003956  0100               	movlb	0	; () banked
  2787   003958  6F62               	movwf	writeLCD@type& (0+255),b
  2788   00395A  0E01               	movlw	1
  2789   00395C  EC36  F01B         	call	_writeLCD
  2790                           
  2791                           ;drivers/LCD.c: 105:     _delay((unsigned long)((2)*(64000000/4000.0)));
  2792   003960  0E2A               	movlw	42
  2793   003962  0100               	movlb	0	; () banked
  2794   003964  6F64               	movwf	??_clearLCD& (0+255),b
  2795   003966  0E8D               	movlw	141
  2796   003968                     u8477:
  2797   003968  2EE8               	decfsz	wreg,f,c
  2798   00396A  D7FE               	bra	u8477
  2799   00396C  2F64               	decfsz	??_clearLCD& (0+255),f,b
  2800   00396E  D7FC               	bra	u8477
  2801   003970  D000               	nop2	
  2802   003972  0012               	return		;funcret
  2803   003974                     __end_of_clearLCD:
  2804                           	callstack 0
  2805                           
  2806 ;; *************** function _writeLCD *****************
  2807 ;; Defined at:
  2808 ;;		line 113 in file "drivers/LCD.c"
  2809 ;; Parameters:    Size  Location     Type
  2810 ;;  byte            1    wreg     unsigned char 
  2811 ;;  type            1    2[BANK0 ] enum E10056
  2812 ;; Auto vars:     Size  Location     Type
  2813 ;;  byte            1    3[BANK0 ] unsigned char 
  2814 ;; Return value:  Size  Location     Type
  2815 ;;                  1    wreg      void 
  2816 ;; Registers used:
  2817 ;;		wreg, status,2, status,0, cstack
  2818 ;; Tracked objects:
  2819 ;;		On entry : 0/0
  2820 ;;		On exit  : 0/0
  2821 ;;		Unchanged: 0/0
  2822 ;; Data sizes:     COMRAM   BANK0   BANK1   BANK2   BANK3   BANK4   BANK5   BANK6   BANK7   BANK8   BANK9  BANK10  BANK1
      +1  BANK12  BANK13  BANK14
  2823 ;;      Params:         0       1       0       0       0       0       0       0       0       0       0       0       
      +0       0       0       0
  2824 ;;      Locals:         0       1       0       0       0       0       0       0       0       0       0       0       
      +0       0       0       0
  2825 ;;      Temps:          0       0       0       0       0       0       0       0       0       0       0       0       
      +0       0       0       0
  2826 ;;      Totals:         0       2       0       0       0       0       0       0       0       0       0       0       
      +0       0       0       0
  2827 ;;Total ram usage:        2 bytes
  2828 ;; Hardware stack levels used: 1
  2829 ;; Hardware stack levels required when called: 6
  2830 ;; This function calls:
  2831 ;;		_lcdNibble
  2832 ;; This function is called by:
  2833 ;;		_initLCD
  2834 ;;		_clearLCD
  2835 ;;		_gotoLCD
  2836 ;;		_printLCD
  2837 ;;		_LCDvalue8fp
  2838 ;;		_LCDvalue16fp
  2839 ;;		_LCDvalue_laser_Range
  2840 ;;		_LCDvalue32
  2841 ;;		_LCDvalue_Boolean
  2842 ;; This function uses a non-reentrant model
  2843 ;;
  2844                           
  2845                           	psect	text5
  2846   00366C                     __ptext5:
  2847                           	callstack 0
  2848   00366C                     _writeLCD:
  2849                           	callstack 23
  2850                           
  2851                           ;incstack = 0
  2852                           ;writeLCD@byte stored from wreg
  2853   00366C  0100               	movlb	0	; () banked
  2854   00366E  6F63               	movwf	writeLCD@byte& (0+255),b
  2855                           
  2856                           ;drivers/LCD.c: 114:     if(type == COMMAND)
  2857   003670  0100               	movlb	0	; () banked
  2858   003672  5162               	movf	writeLCD@type& (0+255),w,b
  2859   003674  A4D8               	btfss	status,2,c
  2860   003676  D002               	goto	l382
  2861                           
  2862                           ; BSR set to: 0
  2863                           ;drivers/LCD.c: 115:         LATAbits.LATA0 = 0;
  2864   003678  9083               	bcf	131,0,c	;volatile
  2865   00367A  D001               	goto	l6103
  2866   00367C                     l382:
  2867                           
  2868                           ; BSR set to: 0
  2869                           ;drivers/LCD.c: 117:         LATAbits.LATA0 = 1;
  2870   00367C  8083               	bsf	131,0,c	;volatile
  2871   00367E                     l6103:
  2872                           
  2873                           ; BSR set to: 0
  2874                           ;drivers/LCD.c: 119:     _delay((unsigned long)((100)*(64000000/4000000.0)));
  2875   00367E  0EE4               	movlw	228
  2876   003680                     u8487:
  2877   003680  D000               	nop2	
  2878   003682  D000               	nop2	
  2879   003684  2EE8               	decfsz	wreg,f,c
  2880   003686  D7FC               	bra	u8487
  2881   003688  D000               	nop2	
  2882   00368A  D000               	nop2	
  2883                           
  2884                           ;drivers/LCD.c: 121:     lcdNibble(byte >> 4);
  2885   00368C  0100               	movlb	0	; () banked
  2886   00368E  3963               	swapf	writeLCD@byte& (0+255),w,b
  2887   003690  0B0F               	andlw	15
  2888   003692  EC33  F019         	call	_lcdNibble
  2889                           
  2890                           ;drivers/LCD.c: 122:     lcdNibble(byte & 0x0F);
  2891   003696  0100               	movlb	0	; () banked
  2892   003698  5163               	movf	writeLCD@byte& (0+255),w,b
  2893   00369A  0B0F               	andlw	15
  2894   00369C  EC33  F019         	call	_lcdNibble
  2895   0036A0  0012               	return		;funcret
  2896   0036A2                     __end_of_writeLCD:
  2897                           	callstack 0
  2898                           
  2899 ;; *************** function _lcdNibble *****************
  2900 ;; Defined at:
  2901 ;;		line 142 in file "drivers/LCD.c"
  2902 ;; Parameters:    Size  Location     Type
  2903 ;;  nibble          1    wreg     unsigned char 
  2904 ;; Auto vars:     Size  Location     Type
  2905 ;;  nibble          1    1[BANK0 ] unsigned char 
  2906 ;; Return value:  Size  Location     Type
  2907 ;;                  1    wreg      void 
  2908 ;; Registers used:
  2909 ;;		wreg, status,2, status,0
  2910 ;; Tracked objects:
  2911 ;;		On entry : 0/0
  2912 ;;		On exit  : 0/0
  2913 ;;		Unchanged: 0/0
  2914 ;; Data sizes:     COMRAM   BANK0   BANK1   BANK2   BANK3   BANK4   BANK5   BANK6   BANK7   BANK8   BANK9  BANK10  BANK1
      +1  BANK12  BANK13  BANK14
  2915 ;;      Params:         0       0       0       0       0       0       0       0       0       0       0       0       
      +0       0       0       0
  2916 ;;      Locals:         0       1       0       0       0       0       0       0       0       0       0       0       
      +0       0       0       0
  2917 ;;      Temps:          0       1       0       0       0       0       0       0       0       0       0       0       
      +0       0       0       0
  2918 ;;      Totals:         0       2       0       0       0       0       0       0       0       0       0       0       
      +0       0       0       0
  2919 ;;Total ram usage:        2 bytes
  2920 ;; Hardware stack levels used: 1
  2921 ;; Hardware stack levels required when called: 5
  2922 ;; This function calls:
  2923 ;;		Nothing
  2924 ;; This function is called by:
  2925 ;;		_initLCD
  2926 ;;		_writeLCD
  2927 ;; This function uses a non-reentrant model
  2928 ;;
  2929                           
  2930                           	psect	text6
  2931   003266                     __ptext6:
  2932                           	callstack 0
  2933   003266                     _lcdNibble:
  2934                           	callstack 23
  2935                           
  2936                           ;incstack = 0
  2937                           ;lcdNibble@nibble stored from wreg
  2938   003266  0100               	movlb	0	; () banked
  2939   003268  6F61               	movwf	lcdNibble@nibble& (0+255),b
  2940                           
  2941                           ;drivers/LCD.c: 143:     LATAbits.LATA2 = (nibble & 0x01) ? 1 : 0;
  2942   00326A  0100               	movlb	0	; () banked
  2943   00326C  A161               	btfss	lcdNibble@nibble& (0+255),0,b
  2944   00326E  D003               	goto	u4400
  2945   003270  6B60               	clrf	??_lcdNibble& (0+255),b
  2946   003272  2B60               	incf	??_lcdNibble& (0+255),f,b
  2947   003274  D002               	goto	u4418
  2948   003276                     u4400:
  2949   003276  0100               	movlb	0	; () banked
  2950   003278  6B60               	clrf	??_lcdNibble& (0+255),b
  2951   00327A                     u4418:
  2952   00327A  4760               	rlncf	??_lcdNibble& (0+255),f,b
  2953   00327C  4760               	rlncf	??_lcdNibble& (0+255),f,b
  2954   00327E  5083               	movf	131,w,c	;volatile
  2955   003280  1960               	xorwf	??_lcdNibble& (0+255),w,b
  2956   003282  0BFB               	andlw	-5
  2957   003284  1960               	xorwf	??_lcdNibble& (0+255),w,b
  2958   003286  6E83               	movwf	131,c	;volatile
  2959                           
  2960                           ;drivers/LCD.c: 144:     LATAbits.LATA3 = (nibble & 0x02) ? 1 : 0;
  2961   003288  A361               	btfss	lcdNibble@nibble& (0+255),1,b
  2962   00328A  D003               	goto	u4420
  2963   00328C  6B60               	clrf	??_lcdNibble& (0+255),b
  2964   00328E  2B60               	incf	??_lcdNibble& (0+255),f,b
  2965   003290  D002               	goto	u4438
  2966   003292                     u4420:
  2967   003292  0100               	movlb	0	; () banked
  2968   003294  6B60               	clrf	??_lcdNibble& (0+255),b
  2969   003296                     u4438:
  2970   003296  4760               	rlncf	??_lcdNibble& (0+255),f,b
  2971   003298  4760               	rlncf	??_lcdNibble& (0+255),f,b
  2972   00329A  4760               	rlncf	??_lcdNibble& (0+255),f,b
  2973   00329C  5083               	movf	131,w,c	;volatile
  2974   00329E  1960               	xorwf	??_lcdNibble& (0+255),w,b
  2975   0032A0  0BF7               	andlw	-9
  2976   0032A2  1960               	xorwf	??_lcdNibble& (0+255),w,b
  2977   0032A4  6E83               	movwf	131,c	;volatile
  2978                           
  2979                           ;drivers/LCD.c: 145:     LATAbits.LATA4 = (nibble & 0x04) ? 1 : 0;
  2980   0032A6  A561               	btfss	lcdNibble@nibble& (0+255),2,b
  2981   0032A8  D003               	goto	u4440
  2982   0032AA  6B60               	clrf	??_lcdNibble& (0+255),b
  2983   0032AC  2B60               	incf	??_lcdNibble& (0+255),f,b
  2984   0032AE  D002               	goto	u4458
  2985   0032B0                     u4440:
  2986   0032B0  0100               	movlb	0	; () banked
  2987   0032B2  6B60               	clrf	??_lcdNibble& (0+255),b
  2988   0032B4                     u4458:
  2989   0032B4  3B60               	swapf	??_lcdNibble& (0+255),f,b
  2990   0032B6  5083               	movf	131,w,c	;volatile
  2991   0032B8  1960               	xorwf	??_lcdNibble& (0+255),w,b
  2992   0032BA  0BEF               	andlw	-17
  2993   0032BC  1960               	xorwf	??_lcdNibble& (0+255),w,b
  2994   0032BE  6E83               	movwf	131,c	;volatile
  2995                           
  2996                           ;drivers/LCD.c: 146:     LATEbits.LATE0 = (nibble & 0x08) ? 1 : 0;
  2997   0032C0  A761               	btfss	lcdNibble@nibble& (0+255),3,b
  2998   0032C2  D003               	goto	u4460
  2999   0032C4  6B60               	clrf	??_lcdNibble& (0+255),b
  3000   0032C6  2B60               	incf	??_lcdNibble& (0+255),f,b
  3001   0032C8  D002               	goto	u4478
  3002   0032CA                     u4460:
  3003   0032CA  0100               	movlb	0	; () banked
  3004   0032CC  6B60               	clrf	??_lcdNibble& (0+255),b
  3005   0032CE                     u4478:
  3006   0032CE  5087               	movf	135,w,c	;volatile
  3007   0032D0  1960               	xorwf	??_lcdNibble& (0+255),w,b
  3008   0032D2  0BFE               	andlw	-2
  3009   0032D4  1960               	xorwf	??_lcdNibble& (0+255),w,b
  3010   0032D6  6E87               	movwf	135,c	;volatile
  3011                           
  3012                           ; BSR set to: 0
  3013                           ;drivers/LCD.c: 149:     LATAbits.LATA1 = 1;
  3014   0032D8  8283               	bsf	131,1,c	;volatile
  3015                           
  3016                           ; BSR set to: 0
  3017                           ;drivers/LCD.c: 150:     _delay((unsigned long)((100)*(64000000/4000000.0)));
  3018   0032DA  0EE4               	movlw	228
  3019   0032DC                     u8497:
  3020   0032DC  D000               	nop2	
  3021   0032DE  D000               	nop2	
  3022   0032E0  2EE8               	decfsz	wreg,f,c
  3023   0032E2  D7FC               	bra	u8497
  3024   0032E4  D000               	nop2	
  3025   0032E6  D000               	nop2	
  3026                           
  3027                           ;drivers/LCD.c: 151:     LATAbits.LATA1 = 0;
  3028   0032E8  9283               	bcf	131,1,c	;volatile
  3029                           
  3030                           ;drivers/LCD.c: 152:     _delay((unsigned long)((100)*(64000000/4000000.0)));
  3031   0032EA  0EE4               	movlw	228
  3032   0032EC                     u8507:
  3033   0032EC  D000               	nop2	
  3034   0032EE  D000               	nop2	
  3035   0032F0  2EE8               	decfsz	wreg,f,c
  3036   0032F2  D7FC               	bra	u8507
  3037   0032F4  D000               	nop2	
  3038   0032F6  D000               	nop2	
  3039   0032F8  0012               	return		;funcret
  3040   0032FA                     __end_of_lcdNibble:
  3041                           	callstack 0
  3042                           
  3043 ;; *************** function ___xxtofl *****************
  3044 ;; Defined at:
  3045 ;;		line 10 in file "C:\Program Files\Microchip\xc8\v2.41\pic\sources\c99\common\xxtofl.c"
  3046 ;; Parameters:    Size  Location     Type
  3047 ;;  sign            1    wreg     unsigned char 
  3048 ;;  val             4    0[BANK0 ] long 
  3049 ;; Auto vars:     Size  Location     Type
  3050 ;;  sign            1    8[BANK0 ] unsigned char 
  3051 ;;  arg             4   10[BANK0 ] unsigned long 
  3052 ;;  exp             1    9[BANK0 ] unsigned char 
  3053 ;; Return value:  Size  Location     Type
  3054 ;;                  4    0[BANK0 ] unsigned char 
  3055 ;; Registers used:
  3056 ;;		wreg, status,2, status,0
  3057 ;; Tracked objects:
  3058 ;;		On entry : 0/0
  3059 ;;		On exit  : 0/0
  3060 ;;		Unchanged: 0/0
  3061 ;; Data sizes:     COMRAM   BANK0   BANK1   BANK2   BANK3   BANK4   BANK5   BANK6   BANK7   BANK8   BANK9  BANK10  BANK1
      +1  BANK12  BANK13  BANK14
  3062 ;;      Params:         0       4       0       0       0       0       0       0       0       0       0       0       
      +0       0       0       0
  3063 ;;      Locals:         0       6       0       0       0       0       0       0       0       0       0       0       
      +0       0       0       0
  3064 ;;      Temps:          0       4       0       0       0       0       0       0       0       0       0       0       
      +0       0       0       0
  3065 ;;      Totals:         0      14       0       0       0       0       0       0       0       0       0       0       
      +0       0       0       0
  3066 ;;Total ram usage:       14 bytes
  3067 ;; Hardware stack levels used: 1
  3068 ;; Hardware stack levels required when called: 5
  3069 ;; This function calls:
  3070 ;;		Nothing
  3071 ;; This function is called by:
  3072 ;;		_main
  3073 ;; This function uses a non-reentrant model
  3074 ;;
  3075                           
  3076                           	psect	text7
  3077   002A6E                     __ptext7:
  3078                           	callstack 0
  3079   002A6E                     ___xxtofl:
  3080                           	callstack 25
  3081                           
  3082                           ;incstack = 0
  3083                           ;___xxtofl@sign stored from wreg
  3084   002A6E  0100               	movlb	0	; () banked
  3085   002A70  6F68               	movwf	___xxtofl@sign& (0+255),b
  3086   002A72  0100               	movlb	0	; () banked
  3087   002A74  5168               	movf	___xxtofl@sign& (0+255),w,b
  3088   002A76  A4D8               	btfss	status,2,c
  3089                           
  3090                           ; BSR set to: 0
  3091   002A78  AF63               	btfss	(___xxtofl@val+3)& (0+255),7,b
  3092   002A7A  D01A               	goto	l2509
  3093                           
  3094                           ; BSR set to: 0
  3095   002A7C  C060  F064         	movff	___xxtofl@val,??___xxtofl
  3096   002A80  C061  F065         	movff	___xxtofl@val+1,??___xxtofl+1
  3097   002A84  C062  F066         	movff	___xxtofl@val+2,??___xxtofl+2
  3098   002A88  C063  F067         	movff	___xxtofl@val+3,??___xxtofl+3
  3099   002A8C  1F64               	comf	??___xxtofl& (0+255),f,b
  3100   002A8E  1F65               	comf	(??___xxtofl+1)& (0+255),f,b
  3101   002A90  1F66               	comf	(??___xxtofl+2)& (0+255),f,b
  3102   002A92  1F67               	comf	(??___xxtofl+3)& (0+255),f,b
  3103   002A94  2B64               	incf	??___xxtofl& (0+255),f,b
  3104   002A96  0E00               	movlw	0
  3105   002A98  2365               	addwfc	(??___xxtofl+1)& (0+255),f,b
  3106   002A9A  2366               	addwfc	(??___xxtofl+2)& (0+255),f,b
  3107   002A9C  2367               	addwfc	(??___xxtofl+3)& (0+255),f,b
  3108   002A9E  C064  F06A         	movff	??___xxtofl,___xxtofl@arg
  3109   002AA2  C065  F06B         	movff	??___xxtofl+1,___xxtofl@arg+1
  3110   002AA6  C066  F06C         	movff	??___xxtofl+2,___xxtofl@arg+2
  3111   002AAA  C067  F06D         	movff	??___xxtofl+3,___xxtofl@arg+3
  3112   002AAE  D008               	goto	l7847
  3113   002AB0                     l2509:
  3114                           
  3115                           ; BSR set to: 0
  3116   002AB0  C060  F06A         	movff	___xxtofl@val,___xxtofl@arg
  3117   002AB4  C061  F06B         	movff	___xxtofl@val+1,___xxtofl@arg+1
  3118   002AB8  C062  F06C         	movff	___xxtofl@val+2,___xxtofl@arg+2
  3119   002ABC  C063  F06D         	movff	___xxtofl@val+3,___xxtofl@arg+3
  3120   002AC0                     l7847:
  3121                           
  3122                           ; BSR set to: 0
  3123   002AC0  5160               	movf	___xxtofl@val& (0+255),w,b
  3124   002AC2  1161               	iorwf	(___xxtofl@val+1)& (0+255),w,b
  3125   002AC4  1162               	iorwf	(___xxtofl@val+2)& (0+255),w,b
  3126   002AC6  1163               	iorwf	(___xxtofl@val+3)& (0+255),w,b
  3127   002AC8  A4D8               	btfss	status,2,c
  3128   002ACA  D009               	goto	l7853
  3129                           
  3130                           ; BSR set to: 0
  3131   002ACC  0E00               	movlw	0
  3132   002ACE  6F60               	movwf	?___xxtofl& (0+255),b
  3133   002AD0  0E00               	movlw	0
  3134   002AD2  6F61               	movwf	(?___xxtofl+1)& (0+255),b
  3135   002AD4  0E00               	movlw	0
  3136   002AD6  6F62               	movwf	(?___xxtofl+2)& (0+255),b
  3137   002AD8  0E00               	movlw	0
  3138   002ADA  6F63               	movwf	(?___xxtofl+3)& (0+255),b
  3139   002ADC  0012               	return	
  3140   002ADE                     l7853:
  3141                           
  3142                           ; BSR set to: 0
  3143   002ADE  0E96               	movlw	150
  3144   002AE0  6F69               	movwf	___xxtofl@exp& (0+255),b
  3145   002AE2  D006               	goto	l7857
  3146   002AE4                     l7855:
  3147                           
  3148                           ; BSR set to: 0
  3149   002AE4  2B69               	incf	___xxtofl@exp& (0+255),f,b
  3150   002AE6  90D8               	bcf	status,0,c
  3151   002AE8  336D               	rrcf	(___xxtofl@arg+3)& (0+255),f,b
  3152   002AEA  336C               	rrcf	(___xxtofl@arg+2)& (0+255),f,b
  3153   002AEC  336B               	rrcf	(___xxtofl@arg+1)& (0+255),f,b
  3154   002AEE  336A               	rrcf	___xxtofl@arg& (0+255),f,b
  3155   002AF0                     l7857:
  3156                           
  3157                           ; BSR set to: 0
  3158   002AF0  0E00               	movlw	0
  3159   002AF2  156A               	andwf	___xxtofl@arg& (0+255),w,b
  3160   002AF4  6F64               	movwf	??___xxtofl& (0+255),b
  3161   002AF6  0E00               	movlw	0
  3162   002AF8  156B               	andwf	(___xxtofl@arg+1)& (0+255),w,b
  3163   002AFA  6F65               	movwf	(??___xxtofl+1)& (0+255),b
  3164   002AFC  0E00               	movlw	0
  3165   002AFE  156C               	andwf	(___xxtofl@arg+2)& (0+255),w,b
  3166   002B00  6F66               	movwf	(??___xxtofl+2)& (0+255),b
  3167   002B02  0EFE               	movlw	254
  3168   002B04  156D               	andwf	(___xxtofl@arg+3)& (0+255),w,b
  3169   002B06  6F67               	movwf	(??___xxtofl+3)& (0+255),b
  3170   002B08  5164               	movf	??___xxtofl& (0+255),w,b
  3171   002B0A  1165               	iorwf	(??___xxtofl+1)& (0+255),w,b
  3172   002B0C  1166               	iorwf	(??___xxtofl+2)& (0+255),w,b
  3173   002B0E  1167               	iorwf	(??___xxtofl+3)& (0+255),w,b
  3174   002B10  B4D8               	btfsc	status,2,c
  3175   002B12  D00D               	goto	l2516
  3176   002B14  D7E7               	goto	l7855
  3177   002B16                     l7859:
  3178                           
  3179                           ; BSR set to: 0
  3180   002B16  2B69               	incf	___xxtofl@exp& (0+255),f,b
  3181                           
  3182                           ; BSR set to: 0
  3183   002B18  0E01               	movlw	1
  3184   002B1A  276A               	addwf	___xxtofl@arg& (0+255),f,b
  3185   002B1C  0E00               	movlw	0
  3186   002B1E  236B               	addwfc	(___xxtofl@arg+1)& (0+255),f,b
  3187   002B20  236C               	addwfc	(___xxtofl@arg+2)& (0+255),f,b
  3188   002B22  236D               	addwfc	(___xxtofl@arg+3)& (0+255),f,b
  3189                           
  3190                           ; BSR set to: 0
  3191   002B24  90D8               	bcf	status,0,c
  3192   002B26  336D               	rrcf	(___xxtofl@arg+3)& (0+255),f,b
  3193   002B28  336C               	rrcf	(___xxtofl@arg+2)& (0+255),f,b
  3194   002B2A  336B               	rrcf	(___xxtofl@arg+1)& (0+255),f,b
  3195   002B2C  336A               	rrcf	___xxtofl@arg& (0+255),f,b
  3196   002B2E                     l2516:
  3197                           
  3198                           ; BSR set to: 0
  3199   002B2E  0E00               	movlw	0
  3200   002B30  156A               	andwf	___xxtofl@arg& (0+255),w,b
  3201   002B32  6F64               	movwf	??___xxtofl& (0+255),b
  3202   002B34  0E00               	movlw	0
  3203   002B36  156B               	andwf	(___xxtofl@arg+1)& (0+255),w,b
  3204   002B38  6F65               	movwf	(??___xxtofl+1)& (0+255),b
  3205   002B3A  0E00               	movlw	0
  3206   002B3C  156C               	andwf	(___xxtofl@arg+2)& (0+255),w,b
  3207   002B3E  6F66               	movwf	(??___xxtofl+2)& (0+255),b
  3208   002B40  0EFF               	movlw	255
  3209   002B42  156D               	andwf	(___xxtofl@arg+3)& (0+255),w,b
  3210   002B44  6F67               	movwf	(??___xxtofl+3)& (0+255),b
  3211   002B46  5164               	movf	??___xxtofl& (0+255),w,b
  3212   002B48  1165               	iorwf	(??___xxtofl+1)& (0+255),w,b
  3213   002B4A  1166               	iorwf	(??___xxtofl+2)& (0+255),w,b
  3214   002B4C  1167               	iorwf	(??___xxtofl+3)& (0+255),w,b
  3215   002B4E  B4D8               	btfsc	status,2,c
  3216   002B50  D007               	goto	l7867
  3217   002B52  D7E1               	goto	l7859
  3218   002B54                     l7865:
  3219                           
  3220                           ; BSR set to: 0
  3221   002B54  0769               	decf	___xxtofl@exp& (0+255),f,b
  3222   002B56  90D8               	bcf	status,0,c
  3223   002B58  376A               	rlcf	___xxtofl@arg& (0+255),f,b
  3224   002B5A  376B               	rlcf	(___xxtofl@arg+1)& (0+255),f,b
  3225   002B5C  376C               	rlcf	(___xxtofl@arg+2)& (0+255),f,b
  3226   002B5E  376D               	rlcf	(___xxtofl@arg+3)& (0+255),f,b
  3227   002B60                     l7867:
  3228                           
  3229                           ; BSR set to: 0
  3230   002B60  BF6C               	btfsc	(___xxtofl@arg+2)& (0+255),7,b
  3231   002B62  D003               	goto	u7320
  3232                           
  3233                           ; BSR set to: 0
  3234   002B64  0E02               	movlw	2
  3235   002B66  6169               	cpfslt	___xxtofl@exp& (0+255),b
  3236   002B68  D7F5               	goto	l7865
  3237   002B6A                     u7320:
  3238                           
  3239                           ; BSR set to: 0
  3240   002B6A  A169               	btfss	___xxtofl@exp& (0+255),0,b
  3241                           
  3242                           ; BSR set to: 0
  3243   002B6C  9F6C               	bcf	(___xxtofl@arg+2)& (0+255),7,b
  3244                           
  3245                           ; BSR set to: 0
  3246   002B6E  90D8               	bcf	status,0,c
  3247   002B70  3369               	rrcf	___xxtofl@exp& (0+255),f,b
  3248                           
  3249                           ; BSR set to: 0
  3250   002B72  C069  F064         	movff	___xxtofl@exp,??___xxtofl
  3251   002B76  6B65               	clrf	(??___xxtofl+1)& (0+255),b
  3252   002B78  6B66               	clrf	(??___xxtofl+2)& (0+255),b
  3253   002B7A  6B67               	clrf	(??___xxtofl+3)& (0+255),b
  3254   002B7C  C064  F067         	movff	??___xxtofl,??___xxtofl+3
  3255   002B80  6B66               	clrf	(??___xxtofl+2)& (0+255),b
  3256   002B82  6B65               	clrf	(??___xxtofl+1)& (0+255),b
  3257   002B84  6B64               	clrf	??___xxtofl& (0+255),b
  3258   002B86  5164               	movf	??___xxtofl& (0+255),w,b
  3259   002B88  136A               	iorwf	___xxtofl@arg& (0+255),f,b
  3260   002B8A  5165               	movf	(??___xxtofl+1)& (0+255),w,b
  3261   002B8C  136B               	iorwf	(___xxtofl@arg+1)& (0+255),f,b
  3262   002B8E  5166               	movf	(??___xxtofl+2)& (0+255),w,b
  3263   002B90  136C               	iorwf	(___xxtofl@arg+2)& (0+255),f,b
  3264   002B92  5167               	movf	(??___xxtofl+3)& (0+255),w,b
  3265   002B94  136D               	iorwf	(___xxtofl@arg+3)& (0+255),f,b
  3266                           
  3267                           ; BSR set to: 0
  3268   002B96  5168               	movf	___xxtofl@sign& (0+255),w,b
  3269   002B98  A4D8               	btfss	status,2,c
  3270                           
  3271                           ; BSR set to: 0
  3272   002B9A  AF63               	btfss	(___xxtofl@val+3)& (0+255),7,b
  3273   002B9C  D001               	goto	l7883
  3274                           
  3275                           ; BSR set to: 0
  3276   002B9E  8F6D               	bsf	(___xxtofl@arg+3)& (0+255),7,b
  3277   002BA0                     l7883:
  3278                           
  3279                           ; BSR set to: 0
  3280   002BA0  C06A  F060         	movff	___xxtofl@arg,?___xxtofl
  3281   002BA4  C06B  F061         	movff	___xxtofl@arg+1,?___xxtofl+1
  3282   002BA8  C06C  F062         	movff	___xxtofl@arg+2,?___xxtofl+2
  3283   002BAC  C06D  F063         	movff	___xxtofl@arg+3,?___xxtofl+3
  3284                           
  3285                           ; BSR set to: 0
  3286   002BB0  0012               	return		;funcret
  3287   002BB2                     __end_of___xxtofl:
  3288                           	callstack 0
  3289                           
  3290 ;; *************** function ___fltol *****************
  3291 ;; Defined at:
  3292 ;;		line 43 in file "C:\Program Files\Microchip\xc8\v2.41\pic\sources\c99\common\fltol.c"
  3293 ;; Parameters:    Size  Location     Type
  3294 ;;  f1              4   55[BANK0 ] unsigned char 
  3295 ;; Auto vars:     Size  Location     Type
  3296 ;;  exp1            1   64[BANK0 ] unsigned char 
  3297 ;;  sign1           1   63[BANK0 ] unsigned char 
  3298 ;; Return value:  Size  Location     Type
  3299 ;;                  4   55[BANK0 ] long 
  3300 ;; Registers used:
  3301 ;;		wreg, status,2, status,0
  3302 ;; Tracked objects:
  3303 ;;		On entry : 0/0
  3304 ;;		On exit  : 0/0
  3305 ;;		Unchanged: 0/0
  3306 ;; Data sizes:     COMRAM   BANK0   BANK1   BANK2   BANK3   BANK4   BANK5   BANK6   BANK7   BANK8   BANK9  BANK10  BANK1
      +1  BANK12  BANK13  BANK14
  3307 ;;      Params:         0       4       0       0       0       0       0       0       0       0       0       0       
      +0       0       0       0
  3308 ;;      Locals:         0       2       0       0       0       0       0       0       0       0       0       0       
      +0       0       0       0
  3309 ;;      Temps:          0       4       0       0       0       0       0       0       0       0       0       0       
      +0       0       0       0
  3310 ;;      Totals:         0      10       0       0       0       0       0       0       0       0       0       0       
      +0       0       0       0
  3311 ;;Total ram usage:       10 bytes
  3312 ;; Hardware stack levels used: 1
  3313 ;; Hardware stack levels required when called: 5
  3314 ;; This function calls:
  3315 ;;		Nothing
  3316 ;; This function is called by:
  3317 ;;		_main
  3318 ;;		_VL53L0X_SetSignalRateLimit
  3319 ;; This function uses a non-reentrant model
  3320 ;;
  3321                           
  3322                           	psect	text8
  3323   002FB8                     __ptext8:
  3324                           	callstack 0
  3325   002FB8                     ___fltol:
  3326                           	callstack 25
  3327                           
  3328                           ; BSR set to: 0
  3329                           ;incstack = 0
  3330   002FB8  0100               	movlb	0	; () banked
  3331   002FBA  3599               	rlcf	(___fltol@f1+2)& (0+255),w,b
  3332   002FBC  359A               	rlcf	(___fltol@f1+3)& (0+255),w,b
  3333   002FBE  6FA0               	movwf	___fltol@exp1& (0+255),b
  3334   002FC0  51A0               	movf	___fltol@exp1& (0+255),w,b
  3335   002FC2  A4D8               	btfss	status,2,c
  3336   002FC4  D009               	goto	l7803
  3337   002FC6                     u7190:
  3338                           
  3339                           ; BSR set to: 0
  3340   002FC6  0E00               	movlw	0
  3341   002FC8  6F97               	movwf	?___fltol& (0+255),b
  3342   002FCA  0E00               	movlw	0
  3343   002FCC  6F98               	movwf	(?___fltol+1)& (0+255),b
  3344   002FCE  0E00               	movlw	0
  3345   002FD0  6F99               	movwf	(?___fltol+2)& (0+255),b
  3346   002FD2  0E00               	movlw	0
  3347   002FD4  6F9A               	movwf	(?___fltol+3)& (0+255),b
  3348   002FD6  0012               	return	
  3349   002FD8                     l7803:
  3350                           
  3351                           ; BSR set to: 0
  3352   002FD8  C097  F09B         	movff	___fltol@f1,??___fltol
  3353   002FDC  C098  F09C         	movff	___fltol@f1+1,??___fltol+1
  3354   002FE0  C099  F09D         	movff	___fltol@f1+2,??___fltol+2
  3355   002FE4  C09A  F09E         	movff	___fltol@f1+3,??___fltol+3
  3356   002FE8  0E20               	movlw	32
  3357   002FEA  D005               	goto	u7200
  3358   002FEC                     u7205:
  3359   002FEC  90D8               	bcf	status,0,c
  3360   002FEE  339E               	rrcf	(??___fltol+3)& (0+255),f,b
  3361   002FF0  339D               	rrcf	(??___fltol+2)& (0+255),f,b
  3362   002FF2  339C               	rrcf	(??___fltol+1)& (0+255),f,b
  3363   002FF4  339B               	rrcf	??___fltol& (0+255),f,b
  3364   002FF6                     u7200:
  3365   002FF6  2EE8               	decfsz	wreg,f,c
  3366   002FF8  D7F9               	goto	u7205
  3367   002FFA  519B               	movf	??___fltol& (0+255),w,b
  3368   002FFC  6F9F               	movwf	___fltol@sign1& (0+255),b
  3369                           
  3370                           ; BSR set to: 0
  3371   002FFE  8F99               	bsf	(___fltol@f1+2)& (0+255),7,b
  3372                           
  3373                           ; BSR set to: 0
  3374   003000  0EFF               	movlw	255
  3375   003002  1797               	andwf	___fltol@f1& (0+255),f,b
  3376   003004  0EFF               	movlw	255
  3377   003006  1798               	andwf	(___fltol@f1+1)& (0+255),f,b
  3378   003008  0EFF               	movlw	255
  3379   00300A  1799               	andwf	(___fltol@f1+2)& (0+255),f,b
  3380   00300C  0E00               	movlw	0
  3381   00300E  179A               	andwf	(___fltol@f1+3)& (0+255),f,b
  3382                           
  3383                           ; BSR set to: 0
  3384   003010  0E96               	movlw	150
  3385   003012  5FA0               	subwf	___fltol@exp1& (0+255),f,b
  3386                           
  3387                           ; BSR set to: 0
  3388   003014  AFA0               	btfss	___fltol@exp1& (0+255),7,b
  3389   003016  D00D               	goto	l7823
  3390                           
  3391                           ; BSR set to: 0
  3392   003018  51A0               	movf	___fltol@exp1& (0+255),w,b
  3393   00301A  0A80               	xorlw	128
  3394   00301C  0F97               	addlw	151
  3395   00301E  A0D8               	btfss	status,0,c
  3396   003020  D7D2               	goto	u7190
  3397   003022                     l7819:
  3398                           
  3399                           ; BSR set to: 0
  3400   003022  90D8               	bcf	status,0,c
  3401   003024  339A               	rrcf	(___fltol@f1+3)& (0+255),f,b
  3402   003026  3399               	rrcf	(___fltol@f1+2)& (0+255),f,b
  3403   003028  3398               	rrcf	(___fltol@f1+1)& (0+255),f,b
  3404   00302A  3397               	rrcf	___fltol@f1& (0+255),f,b
  3405                           
  3406                           ; BSR set to: 0
  3407   00302C  3FA0               	incfsz	___fltol@exp1& (0+255),f,b
  3408   00302E  D7F9               	goto	l7819
  3409   003030  D00D               	goto	u7240
  3410   003032                     l7823:
  3411                           
  3412                           ; BSR set to: 0
  3413   003032  0E1F               	movlw	31
  3414   003034  65A0               	cpfsgt	___fltol@exp1& (0+255),b
  3415   003036  D007               	goto	l7831
  3416   003038  D7C6               	goto	u7190
  3417   00303A                     l7829:
  3418                           
  3419                           ; BSR set to: 0
  3420   00303A  90D8               	bcf	status,0,c
  3421   00303C  3797               	rlcf	___fltol@f1& (0+255),f,b
  3422   00303E  3798               	rlcf	(___fltol@f1+1)& (0+255),f,b
  3423   003040  3799               	rlcf	(___fltol@f1+2)& (0+255),f,b
  3424   003042  379A               	rlcf	(___fltol@f1+3)& (0+255),f,b
  3425   003044  07A0               	decf	___fltol@exp1& (0+255),f,b
  3426   003046                     l7831:
  3427                           
  3428                           ; BSR set to: 0
  3429   003046  51A0               	movf	___fltol@exp1& (0+255),w,b
  3430   003048  A4D8               	btfss	status,2,c
  3431   00304A  D7F7               	goto	l7829
  3432   00304C                     u7240:
  3433                           
  3434                           ; BSR set to: 0
  3435   00304C  519F               	movf	___fltol@sign1& (0+255),w,b
  3436   00304E  B4D8               	btfsc	status,2,c
  3437   003050  D008               	goto	l7837
  3438                           
  3439                           ; BSR set to: 0
  3440   003052  1F9A               	comf	(___fltol@f1+3)& (0+255),f,b
  3441   003054  1F99               	comf	(___fltol@f1+2)& (0+255),f,b
  3442   003056  1F98               	comf	(___fltol@f1+1)& (0+255),f,b
  3443   003058  6D97               	negf	___fltol@f1& (0+255),b
  3444   00305A  0E00               	movlw	0
  3445   00305C  2398               	addwfc	(___fltol@f1+1)& (0+255),f,b
  3446   00305E  2399               	addwfc	(___fltol@f1+2)& (0+255),f,b
  3447   003060  239A               	addwfc	(___fltol@f1+3)& (0+255),f,b
  3448   003062                     l7837:
  3449                           
  3450                           ; BSR set to: 0
  3451   003062  C097  F097         	movff	___fltol@f1,?___fltol
  3452   003066  C098  F098         	movff	___fltol@f1+1,?___fltol+1
  3453   00306A  C099  F099         	movff	___fltol@f1+2,?___fltol+2
  3454   00306E  C09A  F09A         	movff	___fltol@f1+3,?___fltol+3
  3455                           
  3456                           ; BSR set to: 0
  3457   003072  0012               	return		;funcret
  3458   003074                     __end_of___fltol:
  3459                           	callstack 0
  3460                           
  3461 ;; *************** function ___flmul *****************
  3462 ;; Defined at:
  3463 ;;		line 8 in file "C:\Program Files\Microchip\xc8\v2.41\pic\sources\c99\common\sprcmul.c"
  3464 ;; Parameters:    Size  Location     Type
  3465 ;;  b               4   14[BANK0 ] long 
  3466 ;;  a               4   18[BANK0 ] long 
  3467 ;; Auto vars:     Size  Location     Type
  3468 ;;  prod            4   33[BANK0 ] struct .
  3469 ;;  grs             4   27[BANK0 ] unsigned long 
  3470 ;;  temp            2   37[BANK0 ] struct .
  3471 ;;  bexp            1   32[BANK0 ] unsigned char 
  3472 ;;  aexp            1   31[BANK0 ] unsigned char 
  3473 ;;  sign            1   26[BANK0 ] unsigned char 
  3474 ;; Return value:  Size  Location     Type
  3475 ;;                  4   14[BANK0 ] unsigned char 
  3476 ;; Registers used:
  3477 ;;		wreg, status,2, status,0, prodl, prodh
  3478 ;; Tracked objects:
  3479 ;;		On entry : 0/0
  3480 ;;		On exit  : 0/0
  3481 ;;		Unchanged: 0/0
  3482 ;; Data sizes:     COMRAM   BANK0   BANK1   BANK2   BANK3   BANK4   BANK5   BANK6   BANK7   BANK8   BANK9  BANK10  BANK1
      +1  BANK12  BANK13  BANK14
  3483 ;;      Params:         0       8       0       0       0       0       0       0       0       0       0       0       
      +0       0       0       0
  3484 ;;      Locals:         0      13       0       0       0       0       0       0       0       0       0       0       
      +0       0       0       0
  3485 ;;      Temps:          0       4       0       0       0       0       0       0       0       0       0       0       
      +0       0       0       0
  3486 ;;      Totals:         0      25       0       0       0       0       0       0       0       0       0       0       
      +0       0       0       0
  3487 ;;Total ram usage:       25 bytes
  3488 ;; Hardware stack levels used: 1
  3489 ;; Hardware stack levels required when called: 5
  3490 ;; This function calls:
  3491 ;;		Nothing
  3492 ;; This function is called by:
  3493 ;;		_main
  3494 ;;		_VL53L0X_SetSignalRateLimit
  3495 ;; This function uses a non-reentrant model
  3496 ;;
  3497                           
  3498                           	psect	text9
  3499   0018BA                     __ptext9:
  3500                           	callstack 0
  3501   0018BA                     ___flmul:
  3502                           	callstack 25
  3503                           
  3504                           ; BSR set to: 0
  3505                           ;incstack = 0
  3506   0018BA  0100               	movlb	0	; () banked
  3507   0018BC  5171               	movf	(___flmul@b+3)& (0+255),w,b
  3508   0018BE  0B80               	andlw	128
  3509   0018C0  6F7A               	movwf	___flmul@sign& (0+255),b
  3510   0018C2  5171               	movf	(___flmul@b+3)& (0+255),w,b
  3511   0018C4  2571               	addwf	(___flmul@b+3)& (0+255),w,b
  3512   0018C6  6F80               	movwf	___flmul@bexp& (0+255),b
  3513                           
  3514                           ; BSR set to: 0
  3515   0018C8  BF70               	btfsc	(___flmul@b+2)& (0+255),7,b
  3516                           
  3517                           ; BSR set to: 0
  3518   0018CA  8180               	bsf	___flmul@bexp& (0+255),0,b
  3519                           
  3520                           ; BSR set to: 0
  3521   0018CC  5180               	movf	___flmul@bexp& (0+255),w,b
  3522   0018CE  B4D8               	btfsc	status,2,c
  3523   0018D0  D00D               	goto	l7681
  3524                           
  3525                           ; BSR set to: 0
  3526   0018D2  2980               	incf	___flmul@bexp& (0+255),w,b
  3527   0018D4  A4D8               	btfss	status,2,c
  3528   0018D6  D008               	goto	l7679
  3529                           
  3530                           ; BSR set to: 0
  3531   0018D8  0E00               	movlw	0
  3532   0018DA  6F6E               	movwf	___flmul@b& (0+255),b
  3533   0018DC  0E00               	movlw	0
  3534   0018DE  6F6F               	movwf	(___flmul@b+1)& (0+255),b
  3535   0018E0  0E00               	movlw	0
  3536   0018E2  6F70               	movwf	(___flmul@b+2)& (0+255),b
  3537   0018E4  0E00               	movlw	0
  3538   0018E6  6F71               	movwf	(___flmul@b+3)& (0+255),b
  3539   0018E8                     l7679:
  3540                           
  3541                           ; BSR set to: 0
  3542   0018E8  8F70               	bsf	(___flmul@b+2)& (0+255),7,b
  3543   0018EA  D008               	goto	l7683
  3544   0018EC                     l7681:
  3545                           
  3546                           ; BSR set to: 0
  3547   0018EC  0E00               	movlw	0
  3548   0018EE  6F6E               	movwf	___flmul@b& (0+255),b
  3549   0018F0  0E00               	movlw	0
  3550   0018F2  6F6F               	movwf	(___flmul@b+1)& (0+255),b
  3551   0018F4  0E00               	movlw	0
  3552   0018F6  6F70               	movwf	(___flmul@b+2)& (0+255),b
  3553   0018F8  0E00               	movlw	0
  3554   0018FA  6F71               	movwf	(___flmul@b+3)& (0+255),b
  3555   0018FC                     l7683:
  3556                           
  3557                           ; BSR set to: 0
  3558   0018FC  5175               	movf	(___flmul@a+3)& (0+255),w,b
  3559   0018FE  0B80               	andlw	128
  3560   001900  1B7A               	xorwf	___flmul@sign& (0+255),f,b
  3561                           
  3562                           ; BSR set to: 0
  3563   001902  5175               	movf	(___flmul@a+3)& (0+255),w,b
  3564   001904  2575               	addwf	(___flmul@a+3)& (0+255),w,b
  3565   001906  6F7F               	movwf	___flmul@aexp& (0+255),b
  3566                           
  3567                           ; BSR set to: 0
  3568   001908  BF74               	btfsc	(___flmul@a+2)& (0+255),7,b
  3569                           
  3570                           ; BSR set to: 0
  3571   00190A  817F               	bsf	___flmul@aexp& (0+255),0,b
  3572                           
  3573                           ; BSR set to: 0
  3574   00190C  517F               	movf	___flmul@aexp& (0+255),w,b
  3575   00190E  B4D8               	btfsc	status,2,c
  3576   001910  D00D               	goto	l7699
  3577                           
  3578                           ; BSR set to: 0
  3579   001912  297F               	incf	___flmul@aexp& (0+255),w,b
  3580   001914  A4D8               	btfss	status,2,c
  3581   001916  D008               	goto	l7697
  3582                           
  3583                           ; BSR set to: 0
  3584   001918  0E00               	movlw	0
  3585   00191A  6F72               	movwf	___flmul@a& (0+255),b
  3586   00191C  0E00               	movlw	0
  3587   00191E  6F73               	movwf	(___flmul@a+1)& (0+255),b
  3588   001920  0E00               	movlw	0
  3589   001922  6F74               	movwf	(___flmul@a+2)& (0+255),b
  3590   001924  0E00               	movlw	0
  3591   001926  6F75               	movwf	(___flmul@a+3)& (0+255),b
  3592   001928                     l7697:
  3593                           
  3594                           ; BSR set to: 0
  3595   001928  8F74               	bsf	(___flmul@a+2)& (0+255),7,b
  3596   00192A  D008               	goto	l2468
  3597   00192C                     l7699:
  3598                           
  3599                           ; BSR set to: 0
  3600   00192C  0E00               	movlw	0
  3601   00192E  6F72               	movwf	___flmul@a& (0+255),b
  3602   001930  0E00               	movlw	0
  3603   001932  6F73               	movwf	(___flmul@a+1)& (0+255),b
  3604   001934  0E00               	movlw	0
  3605   001936  6F74               	movwf	(___flmul@a+2)& (0+255),b
  3606   001938  0E00               	movlw	0
  3607   00193A  6F75               	movwf	(___flmul@a+3)& (0+255),b
  3608   00193C                     l2468:
  3609                           
  3610                           ; BSR set to: 0
  3611   00193C  517F               	movf	___flmul@aexp& (0+255),w,b
  3612   00193E  B4D8               	btfsc	status,2,c
  3613   001940  D003               	goto	u7070
  3614                           
  3615                           ; BSR set to: 0
  3616   001942  5180               	movf	___flmul@bexp& (0+255),w,b
  3617   001944  A4D8               	btfss	status,2,c
  3618   001946  D009               	goto	l7707
  3619   001948                     u7070:
  3620                           
  3621                           ; BSR set to: 0
  3622   001948  0E00               	movlw	0
  3623   00194A  6F6E               	movwf	?___flmul& (0+255),b
  3624   00194C  0E00               	movlw	0
  3625   00194E  6F6F               	movwf	(?___flmul+1)& (0+255),b
  3626   001950  0E00               	movlw	0
  3627   001952  6F70               	movwf	(?___flmul+2)& (0+255),b
  3628   001954  0E00               	movlw	0
  3629   001956  6F71               	movwf	(?___flmul+3)& (0+255),b
  3630   001958  0012               	return	
  3631   00195A                     l7707:
  3632                           
  3633                           ; BSR set to: 0
  3634   00195A  5174               	movf	(___flmul@a+2)& (0+255),w,b
  3635   00195C  036E               	mulwf	___flmul@b& (0+255),b
  3636   00195E  CFF3 F085          	movff	prodl,___flmul@temp
  3637   001962  CFF4 F086          	movff	prodh,___flmul@temp+1
  3638                           
  3639                           ; BSR set to: 0
  3640   001966  5185               	movf	___flmul@temp& (0+255),w,b
  3641   001968  6F7B               	movwf	___flmul@grs& (0+255),b
  3642   00196A  6B7C               	clrf	(___flmul@grs+1)& (0+255),b
  3643   00196C  6B7D               	clrf	(___flmul@grs+2)& (0+255),b
  3644   00196E  6B7E               	clrf	(___flmul@grs+3)& (0+255),b
  3645                           
  3646                           ; BSR set to: 0
  3647   001970  5186               	movf	(___flmul@temp+1)& (0+255),w,b
  3648   001972  6F81               	movwf	___flmul@prod& (0+255),b
  3649   001974  6B82               	clrf	(___flmul@prod+1)& (0+255),b
  3650   001976  6B83               	clrf	(___flmul@prod+2)& (0+255),b
  3651   001978  6B84               	clrf	(___flmul@prod+3)& (0+255),b
  3652   00197A  5173               	movf	(___flmul@a+1)& (0+255),w,b
  3653   00197C  036F               	mulwf	(___flmul@b+1)& (0+255),b
  3654   00197E  CFF3 F085          	movff	prodl,___flmul@temp
  3655   001982  CFF4 F086          	movff	prodh,___flmul@temp+1
  3656                           
  3657                           ; BSR set to: 0
  3658   001986  5185               	movf	___flmul@temp& (0+255),w,b
  3659   001988  277B               	addwf	___flmul@grs& (0+255),f,b
  3660   00198A  0E00               	movlw	0
  3661   00198C  237C               	addwfc	(___flmul@grs+1)& (0+255),f,b
  3662   00198E  237D               	addwfc	(___flmul@grs+2)& (0+255),f,b
  3663   001990  237E               	addwfc	(___flmul@grs+3)& (0+255),f,b
  3664                           
  3665                           ; BSR set to: 0
  3666   001992  5186               	movf	(___flmul@temp+1)& (0+255),w,b
  3667   001994  2781               	addwf	___flmul@prod& (0+255),f,b
  3668   001996  0E00               	movlw	0
  3669   001998  2382               	addwfc	(___flmul@prod+1)& (0+255),f,b
  3670   00199A  2383               	addwfc	(___flmul@prod+2)& (0+255),f,b
  3671   00199C  2384               	addwfc	(___flmul@prod+3)& (0+255),f,b
  3672   00199E  5172               	movf	___flmul@a& (0+255),w,b
  3673   0019A0  0370               	mulwf	(___flmul@b+2)& (0+255),b
  3674   0019A2  CFF3 F085          	movff	prodl,___flmul@temp
  3675   0019A6  CFF4 F086          	movff	prodh,___flmul@temp+1
  3676                           
  3677                           ; BSR set to: 0
  3678   0019AA  5185               	movf	___flmul@temp& (0+255),w,b
  3679   0019AC  277B               	addwf	___flmul@grs& (0+255),f,b
  3680   0019AE  0E00               	movlw	0
  3681   0019B0  237C               	addwfc	(___flmul@grs+1)& (0+255),f,b
  3682   0019B2  237D               	addwfc	(___flmul@grs+2)& (0+255),f,b
  3683   0019B4  237E               	addwfc	(___flmul@grs+3)& (0+255),f,b
  3684                           
  3685                           ; BSR set to: 0
  3686   0019B6  5186               	movf	(___flmul@temp+1)& (0+255),w,b
  3687   0019B8  2781               	addwf	___flmul@prod& (0+255),f,b
  3688   0019BA  0E00               	movlw	0
  3689   0019BC  2382               	addwfc	(___flmul@prod+1)& (0+255),f,b
  3690   0019BE  2383               	addwfc	(___flmul@prod+2)& (0+255),f,b
  3691   0019C0  2384               	addwfc	(___flmul@prod+3)& (0+255),f,b
  3692                           
  3693                           ; BSR set to: 0
  3694   0019C2  C07D  F07E         	movff	___flmul@grs+2,___flmul@grs+3
  3695   0019C6  C07C  F07D         	movff	___flmul@grs+1,___flmul@grs+2
  3696   0019CA  C07B  F07C         	movff	___flmul@grs,___flmul@grs+1
  3697   0019CE  6B7B               	clrf	___flmul@grs& (0+255),b
  3698                           
  3699                           ; BSR set to: 0
  3700   0019D0  5172               	movf	___flmul@a& (0+255),w,b
  3701   0019D2  036F               	mulwf	(___flmul@b+1)& (0+255),b
  3702   0019D4  CFF3 F085          	movff	prodl,___flmul@temp
  3703   0019D8  CFF4 F086          	movff	prodh,___flmul@temp+1
  3704                           
  3705                           ; BSR set to: 0
  3706   0019DC  5185               	movf	___flmul@temp& (0+255),w,b
  3707   0019DE  277B               	addwf	___flmul@grs& (0+255),f,b
  3708   0019E0  5186               	movf	(___flmul@temp+1)& (0+255),w,b
  3709   0019E2  237C               	addwfc	(___flmul@grs+1)& (0+255),f,b
  3710   0019E4  0E00               	movlw	0
  3711   0019E6  237D               	addwfc	(___flmul@grs+2)& (0+255),f,b
  3712   0019E8  0E00               	movlw	0
  3713   0019EA  237E               	addwfc	(___flmul@grs+3)& (0+255),f,b
  3714                           
  3715                           ; BSR set to: 0
  3716   0019EC  5173               	movf	(___flmul@a+1)& (0+255),w,b
  3717   0019EE  036E               	mulwf	___flmul@b& (0+255),b
  3718   0019F0  CFF3 F085          	movff	prodl,___flmul@temp
  3719   0019F4  CFF4 F086          	movff	prodh,___flmul@temp+1
  3720                           
  3721                           ; BSR set to: 0
  3722   0019F8  5185               	movf	___flmul@temp& (0+255),w,b
  3723   0019FA  277B               	addwf	___flmul@grs& (0+255),f,b
  3724   0019FC  5186               	movf	(___flmul@temp+1)& (0+255),w,b
  3725   0019FE  237C               	addwfc	(___flmul@grs+1)& (0+255),f,b
  3726   001A00  0E00               	movlw	0
  3727   001A02  237D               	addwfc	(___flmul@grs+2)& (0+255),f,b
  3728   001A04  0E00               	movlw	0
  3729   001A06  237E               	addwfc	(___flmul@grs+3)& (0+255),f,b
  3730                           
  3731                           ; BSR set to: 0
  3732   001A08  C07D  F07E         	movff	___flmul@grs+2,___flmul@grs+3
  3733   001A0C  C07C  F07D         	movff	___flmul@grs+1,___flmul@grs+2
  3734   001A10  C07B  F07C         	movff	___flmul@grs,___flmul@grs+1
  3735   001A14  6B7B               	clrf	___flmul@grs& (0+255),b
  3736   001A16  5172               	movf	___flmul@a& (0+255),w,b
  3737   001A18  036E               	mulwf	___flmul@b& (0+255),b
  3738   001A1A  CFF3 F085          	movff	prodl,___flmul@temp
  3739   001A1E  CFF4 F086          	movff	prodh,___flmul@temp+1
  3740                           
  3741                           ; BSR set to: 0
  3742   001A22  5185               	movf	___flmul@temp& (0+255),w,b
  3743   001A24  277B               	addwf	___flmul@grs& (0+255),f,b
  3744   001A26  5186               	movf	(___flmul@temp+1)& (0+255),w,b
  3745   001A28  237C               	addwfc	(___flmul@grs+1)& (0+255),f,b
  3746   001A2A  0E00               	movlw	0
  3747   001A2C  237D               	addwfc	(___flmul@grs+2)& (0+255),f,b
  3748   001A2E  0E00               	movlw	0
  3749   001A30  237E               	addwfc	(___flmul@grs+3)& (0+255),f,b
  3750                           
  3751                           ; BSR set to: 0
  3752   001A32  5174               	movf	(___flmul@a+2)& (0+255),w,b
  3753   001A34  036F               	mulwf	(___flmul@b+1)& (0+255),b
  3754   001A36  CFF3 F085          	movff	prodl,___flmul@temp
  3755   001A3A  CFF4 F086          	movff	prodh,___flmul@temp+1
  3756   001A3E  5185               	movf	___flmul@temp& (0+255),w,b
  3757   001A40  2781               	addwf	___flmul@prod& (0+255),f,b
  3758   001A42  5186               	movf	(___flmul@temp+1)& (0+255),w,b
  3759   001A44  2382               	addwfc	(___flmul@prod+1)& (0+255),f,b
  3760   001A46  0E00               	movlw	0
  3761   001A48  2383               	addwfc	(___flmul@prod+2)& (0+255),f,b
  3762   001A4A  0E00               	movlw	0
  3763   001A4C  2384               	addwfc	(___flmul@prod+3)& (0+255),f,b
  3764                           
  3765                           ; BSR set to: 0
  3766   001A4E  5173               	movf	(___flmul@a+1)& (0+255),w,b
  3767   001A50  0370               	mulwf	(___flmul@b+2)& (0+255),b
  3768   001A52  CFF3 F085          	movff	prodl,___flmul@temp
  3769   001A56  CFF4 F086          	movff	prodh,___flmul@temp+1
  3770                           
  3771                           ; BSR set to: 0
  3772   001A5A  5185               	movf	___flmul@temp& (0+255),w,b
  3773   001A5C  2781               	addwf	___flmul@prod& (0+255),f,b
  3774   001A5E  5186               	movf	(___flmul@temp+1)& (0+255),w,b
  3775   001A60  2382               	addwfc	(___flmul@prod+1)& (0+255),f,b
  3776   001A62  0E00               	movlw	0
  3777   001A64  2383               	addwfc	(___flmul@prod+2)& (0+255),f,b
  3778   001A66  0E00               	movlw	0
  3779   001A68  2384               	addwfc	(___flmul@prod+3)& (0+255),f,b
  3780   001A6A  5174               	movf	(___flmul@a+2)& (0+255),w,b
  3781   001A6C  0370               	mulwf	(___flmul@b+2)& (0+255),b
  3782   001A6E  CFF3 F085          	movff	prodl,___flmul@temp
  3783   001A72  CFF4 F086          	movff	prodh,___flmul@temp+1
  3784                           
  3785                           ; BSR set to: 0
  3786   001A76  5185               	movf	___flmul@temp& (0+255),w,b
  3787   001A78  6F76               	movwf	??___flmul& (0+255),b
  3788   001A7A  5186               	movf	(___flmul@temp+1)& (0+255),w,b
  3789   001A7C  6F77               	movwf	(??___flmul+1)& (0+255),b
  3790   001A7E  6B78               	clrf	(??___flmul+2)& (0+255),b
  3791   001A80  6B79               	clrf	(??___flmul+3)& (0+255),b
  3792   001A82  C078  F079         	movff	??___flmul+2,??___flmul+3
  3793   001A86  C077  F078         	movff	??___flmul+1,??___flmul+2
  3794   001A8A  C076  F077         	movff	??___flmul,??___flmul+1
  3795   001A8E  6B76               	clrf	??___flmul& (0+255),b
  3796   001A90  5176               	movf	??___flmul& (0+255),w,b
  3797   001A92  2781               	addwf	___flmul@prod& (0+255),f,b
  3798   001A94  5177               	movf	(??___flmul+1)& (0+255),w,b
  3799   001A96  2382               	addwfc	(___flmul@prod+1)& (0+255),f,b
  3800   001A98  5178               	movf	(??___flmul+2)& (0+255),w,b
  3801   001A9A  2383               	addwfc	(___flmul@prod+2)& (0+255),f,b
  3802   001A9C  5179               	movf	(??___flmul+3)& (0+255),w,b
  3803   001A9E  2384               	addwfc	(___flmul@prod+3)& (0+255),f,b
  3804                           
  3805                           ; BSR set to: 0
  3806   001AA0  C07B  F076         	movff	___flmul@grs,??___flmul
  3807   001AA4  C07C  F077         	movff	___flmul@grs+1,??___flmul+1
  3808   001AA8  C07D  F078         	movff	___flmul@grs+2,??___flmul+2
  3809   001AAC  C07E  F079         	movff	___flmul@grs+3,??___flmul+3
  3810   001AB0  0E19               	movlw	25
  3811   001AB2  D005               	goto	u7080
  3812   001AB4                     u7085:
  3813   001AB4  90D8               	bcf	status,0,c
  3814   001AB6  3379               	rrcf	(??___flmul+3)& (0+255),f,b
  3815   001AB8  3378               	rrcf	(??___flmul+2)& (0+255),f,b
  3816   001ABA  3377               	rrcf	(??___flmul+1)& (0+255),f,b
  3817   001ABC  3376               	rrcf	??___flmul& (0+255),f,b
  3818   001ABE                     u7080:
  3819   001ABE  2EE8               	decfsz	wreg,f,c
  3820   001AC0  D7F9               	goto	u7085
  3821   001AC2  5176               	movf	??___flmul& (0+255),w,b
  3822   001AC4  2781               	addwf	___flmul@prod& (0+255),f,b
  3823   001AC6  5177               	movf	(??___flmul+1)& (0+255),w,b
  3824   001AC8  2382               	addwfc	(___flmul@prod+1)& (0+255),f,b
  3825   001ACA  5178               	movf	(??___flmul+2)& (0+255),w,b
  3826   001ACC  2383               	addwfc	(___flmul@prod+2)& (0+255),f,b
  3827   001ACE  5179               	movf	(??___flmul+3)& (0+255),w,b
  3828   001AD0  2384               	addwfc	(___flmul@prod+3)& (0+255),f,b
  3829                           
  3830                           ; BSR set to: 0
  3831   001AD2  C07D  F07E         	movff	___flmul@grs+2,___flmul@grs+3
  3832   001AD6  C07C  F07D         	movff	___flmul@grs+1,___flmul@grs+2
  3833   001ADA  C07B  F07C         	movff	___flmul@grs,___flmul@grs+1
  3834   001ADE  6B7B               	clrf	___flmul@grs& (0+255),b
  3835                           
  3836                           ; BSR set to: 0
  3837   001AE0  517F               	movf	___flmul@aexp& (0+255),w,b
  3838   001AE2  C080  F076         	movff	___flmul@bexp,??___flmul
  3839   001AE6  6B77               	clrf	(??___flmul+1)& (0+255),b
  3840   001AE8  2776               	addwf	??___flmul& (0+255),f,b
  3841   001AEA  0E00               	movlw	0
  3842   001AEC  2377               	addwfc	(??___flmul+1)& (0+255),f,b
  3843   001AEE  0E82               	movlw	130
  3844   001AF0  2576               	addwf	??___flmul& (0+255),w,b
  3845   001AF2  6F85               	movwf	___flmul@temp& (0+255),b
  3846   001AF4  0EFF               	movlw	255
  3847   001AF6  2177               	addwfc	(??___flmul+1)& (0+255),w,b
  3848   001AF8  6F86               	movwf	(___flmul@temp+1)& (0+255),b
  3849   001AFA  D00F               	goto	l7755
  3850   001AFC                     l7749:
  3851                           
  3852                           ; BSR set to: 0
  3853   001AFC  90D8               	bcf	status,0,c
  3854   001AFE  3781               	rlcf	___flmul@prod& (0+255),f,b
  3855   001B00  3782               	rlcf	(___flmul@prod+1)& (0+255),f,b
  3856   001B02  3783               	rlcf	(___flmul@prod+2)& (0+255),f,b
  3857   001B04  3784               	rlcf	(___flmul@prod+3)& (0+255),f,b
  3858                           
  3859                           ; BSR set to: 0
  3860   001B06  BF7E               	btfsc	(___flmul@grs+3)& (0+255),7,b
  3861                           
  3862                           ; BSR set to: 0
  3863   001B08  8181               	bsf	___flmul@prod& (0+255),0,b
  3864                           
  3865                           ; BSR set to: 0
  3866   001B0A  90D8               	bcf	status,0,c
  3867   001B0C  377B               	rlcf	___flmul@grs& (0+255),f,b
  3868   001B0E  377C               	rlcf	(___flmul@grs+1)& (0+255),f,b
  3869   001B10  377D               	rlcf	(___flmul@grs+2)& (0+255),f,b
  3870   001B12  377E               	rlcf	(___flmul@grs+3)& (0+255),f,b
  3871   001B14  0785               	decf	___flmul@temp& (0+255),f,b
  3872   001B16  A0D8               	btfss	status,0,c
  3873   001B18  0786               	decf	(___flmul@temp+1)& (0+255),f,b
  3874   001B1A                     l7755:
  3875                           
  3876                           ; BSR set to: 0
  3877   001B1A  AF83               	btfss	(___flmul@prod+2)& (0+255),7,b
  3878   001B1C  D7EF               	goto	l7749
  3879                           
  3880                           ; BSR set to: 0
  3881   001B1E  0E00               	movlw	0
  3882   001B20  6F7F               	movwf	___flmul@aexp& (0+255),b
  3883                           
  3884                           ; BSR set to: 0
  3885   001B22  AF7E               	btfss	(___flmul@grs+3)& (0+255),7,b
  3886   001B24  D017               	goto	l2477
  3887                           
  3888                           ; BSR set to: 0
  3889   001B26  0EFF               	movlw	255
  3890   001B28  157B               	andwf	___flmul@grs& (0+255),w,b
  3891   001B2A  6F76               	movwf	??___flmul& (0+255),b
  3892   001B2C  0EFF               	movlw	255
  3893   001B2E  157C               	andwf	(___flmul@grs+1)& (0+255),w,b
  3894   001B30  6F77               	movwf	(??___flmul+1)& (0+255),b
  3895   001B32  0EFF               	movlw	255
  3896   001B34  157D               	andwf	(___flmul@grs+2)& (0+255),w,b
  3897   001B36  6F78               	movwf	(??___flmul+2)& (0+255),b
  3898   001B38  0E7F               	movlw	127
  3899   001B3A  157E               	andwf	(___flmul@grs+3)& (0+255),w,b
  3900   001B3C  6F79               	movwf	(??___flmul+3)& (0+255),b
  3901   001B3E  5176               	movf	??___flmul& (0+255),w,b
  3902   001B40  1177               	iorwf	(??___flmul+1)& (0+255),w,b
  3903   001B42  1178               	iorwf	(??___flmul+2)& (0+255),w,b
  3904   001B44  1179               	iorwf	(??___flmul+3)& (0+255),w,b
  3905   001B46  B4D8               	btfsc	status,2,c
  3906   001B48  D003               	goto	l2478
  3907   001B4A                     u7120:
  3908                           
  3909                           ; BSR set to: 0
  3910   001B4A  0E01               	movlw	1
  3911   001B4C  6F7F               	movwf	___flmul@aexp& (0+255),b
  3912   001B4E  D002               	goto	l2477
  3913   001B50                     l2478:
  3914                           
  3915                           ; BSR set to: 0
  3916   001B50  B181               	btfsc	___flmul@prod& (0+255),0,b
  3917   001B52  D7FB               	goto	u7120
  3918   001B54                     l2477:
  3919                           
  3920                           ; BSR set to: 0
  3921   001B54  517F               	movf	___flmul@aexp& (0+255),w,b
  3922   001B56  B4D8               	btfsc	status,2,c
  3923   001B58  D01F               	goto	l7775
  3924                           
  3925                           ; BSR set to: 0
  3926   001B5A  0E01               	movlw	1
  3927   001B5C  2781               	addwf	___flmul@prod& (0+255),f,b
  3928   001B5E  0E00               	movlw	0
  3929   001B60  2382               	addwfc	(___flmul@prod+1)& (0+255),f,b
  3930   001B62  2383               	addwfc	(___flmul@prod+2)& (0+255),f,b
  3931   001B64  2384               	addwfc	(___flmul@prod+3)& (0+255),f,b
  3932                           
  3933                           ; BSR set to: 0
  3934   001B66  A184               	btfss	(___flmul@prod+3)& (0+255),0,b
  3935   001B68  D017               	goto	l7775
  3936                           
  3937                           ; BSR set to: 0
  3938   001B6A  C081  F076         	movff	___flmul@prod,??___flmul
  3939   001B6E  C082  F077         	movff	___flmul@prod+1,??___flmul+1
  3940   001B72  C083  F078         	movff	___flmul@prod+2,??___flmul+2
  3941   001B76  C084  F079         	movff	___flmul@prod+3,??___flmul+3
  3942   001B7A  3579               	rlcf	(??___flmul+3)& (0+255),w,b
  3943   001B7C  3379               	rrcf	(??___flmul+3)& (0+255),f,b
  3944   001B7E  3378               	rrcf	(??___flmul+2)& (0+255),f,b
  3945   001B80  3377               	rrcf	(??___flmul+1)& (0+255),f,b
  3946   001B82  3376               	rrcf	??___flmul& (0+255),f,b
  3947   001B84  C076  F081         	movff	??___flmul,___flmul@prod
  3948   001B88  C077  F082         	movff	??___flmul+1,___flmul@prod+1
  3949   001B8C  C078  F083         	movff	??___flmul+2,___flmul@prod+2
  3950   001B90  C079  F084         	movff	??___flmul+3,___flmul@prod+3
  3951                           
  3952                           ; BSR set to: 0
  3953   001B94  4B85               	infsnz	___flmul@temp& (0+255),f,b
  3954   001B96  2B86               	incf	(___flmul@temp+1)& (0+255),f,b
  3955   001B98                     l7775:
  3956                           
  3957                           ; BSR set to: 0
  3958   001B98  BF86               	btfsc	(___flmul@temp+1)& (0+255),7,b
  3959   001B9A  D00D               	goto	l7779
  3960   001B9C  5186               	movf	(___flmul@temp+1)& (0+255),w,b
  3961   001B9E  E103               	bnz	u7160
  3962   001BA0  2985               	incf	___flmul@temp& (0+255),w,b
  3963   001BA2  A0D8               	btfss	status,0,c
  3964   001BA4  D008               	goto	l7779
  3965   001BA6                     u7160:
  3966                           
  3967                           ; BSR set to: 0
  3968   001BA6  0E00               	movlw	0
  3969   001BA8  6F81               	movwf	___flmul@prod& (0+255),b
  3970   001BAA  0E00               	movlw	0
  3971   001BAC  6F82               	movwf	(___flmul@prod+1)& (0+255),b
  3972   001BAE  0E80               	movlw	128
  3973   001BB0  6F83               	movwf	(___flmul@prod+2)& (0+255),b
  3974   001BB2  0E7F               	movlw	127
  3975   001BB4  D020               	goto	L3
  3976   001BB6                     l7779:
  3977                           
  3978                           ; BSR set to: 0
  3979   001BB6  BF86               	btfsc	(___flmul@temp+1)& (0+255),7,b
  3980   001BB8  D005               	goto	u7170
  3981   001BBA  5186               	movf	(___flmul@temp+1)& (0+255),w,b
  3982   001BBC  E10E               	bnz	l2485
  3983   001BBE  0585               	decf	___flmul@temp& (0+255),w,b
  3984   001BC0  B0D8               	btfsc	status,0,c
  3985   001BC2  D00B               	goto	l2485
  3986   001BC4                     u7170:
  3987                           
  3988                           ; BSR set to: 0
  3989   001BC4  0E00               	movlw	0
  3990   001BC6  6F81               	movwf	___flmul@prod& (0+255),b
  3991   001BC8  0E00               	movlw	0
  3992   001BCA  6F82               	movwf	(___flmul@prod+1)& (0+255),b
  3993   001BCC  0E00               	movlw	0
  3994   001BCE  6F83               	movwf	(___flmul@prod+2)& (0+255),b
  3995   001BD0  0E00               	movlw	0
  3996   001BD2  6F84               	movwf	(___flmul@prod+3)& (0+255),b
  3997   001BD4  0E00               	movlw	0
  3998   001BD6  6F7A               	movwf	___flmul@sign& (0+255),b
  3999   001BD8  D00F               	goto	l7791
  4000   001BDA                     l2485:
  4001                           
  4002                           ; BSR set to: 0
  4003   001BDA  C085  F080         	movff	___flmul@temp,___flmul@bexp
  4004                           
  4005                           ; BSR set to: 0
  4006   001BDE  0EFF               	movlw	255
  4007   001BE0  1781               	andwf	___flmul@prod& (0+255),f,b
  4008   001BE2  0EFF               	movlw	255
  4009   001BE4  1782               	andwf	(___flmul@prod+1)& (0+255),f,b
  4010   001BE6  0E7F               	movlw	127
  4011   001BE8  1783               	andwf	(___flmul@prod+2)& (0+255),f,b
  4012   001BEA  0E00               	movlw	0
  4013   001BEC  1784               	andwf	(___flmul@prod+3)& (0+255),f,b
  4014                           
  4015                           ; BSR set to: 0
  4016   001BEE  B180               	btfsc	___flmul@bexp& (0+255),0,b
  4017                           
  4018                           ; BSR set to: 0
  4019   001BF0  8F83               	bsf	(___flmul@prod+2)& (0+255),7,b
  4020                           
  4021                           ; BSR set to: 0
  4022   001BF2  90D8               	bcf	status,0,c
  4023   001BF4  3180               	rrcf	___flmul@bexp& (0+255),w,b
  4024   001BF6                     L3:
  4025   001BF6  6F84               	movwf	(___flmul@prod+3)& (0+255),b
  4026   001BF8                     l7791:
  4027                           
  4028                           ; BSR set to: 0
  4029   001BF8  517A               	movf	___flmul@sign& (0+255),w,b
  4030   001BFA  1384               	iorwf	(___flmul@prod+3)& (0+255),f,b
  4031                           
  4032                           ; BSR set to: 0
  4033   001BFC  C081  F06E         	movff	___flmul@prod,?___flmul
  4034   001C00  C082  F06F         	movff	___flmul@prod+1,?___flmul+1
  4035   001C04  C083  F070         	movff	___flmul@prod+2,?___flmul+2
  4036   001C08  C084  F071         	movff	___flmul@prod+3,?___flmul+3
  4037                           
  4038                           ; BSR set to: 0
  4039   001C0C  0012               	return		;funcret
  4040   001C0E                     __end_of___flmul:
  4041                           	callstack 0
  4042                           
  4043 ;; *************** function ___fladd *****************
  4044 ;; Defined at:
  4045 ;;		line 10 in file "C:\Program Files\Microchip\xc8\v2.41\pic\sources\c99\common\sprcadd.c"
  4046 ;; Parameters:    Size  Location     Type
  4047 ;;  b               4   39[BANK0 ] unsigned char 
  4048 ;;  a               4   43[BANK0 ] unsigned char 
  4049 ;; Auto vars:     Size  Location     Type
  4050 ;;  grs             1   54[BANK0 ] unsigned char 
  4051 ;;  bexp            1   53[BANK0 ] unsigned char 
  4052 ;;  aexp            1   52[BANK0 ] unsigned char 
  4053 ;;  signs           1   51[BANK0 ] unsigned char 
  4054 ;; Return value:  Size  Location     Type
  4055 ;;                  4   39[BANK0 ] unsigned char 
  4056 ;; Registers used:
  4057 ;;		wreg, status,2, status,0
  4058 ;; Tracked objects:
  4059 ;;		On entry : 0/0
  4060 ;;		On exit  : 0/0
  4061 ;;		Unchanged: 0/0
  4062 ;; Data sizes:     COMRAM   BANK0   BANK1   BANK2   BANK3   BANK4   BANK5   BANK6   BANK7   BANK8   BANK9  BANK10  BANK1
      +1  BANK12  BANK13  BANK14
  4063 ;;      Params:         0       8       0       0       0       0       0       0       0       0       0       0       
      +0       0       0       0
  4064 ;;      Locals:         0       4       0       0       0       0       0       0       0       0       0       0       
      +0       0       0       0
  4065 ;;      Temps:          0       4       0       0       0       0       0       0       0       0       0       0       
      +0       0       0       0
  4066 ;;      Totals:         0      16       0       0       0       0       0       0       0       0       0       0       
      +0       0       0       0
  4067 ;;Total ram usage:       16 bytes
  4068 ;; Hardware stack levels used: 1
  4069 ;; Hardware stack levels required when called: 5
  4070 ;; This function calls:
  4071 ;;		Nothing
  4072 ;; This function is called by:
  4073 ;;		_main
  4074 ;; This function uses a non-reentrant model
  4075 ;;
  4076                           
  4077                           	psect	text10
  4078   001F60                     __ptext10:
  4079                           	callstack 0
  4080   001F60                     ___fladd:
  4081                           	callstack 25
  4082                           
  4083                           ; BSR set to: 0
  4084                           ;incstack = 0
  4085   001F60  0100               	movlb	0	; () banked
  4086   001F62  518A               	movf	(___fladd@b+3)& (0+255),w,b
  4087   001F64  0B80               	andlw	128
  4088   001F66  6F93               	movwf	___fladd@signs& (0+255),b
  4089   001F68  518A               	movf	(___fladd@b+3)& (0+255),w,b
  4090   001F6A  258A               	addwf	(___fladd@b+3)& (0+255),w,b
  4091   001F6C  6F95               	movwf	___fladd@bexp& (0+255),b
  4092                           
  4093                           ; BSR set to: 0
  4094   001F6E  BF89               	btfsc	(___fladd@b+2)& (0+255),7,b
  4095                           
  4096                           ; BSR set to: 0
  4097   001F70  8195               	bsf	___fladd@bexp& (0+255),0,b
  4098                           
  4099                           ; BSR set to: 0
  4100   001F72  5195               	movf	___fladd@bexp& (0+255),w,b
  4101   001F74  B4D8               	btfsc	status,2,c
  4102   001F76  D00D               	goto	l7481
  4103                           
  4104                           ; BSR set to: 0
  4105   001F78  2995               	incf	___fladd@bexp& (0+255),w,b
  4106   001F7A  A4D8               	btfss	status,2,c
  4107   001F7C  D008               	goto	l7477
  4108                           
  4109                           ; BSR set to: 0
  4110   001F7E  0E00               	movlw	0
  4111   001F80  6F87               	movwf	___fladd@b& (0+255),b
  4112   001F82  0E00               	movlw	0
  4113   001F84  6F88               	movwf	(___fladd@b+1)& (0+255),b
  4114   001F86  0E00               	movlw	0
  4115   001F88  6F89               	movwf	(___fladd@b+2)& (0+255),b
  4116   001F8A  0E00               	movlw	0
  4117   001F8C  6F8A               	movwf	(___fladd@b+3)& (0+255),b
  4118   001F8E                     l7477:
  4119                           
  4120                           ; BSR set to: 0
  4121   001F8E  8F89               	bsf	(___fladd@b+2)& (0+255),7,b
  4122   001F90  D006               	goto	L4
  4123   001F92                     l7481:
  4124                           
  4125                           ; BSR set to: 0
  4126   001F92  0E00               	movlw	0
  4127   001F94  6F87               	movwf	___fladd@b& (0+255),b
  4128   001F96  0E00               	movlw	0
  4129   001F98  6F88               	movwf	(___fladd@b+1)& (0+255),b
  4130   001F9A  0E00               	movlw	0
  4131   001F9C  6F89               	movwf	(___fladd@b+2)& (0+255),b
  4132   001F9E                     L4:
  4133   001F9E  0E00               	movlw	0
  4134   001FA0  6F8A               	movwf	(___fladd@b+3)& (0+255),b
  4135                           
  4136                           ; BSR set to: 0
  4137   001FA2  518E               	movf	(___fladd@a+3)& (0+255),w,b
  4138   001FA4  0B80               	andlw	128
  4139   001FA6  6F94               	movwf	___fladd@aexp& (0+255),b
  4140                           
  4141                           ; BSR set to: 0
  4142   001FA8  5193               	movf	___fladd@signs& (0+255),w,b
  4143   001FAA  1994               	xorwf	___fladd@aexp& (0+255),w,b
  4144   001FAC  A4D8               	btfss	status,2,c
  4145                           
  4146                           ; BSR set to: 0
  4147   001FAE  8D93               	bsf	___fladd@signs& (0+255),6,b
  4148                           
  4149                           ; BSR set to: 0
  4150   001FB0  518E               	movf	(___fladd@a+3)& (0+255),w,b
  4151   001FB2  258E               	addwf	(___fladd@a+3)& (0+255),w,b
  4152   001FB4  6F94               	movwf	___fladd@aexp& (0+255),b
  4153                           
  4154                           ; BSR set to: 0
  4155   001FB6  BF8D               	btfsc	(___fladd@a+2)& (0+255),7,b
  4156                           
  4157                           ; BSR set to: 0
  4158   001FB8  8194               	bsf	___fladd@aexp& (0+255),0,b
  4159                           
  4160                           ; BSR set to: 0
  4161   001FBA  5194               	movf	___fladd@aexp& (0+255),w,b
  4162   001FBC  B4D8               	btfsc	status,2,c
  4163   001FBE  D00D               	goto	l7505
  4164                           
  4165                           ; BSR set to: 0
  4166   001FC0  2994               	incf	___fladd@aexp& (0+255),w,b
  4167   001FC2  A4D8               	btfss	status,2,c
  4168   001FC4  D008               	goto	l7501
  4169                           
  4170                           ; BSR set to: 0
  4171   001FC6  0E00               	movlw	0
  4172   001FC8  6F8B               	movwf	___fladd@a& (0+255),b
  4173   001FCA  0E00               	movlw	0
  4174   001FCC  6F8C               	movwf	(___fladd@a+1)& (0+255),b
  4175   001FCE  0E00               	movlw	0
  4176   001FD0  6F8D               	movwf	(___fladd@a+2)& (0+255),b
  4177   001FD2  0E00               	movlw	0
  4178   001FD4  6F8E               	movwf	(___fladd@a+3)& (0+255),b
  4179   001FD6                     l7501:
  4180                           
  4181                           ; BSR set to: 0
  4182   001FD6  8F8D               	bsf	(___fladd@a+2)& (0+255),7,b
  4183   001FD8  D006               	goto	L5
  4184   001FDA                     l7505:
  4185                           
  4186                           ; BSR set to: 0
  4187   001FDA  0E00               	movlw	0
  4188   001FDC  6F8B               	movwf	___fladd@a& (0+255),b
  4189   001FDE  0E00               	movlw	0
  4190   001FE0  6F8C               	movwf	(___fladd@a+1)& (0+255),b
  4191   001FE2  0E00               	movlw	0
  4192   001FE4  6F8D               	movwf	(___fladd@a+2)& (0+255),b
  4193   001FE6                     L5:
  4194   001FE6  0E00               	movlw	0
  4195   001FE8  6F8E               	movwf	(___fladd@a+3)& (0+255),b
  4196                           
  4197                           ; BSR set to: 0
  4198   001FEA  5195               	movf	___fladd@bexp& (0+255),w,b
  4199   001FEC  5D94               	subwf	___fladd@aexp& (0+255),w,b
  4200   001FEE  B0D8               	btfsc	status,0,c
  4201   001FF0  D022               	goto	l7543
  4202                           
  4203                           ; BSR set to: 0
  4204   001FF2  AD93               	btfss	___fladd@signs& (0+255),6,b
  4205   001FF4  D002               	goto	l7513
  4206                           
  4207                           ; BSR set to: 0
  4208   001FF6  0E80               	movlw	128
  4209   001FF8  1B93               	xorwf	___fladd@signs& (0+255),f,b
  4210   001FFA                     l7513:
  4211                           
  4212                           ; BSR set to: 0
  4213   001FFA  C095  F096         	movff	___fladd@bexp,___fladd@grs
  4214                           
  4215                           ; BSR set to: 0
  4216   001FFE  C094  F095         	movff	___fladd@aexp,___fladd@bexp
  4217                           
  4218                           ; BSR set to: 0
  4219   002002  C096  F094         	movff	___fladd@grs,___fladd@aexp
  4220                           
  4221                           ; BSR set to: 0
  4222   002006  C087  F096         	movff	___fladd@b,___fladd@grs
  4223                           
  4224                           ; BSR set to: 0
  4225   00200A  C08B  F087         	movff	___fladd@a,___fladd@b
  4226                           
  4227                           ; BSR set to: 0
  4228   00200E  C096  F08B         	movff	___fladd@grs,___fladd@a
  4229                           
  4230                           ; BSR set to: 0
  4231   002012  C088  F096         	movff	___fladd@b+1,___fladd@grs
  4232                           
  4233                           ; BSR set to: 0
  4234   002016  C08C  F088         	movff	___fladd@a+1,___fladd@b+1
  4235                           
  4236                           ; BSR set to: 0
  4237   00201A  C096  F08C         	movff	___fladd@grs,___fladd@a+1
  4238                           
  4239                           ; BSR set to: 0
  4240   00201E  C089  F096         	movff	___fladd@b+2,___fladd@grs
  4241                           
  4242                           ; BSR set to: 0
  4243   002022  C08D  F089         	movff	___fladd@a+2,___fladd@b+2
  4244                           
  4245                           ; BSR set to: 0
  4246   002026  C096  F08D         	movff	___fladd@grs,___fladd@a+2
  4247                           
  4248                           ; BSR set to: 0
  4249   00202A  C08A  F096         	movff	___fladd@b+3,___fladd@grs
  4250                           
  4251                           ; BSR set to: 0
  4252   00202E  C08E  F08A         	movff	___fladd@a+3,___fladd@b+3
  4253                           
  4254                           ; BSR set to: 0
  4255   002032  C096  F08E         	movff	___fladd@grs,___fladd@a+3
  4256   002036                     l7543:
  4257                           
  4258                           ; BSR set to: 0
  4259   002036  0E00               	movlw	0
  4260   002038  6F96               	movwf	___fladd@grs& (0+255),b
  4261                           
  4262                           ; BSR set to: 0
  4263   00203A  5195               	movf	___fladd@bexp& (0+255),w,b
  4264   00203C  C094  F08F         	movff	___fladd@aexp,??___fladd
  4265   002040  6B90               	clrf	(??___fladd+1)& (0+255),b
  4266   002042  5F8F               	subwf	??___fladd& (0+255),f,b
  4267   002044  0E00               	movlw	0
  4268   002046  5B90               	subwfb	(??___fladd+1)& (0+255),f,b
  4269   002048  BF90               	btfsc	(??___fladd+1)& (0+255),7,b
  4270   00204A  D02C               	goto	l2383
  4271   00204C  5190               	movf	(??___fladd+1)& (0+255),w,b
  4272   00204E  E104               	bnz	u6700
  4273   002050  0E1A               	movlw	26
  4274   002052  5D8F               	subwf	??___fladd& (0+255),w,b
  4275   002054  A0D8               	btfss	status,0,c
  4276   002056  D026               	goto	l2383
  4277   002058                     u6700:
  4278                           
  4279                           ; BSR set to: 0
  4280   002058  5187               	movf	___fladd@b& (0+255),w,b
  4281   00205A  1188               	iorwf	(___fladd@b+1)& (0+255),w,b
  4282   00205C  1189               	iorwf	(___fladd@b+2)& (0+255),w,b
  4283   00205E  118A               	iorwf	(___fladd@b+3)& (0+255),w,b
  4284   002060  B4D8               	btfsc	status,2,c
  4285   002062  D002               	goto	u6710
  4286   002064  0E01               	movlw	1
  4287   002066  D001               	goto	u6720
  4288   002068                     u6710:
  4289   002068  0E00               	movlw	0
  4290   00206A                     u6720:
  4291   00206A  6F96               	movwf	___fladd@grs& (0+255),b
  4292                           
  4293                           ; BSR set to: 0
  4294   00206C  0E00               	movlw	0
  4295   00206E  6F87               	movwf	___fladd@b& (0+255),b
  4296   002070  0E00               	movlw	0
  4297   002072  6F88               	movwf	(___fladd@b+1)& (0+255),b
  4298   002074  0E00               	movlw	0
  4299   002076  6F89               	movwf	(___fladd@b+2)& (0+255),b
  4300   002078  0E00               	movlw	0
  4301   00207A  6F8A               	movwf	(___fladd@b+3)& (0+255),b
  4302                           
  4303                           ; BSR set to: 0
  4304   00207C  C094  F095         	movff	___fladd@aexp,___fladd@bexp
  4305   002080  D015               	goto	u6750
  4306   002082                     l2384:
  4307                           
  4308                           ; BSR set to: 0
  4309   002082  A196               	btfss	___fladd@grs& (0+255),0,b
  4310   002084  D005               	goto	l7555
  4311                           
  4312                           ; BSR set to: 0
  4313   002086  90D8               	bcf	status,0,c
  4314   002088  3196               	rrcf	___fladd@grs& (0+255),w,b
  4315   00208A  0901               	iorlw	1
  4316   00208C  6F96               	movwf	___fladd@grs& (0+255),b
  4317   00208E  D002               	goto	l7557
  4318   002090                     l7555:
  4319                           
  4320                           ; BSR set to: 0
  4321   002090  90D8               	bcf	status,0,c
  4322   002092  3396               	rrcf	___fladd@grs& (0+255),f,b
  4323   002094                     l7557:
  4324                           
  4325                           ; BSR set to: 0
  4326   002094  B187               	btfsc	___fladd@b& (0+255),0,b
  4327                           
  4328                           ; BSR set to: 0
  4329   002096  8F96               	bsf	___fladd@grs& (0+255),7,b
  4330                           
  4331                           ; BSR set to: 0
  4332   002098  358A               	rlcf	(___fladd@b+3)& (0+255),w,b
  4333   00209A  338A               	rrcf	(___fladd@b+3)& (0+255),f,b
  4334   00209C  3389               	rrcf	(___fladd@b+2)& (0+255),f,b
  4335   00209E  3388               	rrcf	(___fladd@b+1)& (0+255),f,b
  4336   0020A0  3387               	rrcf	___fladd@b& (0+255),f,b
  4337                           
  4338                           ; BSR set to: 0
  4339   0020A2  2B95               	incf	___fladd@bexp& (0+255),f,b
  4340   0020A4                     l2383:
  4341                           
  4342                           ; BSR set to: 0
  4343   0020A4  5194               	movf	___fladd@aexp& (0+255),w,b
  4344   0020A6  5D95               	subwf	___fladd@bexp& (0+255),w,b
  4345   0020A8  A0D8               	btfss	status,0,c
  4346   0020AA  D7EB               	goto	l2384
  4347   0020AC                     u6750:
  4348                           
  4349                           ; BSR set to: 0
  4350   0020AC  BD93               	btfsc	___fladd@signs& (0+255),6,b
  4351   0020AE  D028               	goto	l7589
  4352                           
  4353                           ; BSR set to: 0
  4354   0020B0  5195               	movf	___fladd@bexp& (0+255),w,b
  4355   0020B2  A4D8               	btfss	status,2,c
  4356   0020B4  D009               	goto	l7571
  4357                           
  4358                           ; BSR set to: 0
  4359   0020B6  0E00               	movlw	0
  4360   0020B8  6F87               	movwf	?___fladd& (0+255),b
  4361   0020BA  0E00               	movlw	0
  4362   0020BC  6F88               	movwf	(?___fladd+1)& (0+255),b
  4363   0020BE  0E00               	movlw	0
  4364   0020C0  6F89               	movwf	(?___fladd+2)& (0+255),b
  4365   0020C2  0E00               	movlw	0
  4366   0020C4  6F8A               	movwf	(?___fladd+3)& (0+255),b
  4367   0020C6  0012               	return	
  4368   0020C8                     l7571:
  4369                           
  4370                           ; BSR set to: 0
  4371   0020C8  518B               	movf	___fladd@a& (0+255),w,b
  4372   0020CA  2787               	addwf	___fladd@b& (0+255),f,b
  4373   0020CC  518C               	movf	(___fladd@a+1)& (0+255),w,b
  4374   0020CE  2388               	addwfc	(___fladd@b+1)& (0+255),f,b
  4375   0020D0  518D               	movf	(___fladd@a+2)& (0+255),w,b
  4376   0020D2  2389               	addwfc	(___fladd@b+2)& (0+255),f,b
  4377   0020D4  518E               	movf	(___fladd@a+3)& (0+255),w,b
  4378   0020D6  238A               	addwfc	(___fladd@b+3)& (0+255),f,b
  4379                           
  4380                           ; BSR set to: 0
  4381   0020D8  A18A               	btfss	(___fladd@b+3)& (0+255),0,b
  4382   0020DA  D071               	goto	u6880
  4383                           
  4384                           ; BSR set to: 0
  4385   0020DC  A196               	btfss	___fladd@grs& (0+255),0,b
  4386   0020DE  D005               	goto	l7579
  4387                           
  4388                           ; BSR set to: 0
  4389   0020E0  90D8               	bcf	status,0,c
  4390   0020E2  3196               	rrcf	___fladd@grs& (0+255),w,b
  4391   0020E4  0901               	iorlw	1
  4392   0020E6  6F96               	movwf	___fladd@grs& (0+255),b
  4393   0020E8  D002               	goto	l7581
  4394   0020EA                     l7579:
  4395                           
  4396                           ; BSR set to: 0
  4397   0020EA  90D8               	bcf	status,0,c
  4398   0020EC  3396               	rrcf	___fladd@grs& (0+255),f,b
  4399   0020EE                     l7581:
  4400                           
  4401                           ; BSR set to: 0
  4402   0020EE  B187               	btfsc	___fladd@b& (0+255),0,b
  4403                           
  4404                           ; BSR set to: 0
  4405   0020F0  8F96               	bsf	___fladd@grs& (0+255),7,b
  4406                           
  4407                           ; BSR set to: 0
  4408   0020F2  358A               	rlcf	(___fladd@b+3)& (0+255),w,b
  4409   0020F4  338A               	rrcf	(___fladd@b+3)& (0+255),f,b
  4410   0020F6  3389               	rrcf	(___fladd@b+2)& (0+255),f,b
  4411   0020F8  3388               	rrcf	(___fladd@b+1)& (0+255),f,b
  4412   0020FA  3387               	rrcf	___fladd@b& (0+255),f,b
  4413                           
  4414                           ; BSR set to: 0
  4415   0020FC  2B95               	incf	___fladd@bexp& (0+255),f,b
  4416   0020FE  D05F               	goto	u6880
  4417   002100                     l7589:
  4418                           
  4419                           ; BSR set to: 0
  4420   002100  518B               	movf	___fladd@a& (0+255),w,b
  4421   002102  5D87               	subwf	___fladd@b& (0+255),w,b
  4422   002104  518C               	movf	(___fladd@a+1)& (0+255),w,b
  4423   002106  5988               	subwfb	(___fladd@b+1)& (0+255),w,b
  4424   002108  518D               	movf	(___fladd@a+2)& (0+255),w,b
  4425   00210A  5989               	subwfb	(___fladd@b+2)& (0+255),w,b
  4426   00210C  518A               	movf	(___fladd@b+3)& (0+255),w,b
  4427   00210E  0A80               	xorlw	128
  4428   002110  6F8F               	movwf	??___fladd& (0+255),b
  4429   002112  518E               	movf	(___fladd@a+3)& (0+255),w,b
  4430   002114  0A80               	xorlw	128
  4431   002116  598F               	subwfb	??___fladd& (0+255),w,b
  4432   002118  B0D8               	btfsc	status,0,c
  4433   00211A  D025               	goto	l7599
  4434                           
  4435                           ; BSR set to: 0
  4436   00211C  5187               	movf	___fladd@b& (0+255),w,b
  4437   00211E  5D8B               	subwf	___fladd@a& (0+255),w,b
  4438   002120  6F8F               	movwf	??___fladd& (0+255),b
  4439   002122  5188               	movf	(___fladd@b+1)& (0+255),w,b
  4440   002124  598C               	subwfb	(___fladd@a+1)& (0+255),w,b
  4441   002126  6F90               	movwf	(??___fladd+1)& (0+255),b
  4442   002128  5189               	movf	(___fladd@b+2)& (0+255),w,b
  4443   00212A  598D               	subwfb	(___fladd@a+2)& (0+255),w,b
  4444   00212C  6F91               	movwf	(??___fladd+2)& (0+255),b
  4445   00212E  518A               	movf	(___fladd@b+3)& (0+255),w,b
  4446   002130  598E               	subwfb	(___fladd@a+3)& (0+255),w,b
  4447   002132  6F92               	movwf	(??___fladd+3)& (0+255),b
  4448   002134  0EFF               	movlw	255
  4449   002136  258F               	addwf	??___fladd& (0+255),w,b
  4450   002138  6F87               	movwf	___fladd@b& (0+255),b
  4451   00213A  0EFF               	movlw	255
  4452   00213C  2190               	addwfc	(??___fladd+1)& (0+255),w,b
  4453   00213E  6F88               	movwf	(___fladd@b+1)& (0+255),b
  4454   002140  0EFF               	movlw	255
  4455   002142  2191               	addwfc	(??___fladd+2)& (0+255),w,b
  4456   002144  6F89               	movwf	(___fladd@b+2)& (0+255),b
  4457   002146  0EFF               	movlw	255
  4458   002148  2192               	addwfc	(??___fladd+3)& (0+255),w,b
  4459   00214A  6F8A               	movwf	(___fladd@b+3)& (0+255),b
  4460   00214C  0E80               	movlw	128
  4461   00214E  1B93               	xorwf	___fladd@signs& (0+255),f,b
  4462                           
  4463                           ; BSR set to: 0
  4464   002150  6D96               	negf	___fladd@grs& (0+255),b
  4465                           
  4466                           ; BSR set to: 0
  4467   002152  5196               	movf	___fladd@grs& (0+255),w,b
  4468   002154  A4D8               	btfss	status,2,c
  4469   002156  D00F               	goto	l2399
  4470                           
  4471                           ; BSR set to: 0
  4472   002158  0E01               	movlw	1
  4473   00215A  2787               	addwf	___fladd@b& (0+255),f,b
  4474   00215C  0E00               	movlw	0
  4475   00215E  2388               	addwfc	(___fladd@b+1)& (0+255),f,b
  4476   002160  2389               	addwfc	(___fladd@b+2)& (0+255),f,b
  4477   002162  238A               	addwfc	(___fladd@b+3)& (0+255),f,b
  4478   002164  D008               	goto	l2399
  4479   002166                     l7599:
  4480                           
  4481                           ; BSR set to: 0
  4482   002166  518B               	movf	___fladd@a& (0+255),w,b
  4483   002168  5F87               	subwf	___fladd@b& (0+255),f,b
  4484   00216A  518C               	movf	(___fladd@a+1)& (0+255),w,b
  4485   00216C  5B88               	subwfb	(___fladd@b+1)& (0+255),f,b
  4486   00216E  518D               	movf	(___fladd@a+2)& (0+255),w,b
  4487   002170  5B89               	subwfb	(___fladd@b+2)& (0+255),f,b
  4488   002172  518E               	movf	(___fladd@a+3)& (0+255),w,b
  4489   002174  5B8A               	subwfb	(___fladd@b+3)& (0+255),f,b
  4490   002176                     l2399:
  4491                           
  4492                           ; BSR set to: 0
  4493   002176  5187               	movf	___fladd@b& (0+255),w,b
  4494   002178  1188               	iorwf	(___fladd@b+1)& (0+255),w,b
  4495   00217A  1189               	iorwf	(___fladd@b+2)& (0+255),w,b
  4496   00217C  118A               	iorwf	(___fladd@b+3)& (0+255),w,b
  4497   00217E  A4D8               	btfss	status,2,c
  4498   002180  D01C               	goto	l7623
  4499                           
  4500                           ; BSR set to: 0
  4501   002182  5196               	movf	___fladd@grs& (0+255),w,b
  4502   002184  A4D8               	btfss	status,2,c
  4503   002186  D019               	goto	l7623
  4504                           
  4505                           ; BSR set to: 0
  4506   002188  0E00               	movlw	0
  4507   00218A  6F87               	movwf	?___fladd& (0+255),b
  4508   00218C  0E00               	movlw	0
  4509   00218E  6F88               	movwf	(?___fladd+1)& (0+255),b
  4510   002190  0E00               	movlw	0
  4511   002192  6F89               	movwf	(?___fladd+2)& (0+255),b
  4512   002194  0E00               	movlw	0
  4513   002196  6F8A               	movwf	(?___fladd+3)& (0+255),b
  4514   002198  0012               	return	
  4515   00219A                     l7607:
  4516                           
  4517                           ; BSR set to: 0
  4518   00219A  90D8               	bcf	status,0,c
  4519   00219C  3787               	rlcf	___fladd@b& (0+255),f,b
  4520   00219E  3788               	rlcf	(___fladd@b+1)& (0+255),f,b
  4521   0021A0  3789               	rlcf	(___fladd@b+2)& (0+255),f,b
  4522   0021A2  378A               	rlcf	(___fladd@b+3)& (0+255),f,b
  4523                           
  4524                           ; BSR set to: 0
  4525   0021A4  BF96               	btfsc	___fladd@grs& (0+255),7,b
  4526                           
  4527                           ; BSR set to: 0
  4528   0021A6  8187               	bsf	___fladd@b& (0+255),0,b
  4529                           
  4530                           ; BSR set to: 0
  4531   0021A8  A196               	btfss	___fladd@grs& (0+255),0,b
  4532   0021AA  D002               	goto	l7617
  4533                           
  4534                           ; BSR set to: 0
  4535   0021AC  80D8               	bsf	status,0,c
  4536   0021AE  D001               	goto	L6
  4537   0021B0                     l7617:
  4538                           
  4539                           ; BSR set to: 0
  4540   0021B0  90D8               	bcf	status,0,c
  4541   0021B2                     L6:
  4542   0021B2  3796               	rlcf	___fladd@grs& (0+255),f,b
  4543                           
  4544                           ; BSR set to: 0
  4545   0021B4  5195               	movf	___fladd@bexp& (0+255),w,b
  4546   0021B6  A4D8               	btfss	status,2,c
  4547                           
  4548                           ; BSR set to: 0
  4549   0021B8  0795               	decf	___fladd@bexp& (0+255),f,b
  4550   0021BA                     l7623:
  4551                           
  4552                           ; BSR set to: 0
  4553   0021BA  AF89               	btfss	(___fladd@b+2)& (0+255),7,b
  4554   0021BC  D7EE               	goto	l7607
  4555   0021BE                     u6880:
  4556                           
  4557                           ; BSR set to: 0
  4558   0021BE  0E00               	movlw	0
  4559   0021C0  6F94               	movwf	___fladd@aexp& (0+255),b
  4560                           
  4561                           ; BSR set to: 0
  4562   0021C2  AF96               	btfss	___fladd@grs& (0+255),7,b
  4563   0021C4  D00B               	goto	l2408
  4564                           
  4565                           ; BSR set to: 0
  4566   0021C6  C096  F08F         	movff	___fladd@grs,??___fladd
  4567   0021CA  0E7F               	movlw	127
  4568   0021CC  178F               	andwf	??___fladd& (0+255),f,b
  4569   0021CE  B4D8               	btfsc	status,2,c
  4570   0021D0  D003               	goto	l2409
  4571   0021D2                     u6900:
  4572                           
  4573                           ; BSR set to: 0
  4574   0021D2  0E01               	movlw	1
  4575   0021D4  6F94               	movwf	___fladd@aexp& (0+255),b
  4576   0021D6  D002               	goto	l2408
  4577   0021D8                     l2409:
  4578                           
  4579                           ; BSR set to: 0
  4580   0021D8  B187               	btfsc	___fladd@b& (0+255),0,b
  4581   0021DA  D7FB               	goto	u6900
  4582   0021DC                     l2408:
  4583                           
  4584                           ; BSR set to: 0
  4585   0021DC  5194               	movf	___fladd@aexp& (0+255),w,b
  4586   0021DE  B4D8               	btfsc	status,2,c
  4587   0021E0  D020               	goto	l7643
  4588                           
  4589                           ; BSR set to: 0
  4590   0021E2  0E01               	movlw	1
  4591   0021E4  2787               	addwf	___fladd@b& (0+255),f,b
  4592   0021E6  0E00               	movlw	0
  4593   0021E8  2388               	addwfc	(___fladd@b+1)& (0+255),f,b
  4594   0021EA  2389               	addwfc	(___fladd@b+2)& (0+255),f,b
  4595   0021EC  238A               	addwfc	(___fladd@b+3)& (0+255),f,b
  4596                           
  4597                           ; BSR set to: 0
  4598   0021EE  A18A               	btfss	(___fladd@b+3)& (0+255),0,b
  4599   0021F0  D018               	goto	l7643
  4600                           
  4601                           ; BSR set to: 0
  4602   0021F2  C087  F08F         	movff	___fladd@b,??___fladd
  4603   0021F6  C088  F090         	movff	___fladd@b+1,??___fladd+1
  4604   0021FA  C089  F091         	movff	___fladd@b+2,??___fladd+2
  4605   0021FE  C08A  F092         	movff	___fladd@b+3,??___fladd+3
  4606   002202  3592               	rlcf	(??___fladd+3)& (0+255),w,b
  4607   002204  3392               	rrcf	(??___fladd+3)& (0+255),f,b
  4608   002206  3391               	rrcf	(??___fladd+2)& (0+255),f,b
  4609   002208  3390               	rrcf	(??___fladd+1)& (0+255),f,b
  4610   00220A  338F               	rrcf	??___fladd& (0+255),f,b
  4611   00220C  C08F  F087         	movff	??___fladd,___fladd@b
  4612   002210  C090  F088         	movff	??___fladd+1,___fladd@b+1
  4613   002214  C091  F089         	movff	??___fladd+2,___fladd@b+2
  4614   002218  C092  F08A         	movff	??___fladd+3,___fladd@b+3
  4615   00221C  2995               	incf	___fladd@bexp& (0+255),w,b
  4616   00221E  A4D8               	btfss	status,2,c
  4617                           
  4618                           ; BSR set to: 0
  4619   002220  2B95               	incf	___fladd@bexp& (0+255),f,b
  4620   002222                     l7643:
  4621                           
  4622                           ; BSR set to: 0
  4623   002222  2995               	incf	___fladd@bexp& (0+255),w,b
  4624   002224  B4D8               	btfsc	status,2,c
  4625   002226  D003               	goto	u6960
  4626                           
  4627                           ; BSR set to: 0
  4628   002228  5195               	movf	___fladd@bexp& (0+255),w,b
  4629   00222A  A4D8               	btfss	status,2,c
  4630   00222C  D00D               	goto	l7651
  4631   00222E                     u6960:
  4632                           
  4633                           ; BSR set to: 0
  4634   00222E  0E00               	movlw	0
  4635   002230  6F87               	movwf	___fladd@b& (0+255),b
  4636   002232  0E00               	movlw	0
  4637   002234  6F88               	movwf	(___fladd@b+1)& (0+255),b
  4638   002236  0E00               	movlw	0
  4639   002238  6F89               	movwf	(___fladd@b+2)& (0+255),b
  4640   00223A  0E00               	movlw	0
  4641   00223C  6F8A               	movwf	(___fladd@b+3)& (0+255),b
  4642   00223E  5195               	movf	___fladd@bexp& (0+255),w,b
  4643   002240  A4D8               	btfss	status,2,c
  4644   002242  D002               	goto	l7651
  4645                           
  4646                           ; BSR set to: 0
  4647   002244  0E00               	movlw	0
  4648   002246  6F93               	movwf	___fladd@signs& (0+255),b
  4649   002248                     l7651:
  4650                           
  4651                           ; BSR set to: 0
  4652   002248  A195               	btfss	___fladd@bexp& (0+255),0,b
  4653   00224A  D002               	goto	l7655
  4654                           
  4655                           ; BSR set to: 0
  4656   00224C  8F89               	bsf	(___fladd@b+2)& (0+255),7,b
  4657   00224E  D001               	goto	l7657
  4658   002250                     l7655:
  4659                           
  4660                           ; BSR set to: 0
  4661   002250  9F89               	bcf	(___fladd@b+2)& (0+255),7,b
  4662   002252                     l7657:
  4663                           
  4664                           ; BSR set to: 0
  4665   002252  90D8               	bcf	status,0,c
  4666   002254  3195               	rrcf	___fladd@bexp& (0+255),w,b
  4667   002256  6F8A               	movwf	(___fladd@b+3)& (0+255),b
  4668                           
  4669                           ; BSR set to: 0
  4670   002258  BF93               	btfsc	___fladd@signs& (0+255),7,b
  4671                           
  4672                           ; BSR set to: 0
  4673   00225A  8F8A               	bsf	(___fladd@b+3)& (0+255),7,b
  4674                           
  4675                           ; BSR set to: 0
  4676   00225C  C087  F087         	movff	___fladd@b,?___fladd
  4677   002260  C088  F088         	movff	___fladd@b+1,?___fladd+1
  4678   002264  C089  F089         	movff	___fladd@b+2,?___fladd+2
  4679   002268  C08A  F08A         	movff	___fladd@b+3,?___fladd+3
  4680                           
  4681                           ; BSR set to: 0
  4682   00226C  0012               	return		;funcret
  4683   00226E                     __end_of___fladd:
  4684                           	callstack 0
  4685                           
  4686 ;; *************** function _Speed_Motors *****************
  4687 ;; Defined at:
  4688 ;;		line 189 in file "commandes.c"
  4689 ;; Parameters:    Size  Location     Type
  4690 ;;  Cons_Vit_Mot    2   65[BANK0 ] short 
  4691 ;;  Cons_Vit_Mot    2   67[BANK0 ] short 
  4692 ;; Auto vars:     Size  Location     Type
  4693 ;;		None
  4694 ;; Return value:  Size  Location     Type
  4695 ;;                  1    wreg      void 
  4696 ;; Registers used:
  4697 ;;		None
  4698 ;; Tracked objects:
  4699 ;;		On entry : 0/0
  4700 ;;		On exit  : 0/0
  4701 ;;		Unchanged: 0/0
  4702 ;; Data sizes:     COMRAM   BANK0   BANK1   BANK2   BANK3   BANK4   BANK5   BANK6   BANK7   BANK8   BANK9  BANK10  BANK1
      +1  BANK12  BANK13  BANK14
  4703 ;;      Params:         0       4       0       0       0       0       0       0       0       0       0       0       
      +0       0       0       0
  4704 ;;      Locals:         0       0       0       0       0       0       0       0       0       0       0       0       
      +0       0       0       0
  4705 ;;      Temps:          0       0       0       0       0       0       0       0       0       0       0       0       
      +0       0       0       0
  4706 ;;      Totals:         0       4       0       0       0       0       0       0       0       0       0       0       
      +0       0       0       0
  4707 ;;Total ram usage:        4 bytes
  4708 ;; Hardware stack levels used: 1
  4709 ;; Hardware stack levels required when called: 5
  4710 ;; This function calls:
  4711 ;;		Nothing
  4712 ;; This function is called by:
  4713 ;;		_main
  4714 ;; This function uses a non-reentrant model
  4715 ;;
  4716                           
  4717                           	psect	text11
  4718   003B34                     __ptext11:
  4719                           	callstack 0
  4720   003B34                     _Speed_Motors:
  4721                           	callstack 25
  4722                           
  4723                           ;commandes.c: 189: void Speed_Motors(int16_t Cons_Vit_Mot_G, int16_t Cons_Vit_Mot_D );co
      +                          mmandes.c: 190: {;commandes.c: 191:     Consigne_Vitesse_Moteur_G = Cons_Vit_Mot_G;
  4724                           
  4725                           ; BSR set to: 0
  4726                           ;incstack = 0
  4727   003B34  C0A1  F136         	movff	Speed_Motors@Cons_Vit_Mot_G,_Consigne_Vitesse_Moteur_G
  4728   003B38  C0A2  F137         	movff	Speed_Motors@Cons_Vit_Mot_G+1,_Consigne_Vitesse_Moteur_G+1
  4729                           
  4730                           ;commandes.c: 192:     Consigne_Vitesse_Moteur_D = Cons_Vit_Mot_D;
  4731   003B3C  C0A3  F134         	movff	Speed_Motors@Cons_Vit_Mot_D,_Consigne_Vitesse_Moteur_D
  4732   003B40  C0A4  F135         	movff	Speed_Motors@Cons_Vit_Mot_D+1,_Consigne_Vitesse_Moteur_D+1
  4733   003B44  0012               	return		;funcret
  4734   003B46                     __end_of_Speed_Motors:
  4735                           	callstack 0
  4736                           
  4737 ;; *************** function _SYSTEM_Initialize *****************
  4738 ;; Defined at:
  4739 ;;		line 50 in file "mcc_generated_files/mcc.c"
  4740 ;; Parameters:    Size  Location     Type
  4741 ;;		None
  4742 ;; Auto vars:     Size  Location     Type
  4743 ;;		None
  4744 ;; Return value:  Size  Location     Type
  4745 ;;                  1    wreg      void 
  4746 ;; Registers used:
  4747 ;;		wreg, status,2, status,0, cstack
  4748 ;; Tracked objects:
  4749 ;;		On entry : 0/0
  4750 ;;		On exit  : 0/0
  4751 ;;		Unchanged: 0/0
  4752 ;; Data sizes:     COMRAM   BANK0   BANK1   BANK2   BANK3   BANK4   BANK5   BANK6   BANK7   BANK8   BANK9  BANK10  BANK1
      +1  BANK12  BANK13  BANK14
  4753 ;;      Params:         0       0       0       0       0       0       0       0       0       0       0       0       
      +0       0       0       0
  4754 ;;      Locals:         0       0       0       0       0       0       0       0       0       0       0       0       
      +0       0       0       0
  4755 ;;      Temps:          0       0       0       0       0       0       0       0       0       0       0       0       
      +0       0       0       0
  4756 ;;      Totals:         0       0       0       0       0       0       0       0       0       0       0       0       
      +0       0       0       0
  4757 ;;Total ram usage:        0 bytes
  4758 ;; Hardware stack levels used: 1
  4759 ;; Hardware stack levels required when called: 7
  4760 ;; This function calls:
  4761 ;;		_ADCC_Initialize
  4762 ;;		_EUSART1_Initialize
  4763 ;;		_I2C1_Initialize
  4764 ;;		_INTERRUPT_Initialize
  4765 ;;		_OSCILLATOR_Initialize
  4766 ;;		_PIN_MANAGER_Initialize
  4767 ;;		_PMD_Initialize
  4768 ;;		_PWM1_Initialize
  4769 ;;		_PWM2_Initialize
  4770 ;;		_TMR0_Initialize
  4771 ;;		_TMR1_Initialize
  4772 ;;		_TMR2_Initialize
  4773 ;;		_TMR3_Initialize
  4774 ;;		_TMR4_Initialize
  4775 ;; This function is called by:
  4776 ;;		_main
  4777 ;; This function uses a non-reentrant model
  4778 ;;
  4779                           
  4780                           	psect	text12
  4781   003632                     __ptext12:
  4782                           	callstack 0
  4783   003632                     _SYSTEM_Initialize:
  4784                           	callstack 23
  4785                           
  4786                           ;mcc_generated_files/mcc.c: 52:     INTERRUPT_Initialize();
  4787                           
  4788                           ;incstack = 0
  4789   003632  EC07  F01E         	call	_INTERRUPT_Initialize	;wreg free
  4790                           
  4791                           ;mcc_generated_files/mcc.c: 53:     PMD_Initialize();
  4792   003636  ECE9  F01C         	call	_PMD_Initialize	;wreg free
  4793                           
  4794                           ;mcc_generated_files/mcc.c: 54:     PIN_MANAGER_Initialize();
  4795   00363A  EC79  F016         	call	_PIN_MANAGER_Initialize	;wreg free
  4796                           
  4797                           ;mcc_generated_files/mcc.c: 55:     OSCILLATOR_Initialize();
  4798   00363E  EC3C  F01D         	call	_OSCILLATOR_Initialize	;wreg free
  4799                           
  4800                           ;mcc_generated_files/mcc.c: 56:     I2C1_Initialize();
  4801   003642  EC51  F01B         	call	_I2C1_Initialize	;wreg free
  4802                           
  4803                           ;mcc_generated_files/mcc.c: 57:     PWM2_Initialize();
  4804   003646  EC53  F01D         	call	_PWM2_Initialize	;wreg free
  4805                           
  4806                           ;mcc_generated_files/mcc.c: 58:     ADCC_Initialize();
  4807   00364A  EC22  F01A         	call	_ADCC_Initialize	;wreg free
  4808                           
  4809                           ;mcc_generated_files/mcc.c: 59:     TMR4_Initialize();
  4810   00364E  ECA0  F01B         	call	_TMR4_Initialize	;wreg free
  4811                           
  4812                           ;mcc_generated_files/mcc.c: 60:     TMR2_Initialize();
  4813   003652  ECDA  F01C         	call	_TMR2_Initialize	;wreg free
  4814                           
  4815                           ;mcc_generated_files/mcc.c: 61:     TMR0_Initialize();
  4816   003656  ECB7  F01A         	call	_TMR0_Initialize	;wreg free
  4817                           
  4818                           ;mcc_generated_files/mcc.c: 62:     PWM1_Initialize();
  4819   00365A  EC5E  F01D         	call	_PWM1_Initialize	;wreg free
  4820                           
  4821                           ;mcc_generated_files/mcc.c: 63:     TMR3_Initialize();
  4822   00365E  EC48  F01A         	call	_TMR3_Initialize	;wreg free
  4823                           
  4824                           ;mcc_generated_files/mcc.c: 64:     TMR1_Initialize();
  4825   003662  EC6D  F01A         	call	_TMR1_Initialize	;wreg free
  4826                           
  4827                           ;mcc_generated_files/mcc.c: 65:     EUSART1_Initialize();
  4828   003666  ECE6  F018         	call	_EUSART1_Initialize	;wreg free
  4829   00366A  0012               	return		;funcret
  4830   00366C                     __end_of_SYSTEM_Initialize:
  4831                           	callstack 0
  4832                           
  4833 ;; *************** function _TMR4_Initialize *****************
  4834 ;; Defined at:
  4835 ;;		line 96 in file "mcc_generated_files/tmr4.c"
  4836 ;; Parameters:    Size  Location     Type
  4837 ;;		None
  4838 ;; Auto vars:     Size  Location     Type
  4839 ;;		None
  4840 ;; Return value:  Size  Location     Type
  4841 ;;                  1    wreg      void 
  4842 ;; Registers used:
  4843 ;;		wreg, status,2, status,0, cstack
  4844 ;; Tracked objects:
  4845 ;;		On entry : 0/0
  4846 ;;		On exit  : 0/0
  4847 ;;		Unchanged: 0/0
  4848 ;; Data sizes:     COMRAM   BANK0   BANK1   BANK2   BANK3   BANK4   BANK5   BANK6   BANK7   BANK8   BANK9  BANK10  BANK1
      +1  BANK12  BANK13  BANK14
  4849 ;;      Params:         0       0       0       0       0       0       0       0       0       0       0       0       
      +0       0       0       0
  4850 ;;      Locals:         0       0       0       0       0       0       0       0       0       0       0       0       
      +0       0       0       0
  4851 ;;      Temps:          0       0       0       0       0       0       0       0       0       0       0       0       
      +0       0       0       0
  4852 ;;      Totals:         0       0       0       0       0       0       0       0       0       0       0       0       
      +0       0       0       0
  4853 ;;Total ram usage:        0 bytes
  4854 ;; Hardware stack levels used: 1
  4855 ;; Hardware stack levels required when called: 6
  4856 ;; This function calls:
  4857 ;;		_TMR4_SetInterruptHandler
  4858 ;; This function is called by:
  4859 ;;		_SYSTEM_Initialize
  4860 ;; This function uses a non-reentrant model
  4861 ;;
  4862                           
  4863                           	psect	text13
  4864   003740                     __ptext13:
  4865                           	callstack 0
  4866   003740                     _TMR4_Initialize:
  4867                           	callstack 23
  4868                           
  4869                           ;mcc_generated_files/tmr4.c: 101:     T4CLKCON = 0x04;
  4870                           
  4871                           ;incstack = 0
  4872   003740  0E04               	movlw	4
  4873   003742  6EB9               	movwf	185,c	;volatile
  4874                           
  4875                           ;mcc_generated_files/tmr4.c: 104:     T4HLT = 0x00;
  4876   003744  0E00               	movlw	0
  4877   003746  6EB8               	movwf	184,c	;volatile
  4878                           
  4879                           ;mcc_generated_files/tmr4.c: 107:     T4RST = 0x00;
  4880   003748  0E00               	movlw	0
  4881   00374A  6EBA               	movwf	186,c	;volatile
  4882                           
  4883                           ;mcc_generated_files/tmr4.c: 110:     T4PR = 0x4D;
  4884   00374C  0E4D               	movlw	77
  4885   00374E  6EB6               	movwf	182,c	;volatile
  4886                           
  4887                           ;mcc_generated_files/tmr4.c: 113:     T4TMR = 0x00;
  4888   003750  0E00               	movlw	0
  4889   003752  6EB5               	movwf	181,c	;volatile
  4890                           
  4891                           ;mcc_generated_files/tmr4.c: 116:     PIR4bits.TMR4IF = 0;
  4892   003754  010E               	movlb	14	; () banked
  4893   003756  97CE               	bcf	206,3,b	;volatile
  4894                           
  4895                           ; BSR set to: 14
  4896                           ;mcc_generated_files/tmr4.c: 119:     PIE4bits.TMR4IE = 1;
  4897   003758  87C6               	bsf	198,3,b	;volatile
  4898                           
  4899                           ; BSR set to: 14
  4900                           ;mcc_generated_files/tmr4.c: 122:     TMR4_SetInterruptHandler(TMR4_DefaultInterruptHand
      +                          ler);
  4901   00375A  0E7A               	movlw	low _TMR4_DefaultInterruptHandler
  4902   00375C  0100               	movlb	0	; () banked
  4903   00375E  6F60               	movwf	TMR4_SetInterruptHandler@InterruptHandler& (0+255),b
  4904   003760  0E25               	movlw	high _TMR4_DefaultInterruptHandler
  4905   003762  6F61               	movwf	(TMR4_SetInterruptHandler@InterruptHandler+1)& (0+255),b
  4906   003764  0E00               	movlw	low (_TMR4_DefaultInterruptHandler shr (0+16))
  4907   003766  6F62               	movwf	(TMR4_SetInterruptHandler@InterruptHandler+2)& (0+255),b
  4908   003768  ECA3  F01D         	call	_TMR4_SetInterruptHandler	;wreg free
  4909                           
  4910                           ;mcc_generated_files/tmr4.c: 125:     T4CON = 0xA0;
  4911   00376C  0EA0               	movlw	160
  4912   00376E  6EB7               	movwf	183,c	;volatile
  4913   003770  0012               	return		;funcret
  4914   003772                     __end_of_TMR4_Initialize:
  4915                           	callstack 0
  4916                           
  4917 ;; *************** function _TMR4_SetInterruptHandler *****************
  4918 ;; Defined at:
  4919 ;;		line 210 in file "mcc_generated_files/tmr4.c"
  4920 ;; Parameters:    Size  Location     Type
  4921 ;;  InterruptHan    3    0[BANK0 ] PTR FTN()void 
  4922 ;;		 -> TMR4_DefaultInterruptHandler(1), 
  4923 ;; Auto vars:     Size  Location     Type
  4924 ;;		None
  4925 ;; Return value:  Size  Location     Type
  4926 ;;                  1    wreg      void 
  4927 ;; Registers used:
  4928 ;;		wreg, status,2, status,0
  4929 ;; Tracked objects:
  4930 ;;		On entry : 0/0
  4931 ;;		On exit  : 0/0
  4932 ;;		Unchanged: 0/0
  4933 ;; Data sizes:     COMRAM   BANK0   BANK1   BANK2   BANK3   BANK4   BANK5   BANK6   BANK7   BANK8   BANK9  BANK10  BANK1
      +1  BANK12  BANK13  BANK14
  4934 ;;      Params:         0       3       0       0       0       0       0       0       0       0       0       0       
      +0       0       0       0
  4935 ;;      Locals:         0       0       0       0       0       0       0       0       0       0       0       0       
      +0       0       0       0
  4936 ;;      Temps:          0       0       0       0       0       0       0       0       0       0       0       0       
      +0       0       0       0
  4937 ;;      Totals:         0       3       0       0       0       0       0       0       0       0       0       0       
      +0       0       0       0
  4938 ;;Total ram usage:        3 bytes
  4939 ;; Hardware stack levels used: 1
  4940 ;; Hardware stack levels required when called: 5
  4941 ;; This function calls:
  4942 ;;		Nothing
  4943 ;; This function is called by:
  4944 ;;		_TMR4_Initialize
  4945 ;; This function uses a non-reentrant model
  4946 ;;
  4947                           
  4948                           	psect	text14
  4949   003B46                     __ptext14:
  4950                           	callstack 0
  4951   003B46                     _TMR4_SetInterruptHandler:
  4952                           	callstack 23
  4953                           
  4954                           ;mcc_generated_files/tmr4.c: 211:     TMR4_InterruptHandler = InterruptHandler;
  4955                           
  4956                           ;incstack = 0
  4957   003B46  C060  F155         	movff	TMR4_SetInterruptHandler@InterruptHandler,_TMR4_InterruptHandler
  4958   003B4A  C061  F156         	movff	TMR4_SetInterruptHandler@InterruptHandler+1,_TMR4_InterruptHandler+1
  4959   003B4E  C062  F157         	movff	TMR4_SetInterruptHandler@InterruptHandler+2,_TMR4_InterruptHandler+2
  4960   003B52  0012               	return		;funcret
  4961   003B54                     __end_of_TMR4_SetInterruptHandler:
  4962                           	callstack 0
  4963                           
  4964 ;; *************** function _TMR3_Initialize *****************
  4965 ;; Defined at:
  4966 ;;		line 66 in file "mcc_generated_files/tmr3.c"
  4967 ;; Parameters:    Size  Location     Type
  4968 ;;		None
  4969 ;; Auto vars:     Size  Location     Type
  4970 ;;		None
  4971 ;; Return value:  Size  Location     Type
  4972 ;;                  1    wreg      void 
  4973 ;; Registers used:
  4974 ;;		wreg, status,2, status,0, cstack
  4975 ;; Tracked objects:
  4976 ;;		On entry : 0/0
  4977 ;;		On exit  : 0/0
  4978 ;;		Unchanged: 0/0
  4979 ;; Data sizes:     COMRAM   BANK0   BANK1   BANK2   BANK3   BANK4   BANK5   BANK6   BANK7   BANK8   BANK9  BANK10  BANK1
      +1  BANK12  BANK13  BANK14
  4980 ;;      Params:         0       0       0       0       0       0       0       0       0       0       0       0       
      +0       0       0       0
  4981 ;;      Locals:         0       0       0       0       0       0       0       0       0       0       0       0       
      +0       0       0       0
  4982 ;;      Temps:          0       2       0       0       0       0       0       0       0       0       0       0       
      +0       0       0       0
  4983 ;;      Totals:         0       2       0       0       0       0       0       0       0       0       0       0       
      +0       0       0       0
  4984 ;;Total ram usage:        2 bytes
  4985 ;; Hardware stack levels used: 1
  4986 ;; Hardware stack levels required when called: 6
  4987 ;; This function calls:
  4988 ;;		_TMR3_SetInterruptHandler
  4989 ;; This function is called by:
  4990 ;;		_SYSTEM_Initialize
  4991 ;; This function uses a non-reentrant model
  4992 ;;
  4993                           
  4994                           	psect	text15
  4995   003490                     __ptext15:
  4996                           	callstack 0
  4997   003490                     _TMR3_Initialize:
  4998                           	callstack 23
  4999                           
  5000                           ;mcc_generated_files/tmr3.c: 71:     T3GCON = 0x00;
  5001                           
  5002                           ;incstack = 0
  5003   003490  0E00               	movlw	0
  5004   003492  6ECA               	movwf	202,c	;volatile
  5005                           
  5006                           ;mcc_generated_files/tmr3.c: 74:     T3GATE = 0x00;
  5007   003494  0E00               	movlw	0
  5008   003496  6ECB               	movwf	203,c	;volatile
  5009                           
  5010                           ;mcc_generated_files/tmr3.c: 77:     T3CLK = 0x01;
  5011   003498  0E01               	movlw	1
  5012   00349A  6ECC               	movwf	204,c	;volatile
  5013                           
  5014                           ;mcc_generated_files/tmr3.c: 80:     TMR3H = 0x00;
  5015   00349C  0E00               	movlw	0
  5016   00349E  6EC8               	movwf	200,c	;volatile
  5017                           
  5018                           ;mcc_generated_files/tmr3.c: 83:     TMR3L = 0x00;
  5019   0034A0  0E00               	movlw	0
  5020   0034A2  6EC7               	movwf	199,c	;volatile
  5021                           
  5022                           ;mcc_generated_files/tmr3.c: 86:     timer3ReloadVal=(uint16_t)((TMR3H << 8) | TMR3L);
  5023   0034A4  50C7               	movf	199,w,c	;volatile
  5024   0034A6  CFC8 F063          	movff	4040,??_TMR3_Initialize	;volatile
  5025   0034AA  0100               	movlb	0	; () banked
  5026   0034AC  6B64               	clrf	(??_TMR3_Initialize+1)& (0+255),b
  5027   0034AE  C063  F064         	movff	??_TMR3_Initialize,??_TMR3_Initialize+1
  5028   0034B2  6B63               	clrf	??_TMR3_Initialize& (0+255),b
  5029   0034B4  1163               	iorwf	??_TMR3_Initialize& (0+255),w,b
  5030   0034B6  6FF2               	movwf	_timer3ReloadVal& (0+255),b	;volatile
  5031   0034B8  5164               	movf	(??_TMR3_Initialize+1)& (0+255),w,b
  5032   0034BA  6FF3               	movwf	(_timer3ReloadVal+1)& (0+255),b	;volatile
  5033                           
  5034                           ; BSR set to: 0
  5035                           ;mcc_generated_files/tmr3.c: 89:     PIR4bits.TMR3IF = 0;
  5036   0034BC  010E               	movlb	14	; () banked
  5037   0034BE  95CE               	bcf	206,2,b	;volatile
  5038                           
  5039                           ; BSR set to: 14
  5040                           ;mcc_generated_files/tmr3.c: 92:     PIE4bits.TMR3IE = 1;
  5041   0034C0  85C6               	bsf	198,2,b	;volatile
  5042                           
  5043                           ; BSR set to: 14
  5044                           ;mcc_generated_files/tmr3.c: 95:     TMR3_SetInterruptHandler(TMR3_DefaultInterruptHandl
      +                          er);
  5045   0034C2  0EEE               	movlw	low _TMR3_DefaultInterruptHandler
  5046   0034C4  0100               	movlb	0	; () banked
  5047   0034C6  6F60               	movwf	TMR3_SetInterruptHandler@InterruptHandler& (0+255),b
  5048   0034C8  0E39               	movlw	high _TMR3_DefaultInterruptHandler
  5049   0034CA  6F61               	movwf	(TMR3_SetInterruptHandler@InterruptHandler+1)& (0+255),b
  5050   0034CC  0E00               	movlw	low (_TMR3_DefaultInterruptHandler shr (0+16))
  5051   0034CE  6F62               	movwf	(TMR3_SetInterruptHandler@InterruptHandler+2)& (0+255),b
  5052   0034D0  ECAA  F01D         	call	_TMR3_SetInterruptHandler	;wreg free
  5053                           
  5054                           ;mcc_generated_files/tmr3.c: 98:     T3CON = 0x30;
  5055   0034D4  0E30               	movlw	48
  5056   0034D6  6EC9               	movwf	201,c	;volatile
  5057   0034D8  0012               	return		;funcret
  5058   0034DA                     __end_of_TMR3_Initialize:
  5059                           	callstack 0
  5060                           
  5061 ;; *************** function _TMR3_SetInterruptHandler *****************
  5062 ;; Defined at:
  5063 ;;		line 180 in file "mcc_generated_files/tmr3.c"
  5064 ;; Parameters:    Size  Location     Type
  5065 ;;  InterruptHan    3    0[BANK0 ] PTR FTN()void 
  5066 ;;		 -> TMR3_DefaultInterruptHandler(1), 
  5067 ;; Auto vars:     Size  Location     Type
  5068 ;;		None
  5069 ;; Return value:  Size  Location     Type
  5070 ;;                  1    wreg      void 
  5071 ;; Registers used:
  5072 ;;		wreg, status,2, status,0
  5073 ;; Tracked objects:
  5074 ;;		On entry : 0/0
  5075 ;;		On exit  : 0/0
  5076 ;;		Unchanged: 0/0
  5077 ;; Data sizes:     COMRAM   BANK0   BANK1   BANK2   BANK3   BANK4   BANK5   BANK6   BANK7   BANK8   BANK9  BANK10  BANK1
      +1  BANK12  BANK13  BANK14
  5078 ;;      Params:         0       3       0       0       0       0       0       0       0       0       0       0       
      +0       0       0       0
  5079 ;;      Locals:         0       0       0       0       0       0       0       0       0       0       0       0       
      +0       0       0       0
  5080 ;;      Temps:          0       0       0       0       0       0       0       0       0       0       0       0       
      +0       0       0       0
  5081 ;;      Totals:         0       3       0       0       0       0       0       0       0       0       0       0       
      +0       0       0       0
  5082 ;;Total ram usage:        3 bytes
  5083 ;; Hardware stack levels used: 1
  5084 ;; Hardware stack levels required when called: 5
  5085 ;; This function calls:
  5086 ;;		Nothing
  5087 ;; This function is called by:
  5088 ;;		_TMR3_Initialize
  5089 ;; This function uses a non-reentrant model
  5090 ;;
  5091                           
  5092                           	psect	text16
  5093   003B54                     __ptext16:
  5094                           	callstack 0
  5095   003B54                     _TMR3_SetInterruptHandler:
  5096                           	callstack 23
  5097                           
  5098                           ;mcc_generated_files/tmr3.c: 181:     TMR3_InterruptHandler = InterruptHandler;
  5099                           
  5100                           ;incstack = 0
  5101   003B54  C060  F14F         	movff	TMR3_SetInterruptHandler@InterruptHandler,_TMR3_InterruptHandler
  5102   003B58  C061  F150         	movff	TMR3_SetInterruptHandler@InterruptHandler+1,_TMR3_InterruptHandler+1
  5103   003B5C  C062  F151         	movff	TMR3_SetInterruptHandler@InterruptHandler+2,_TMR3_InterruptHandler+2
  5104   003B60  0012               	return		;funcret
  5105   003B62                     __end_of_TMR3_SetInterruptHandler:
  5106                           	callstack 0
  5107                           
  5108 ;; *************** function _TMR2_Initialize *****************
  5109 ;; Defined at:
  5110 ;;		line 62 in file "mcc_generated_files/tmr2.c"
  5111 ;; Parameters:    Size  Location     Type
  5112 ;;		None
  5113 ;; Auto vars:     Size  Location     Type
  5114 ;;		None
  5115 ;; Return value:  Size  Location     Type
  5116 ;;                  1    wreg      void 
  5117 ;; Registers used:
  5118 ;;		wreg, status,2
  5119 ;; Tracked objects:
  5120 ;;		On entry : 0/0
  5121 ;;		On exit  : 0/0
  5122 ;;		Unchanged: 0/0
  5123 ;; Data sizes:     COMRAM   BANK0   BANK1   BANK2   BANK3   BANK4   BANK5   BANK6   BANK7   BANK8   BANK9  BANK10  BANK1
      +1  BANK12  BANK13  BANK14
  5124 ;;      Params:         0       0       0       0       0       0       0       0       0       0       0       0       
      +0       0       0       0
  5125 ;;      Locals:         0       0       0       0       0       0       0       0       0       0       0       0       
      +0       0       0       0
  5126 ;;      Temps:          0       0       0       0       0       0       0       0       0       0       0       0       
      +0       0       0       0
  5127 ;;      Totals:         0       0       0       0       0       0       0       0       0       0       0       0       
      +0       0       0       0
  5128 ;;Total ram usage:        0 bytes
  5129 ;; Hardware stack levels used: 1
  5130 ;; Hardware stack levels required when called: 5
  5131 ;; This function calls:
  5132 ;;		Nothing
  5133 ;; This function is called by:
  5134 ;;		_SYSTEM_Initialize
  5135 ;; This function uses a non-reentrant model
  5136 ;;
  5137                           
  5138                           	psect	text17
  5139   0039B4                     __ptext17:
  5140                           	callstack 0
  5141   0039B4                     _TMR2_Initialize:
  5142                           	callstack 24
  5143                           
  5144                           ;mcc_generated_files/tmr2.c: 67:     T2CLKCON = 0x01;
  5145                           
  5146                           ;incstack = 0
  5147   0039B4  0E01               	movlw	1
  5148   0039B6  6EBF               	movwf	191,c	;volatile
  5149                           
  5150                           ;mcc_generated_files/tmr2.c: 70:     T2HLT = 0x00;
  5151   0039B8  0E00               	movlw	0
  5152   0039BA  6EBE               	movwf	190,c	;volatile
  5153                           
  5154                           ;mcc_generated_files/tmr2.c: 73:     T2RST = 0x00;
  5155   0039BC  0E00               	movlw	0
  5156   0039BE  6EC0               	movwf	192,c	;volatile
  5157                           
  5158                           ;mcc_generated_files/tmr2.c: 76:     T2PR = 0xC7;
  5159   0039C0  0EC7               	movlw	199
  5160   0039C2  6EBC               	movwf	188,c	;volatile
  5161                           
  5162                           ;mcc_generated_files/tmr2.c: 79:     T2TMR = 0x00;
  5163   0039C4  0E00               	movlw	0
  5164   0039C6  6EBB               	movwf	187,c	;volatile
  5165                           
  5166                           ;mcc_generated_files/tmr2.c: 82:     PIR4bits.TMR2IF = 0;
  5167   0039C8  010E               	movlb	14	; () banked
  5168   0039CA  93CE               	bcf	206,1,b	;volatile
  5169                           
  5170                           ;mcc_generated_files/tmr2.c: 85:     T2CON = 0xA0;
  5171   0039CC  0EA0               	movlw	160
  5172   0039CE  6EBD               	movwf	189,c	;volatile
  5173                           
  5174                           ; BSR set to: 14
  5175   0039D0  0012               	return		;funcret
  5176   0039D2                     __end_of_TMR2_Initialize:
  5177                           	callstack 0
  5178                           
  5179 ;; *************** function _TMR1_Initialize *****************
  5180 ;; Defined at:
  5181 ;;		line 66 in file "mcc_generated_files/tmr1.c"
  5182 ;; Parameters:    Size  Location     Type
  5183 ;;		None
  5184 ;; Auto vars:     Size  Location     Type
  5185 ;;		None
  5186 ;; Return value:  Size  Location     Type
  5187 ;;                  1    wreg      void 
  5188 ;; Registers used:
  5189 ;;		wreg, status,2, status,0, cstack
  5190 ;; Tracked objects:
  5191 ;;		On entry : 0/0
  5192 ;;		On exit  : 0/0
  5193 ;;		Unchanged: 0/0
  5194 ;; Data sizes:     COMRAM   BANK0   BANK1   BANK2   BANK3   BANK4   BANK5   BANK6   BANK7   BANK8   BANK9  BANK10  BANK1
      +1  BANK12  BANK13  BANK14
  5195 ;;      Params:         0       0       0       0       0       0       0       0       0       0       0       0       
      +0       0       0       0
  5196 ;;      Locals:         0       0       0       0       0       0       0       0       0       0       0       0       
      +0       0       0       0
  5197 ;;      Temps:          0       2       0       0       0       0       0       0       0       0       0       0       
      +0       0       0       0
  5198 ;;      Totals:         0       2       0       0       0       0       0       0       0       0       0       0       
      +0       0       0       0
  5199 ;;Total ram usage:        2 bytes
  5200 ;; Hardware stack levels used: 1
  5201 ;; Hardware stack levels required when called: 6
  5202 ;; This function calls:
  5203 ;;		_TMR1_SetInterruptHandler
  5204 ;; This function is called by:
  5205 ;;		_SYSTEM_Initialize
  5206 ;; This function uses a non-reentrant model
  5207 ;;
  5208                           
  5209                           	psect	text18
  5210   0034DA                     __ptext18:
  5211                           	callstack 0
  5212   0034DA                     _TMR1_Initialize:
  5213                           	callstack 23
  5214                           
  5215                           ;mcc_generated_files/tmr1.c: 71:     T1GCON = 0x00;
  5216                           
  5217                           ; BSR set to: 14
  5218                           ;incstack = 0
  5219   0034DA  0E00               	movlw	0
  5220   0034DC  6ED0               	movwf	208,c	;volatile
  5221                           
  5222                           ;mcc_generated_files/tmr1.c: 74:     T1GATE = 0x00;
  5223   0034DE  0E00               	movlw	0
  5224   0034E0  6ED1               	movwf	209,c	;volatile
  5225                           
  5226                           ;mcc_generated_files/tmr1.c: 77:     T1CLK = 0x01;
  5227   0034E2  0E01               	movlw	1
  5228   0034E4  6ED2               	movwf	210,c	;volatile
  5229                           
  5230                           ;mcc_generated_files/tmr1.c: 80:     TMR1H = 0x00;
  5231   0034E6  0E00               	movlw	0
  5232   0034E8  6ECE               	movwf	206,c	;volatile
  5233                           
  5234                           ;mcc_generated_files/tmr1.c: 83:     TMR1L = 0x00;
  5235   0034EA  0E00               	movlw	0
  5236   0034EC  6ECD               	movwf	205,c	;volatile
  5237                           
  5238                           ;mcc_generated_files/tmr1.c: 86:     timer1ReloadVal=(uint16_t)((TMR1H << 8) | TMR1L);
  5239   0034EE  50CD               	movf	205,w,c	;volatile
  5240   0034F0  CFCE F063          	movff	4046,??_TMR1_Initialize	;volatile
  5241   0034F4  0100               	movlb	0	; () banked
  5242   0034F6  6B64               	clrf	(??_TMR1_Initialize+1)& (0+255),b
  5243   0034F8  C063  F064         	movff	??_TMR1_Initialize,??_TMR1_Initialize+1
  5244   0034FC  6B63               	clrf	??_TMR1_Initialize& (0+255),b
  5245   0034FE  1163               	iorwf	??_TMR1_Initialize& (0+255),w,b
  5246   003500  6FF4               	movwf	_timer1ReloadVal& (0+255),b	;volatile
  5247   003502  5164               	movf	(??_TMR1_Initialize+1)& (0+255),w,b
  5248   003504  6FF5               	movwf	(_timer1ReloadVal+1)& (0+255),b	;volatile
  5249                           
  5250                           ; BSR set to: 0
  5251                           ;mcc_generated_files/tmr1.c: 89:     PIR4bits.TMR1IF = 0;
  5252   003506  010E               	movlb	14	; () banked
  5253   003508  91CE               	bcf	206,0,b	;volatile
  5254                           
  5255                           ; BSR set to: 14
  5256                           ;mcc_generated_files/tmr1.c: 92:     PIE4bits.TMR1IE = 1;
  5257   00350A  81C6               	bsf	198,0,b	;volatile
  5258                           
  5259                           ; BSR set to: 14
  5260                           ;mcc_generated_files/tmr1.c: 95:     TMR1_SetInterruptHandler(TMR1_DefaultInterruptHandl
      +                          er);
  5261   00350C  0E0A               	movlw	low _TMR1_DefaultInterruptHandler
  5262   00350E  0100               	movlb	0	; () banked
  5263   003510  6F60               	movwf	TMR1_SetInterruptHandler@InterruptHandler& (0+255),b
  5264   003512  0E3A               	movlw	high _TMR1_DefaultInterruptHandler
  5265   003514  6F61               	movwf	(TMR1_SetInterruptHandler@InterruptHandler+1)& (0+255),b
  5266   003516  0E00               	movlw	low (_TMR1_DefaultInterruptHandler shr (0+16))
  5267   003518  6F62               	movwf	(TMR1_SetInterruptHandler@InterruptHandler+2)& (0+255),b
  5268   00351A  ECB1  F01D         	call	_TMR1_SetInterruptHandler	;wreg free
  5269                           
  5270                           ;mcc_generated_files/tmr1.c: 98:     T1CON = 0x30;
  5271   00351E  0E30               	movlw	48
  5272   003520  6ECF               	movwf	207,c	;volatile
  5273   003522  0012               	return		;funcret
  5274   003524                     __end_of_TMR1_Initialize:
  5275                           	callstack 0
  5276                           
  5277 ;; *************** function _TMR1_SetInterruptHandler *****************
  5278 ;; Defined at:
  5279 ;;		line 180 in file "mcc_generated_files/tmr1.c"
  5280 ;; Parameters:    Size  Location     Type
  5281 ;;  InterruptHan    3    0[BANK0 ] PTR FTN()void 
  5282 ;;		 -> TMR1_DefaultInterruptHandler(1), 
  5283 ;; Auto vars:     Size  Location     Type
  5284 ;;		None
  5285 ;; Return value:  Size  Location     Type
  5286 ;;                  1    wreg      void 
  5287 ;; Registers used:
  5288 ;;		wreg, status,2, status,0
  5289 ;; Tracked objects:
  5290 ;;		On entry : 0/0
  5291 ;;		On exit  : 0/0
  5292 ;;		Unchanged: 0/0
  5293 ;; Data sizes:     COMRAM   BANK0   BANK1   BANK2   BANK3   BANK4   BANK5   BANK6   BANK7   BANK8   BANK9  BANK10  BANK1
      +1  BANK12  BANK13  BANK14
  5294 ;;      Params:         0       3       0       0       0       0       0       0       0       0       0       0       
      +0       0       0       0
  5295 ;;      Locals:         0       0       0       0       0       0       0       0       0       0       0       0       
      +0       0       0       0
  5296 ;;      Temps:          0       0       0       0       0       0       0       0       0       0       0       0       
      +0       0       0       0
  5297 ;;      Totals:         0       3       0       0       0       0       0       0       0       0       0       0       
      +0       0       0       0
  5298 ;;Total ram usage:        3 bytes
  5299 ;; Hardware stack levels used: 1
  5300 ;; Hardware stack levels required when called: 5
  5301 ;; This function calls:
  5302 ;;		Nothing
  5303 ;; This function is called by:
  5304 ;;		_TMR1_Initialize
  5305 ;; This function uses a non-reentrant model
  5306 ;;
  5307                           
  5308                           	psect	text19
  5309   003B62                     __ptext19:
  5310                           	callstack 0
  5311   003B62                     _TMR1_SetInterruptHandler:
  5312                           	callstack 23
  5313                           
  5314                           ;mcc_generated_files/tmr1.c: 181:     TMR1_InterruptHandler = InterruptHandler;
  5315                           
  5316                           ;incstack = 0
  5317   003B62  C060  F152         	movff	TMR1_SetInterruptHandler@InterruptHandler,_TMR1_InterruptHandler
  5318   003B66  C061  F153         	movff	TMR1_SetInterruptHandler@InterruptHandler+1,_TMR1_InterruptHandler+1
  5319   003B6A  C062  F154         	movff	TMR1_SetInterruptHandler@InterruptHandler+2,_TMR1_InterruptHandler+2
  5320   003B6E  0012               	return		;funcret
  5321   003B70                     __end_of_TMR1_SetInterruptHandler:
  5322                           	callstack 0
  5323                           
  5324 ;; *************** function _TMR0_Initialize *****************
  5325 ;; Defined at:
  5326 ;;		line 67 in file "mcc_generated_files/tmr0.c"
  5327 ;; Parameters:    Size  Location     Type
  5328 ;;		None
  5329 ;; Auto vars:     Size  Location     Type
  5330 ;;		None
  5331 ;; Return value:  Size  Location     Type
  5332 ;;                  1    wreg      void 
  5333 ;; Registers used:
  5334 ;;		wreg, status,2, status,0, cstack
  5335 ;; Tracked objects:
  5336 ;;		On entry : 0/0
  5337 ;;		On exit  : 0/0
  5338 ;;		Unchanged: 0/0
  5339 ;; Data sizes:     COMRAM   BANK0   BANK1   BANK2   BANK3   BANK4   BANK5   BANK6   BANK7   BANK8   BANK9  BANK10  BANK1
      +1  BANK12  BANK13  BANK14
  5340 ;;      Params:         0       0       0       0       0       0       0       0       0       0       0       0       
      +0       0       0       0
  5341 ;;      Locals:         0       0       0       0       0       0       0       0       0       0       0       0       
      +0       0       0       0
  5342 ;;      Temps:          0       2       0       0       0       0       0       0       0       0       0       0       
      +0       0       0       0
  5343 ;;      Totals:         0       2       0       0       0       0       0       0       0       0       0       0       
      +0       0       0       0
  5344 ;;Total ram usage:        2 bytes
  5345 ;; Hardware stack levels used: 1
  5346 ;; Hardware stack levels required when called: 6
  5347 ;; This function calls:
  5348 ;;		_TMR0_SetInterruptHandler
  5349 ;; This function is called by:
  5350 ;;		_SYSTEM_Initialize
  5351 ;; This function uses a non-reentrant model
  5352 ;;
  5353                           
  5354                           	psect	text20
  5355   00356E                     __ptext20:
  5356                           	callstack 0
  5357   00356E                     _TMR0_Initialize:
  5358                           	callstack 23
  5359                           
  5360                           ;mcc_generated_files/tmr0.c: 72:     T0CON1 = 0x40;
  5361                           
  5362                           ;incstack = 0
  5363   00356E  0E40               	movlw	64
  5364   003570  6ED6               	movwf	214,c	;volatile
  5365                           
  5366                           ;mcc_generated_files/tmr0.c: 75:     TMR0H = 0xC1;
  5367   003572  0EC1               	movlw	193
  5368   003574  6ED4               	movwf	212,c	;volatile
  5369                           
  5370                           ;mcc_generated_files/tmr0.c: 78:     TMR0L = 0x80;
  5371   003576  0E80               	movlw	128
  5372   003578  6ED3               	movwf	211,c	;volatile
  5373                           
  5374                           ;mcc_generated_files/tmr0.c: 81:     timer0ReloadVal16bit = (TMR0H << 8) | TMR0L;
  5375   00357A  50D3               	movf	211,w,c	;volatile
  5376   00357C  CFD4 F063          	movff	4052,??_TMR0_Initialize	;volatile
  5377   003580  0100               	movlb	0	; () banked
  5378   003582  6B64               	clrf	(??_TMR0_Initialize+1)& (0+255),b
  5379   003584  C063  F064         	movff	??_TMR0_Initialize,??_TMR0_Initialize+1
  5380   003588  6B63               	clrf	??_TMR0_Initialize& (0+255),b
  5381   00358A  1163               	iorwf	??_TMR0_Initialize& (0+255),w,b
  5382   00358C  6FF6               	movwf	_timer0ReloadVal16bit& (0+255),b	;volatile
  5383   00358E  5164               	movf	(??_TMR0_Initialize+1)& (0+255),w,b
  5384   003590  6FF7               	movwf	(_timer0ReloadVal16bit+1)& (0+255),b	;volatile
  5385                           
  5386                           ; BSR set to: 0
  5387                           ;mcc_generated_files/tmr0.c: 84:     PIR0bits.TMR0IF = 0;
  5388   003592  010E               	movlb	14	; () banked
  5389   003594  9BCA               	bcf	202,5,b	;volatile
  5390                           
  5391                           ; BSR set to: 14
  5392                           ;mcc_generated_files/tmr0.c: 87:     PIE0bits.TMR0IE = 1;
  5393   003596  8BC2               	bsf	194,5,b	;volatile
  5394                           
  5395                           ; BSR set to: 14
  5396                           ;mcc_generated_files/tmr0.c: 90:     TMR0_SetInterruptHandler(TMR0_DefaultInterruptHandl
      +                          er);
  5397   003598  0E0E               	movlw	low _TMR0_DefaultInterruptHandler
  5398   00359A  0100               	movlb	0	; () banked
  5399   00359C  6F60               	movwf	TMR0_SetInterruptHandler@InterruptHandler& (0+255),b
  5400   00359E  0E3B               	movlw	high _TMR0_DefaultInterruptHandler
  5401   0035A0  6F61               	movwf	(TMR0_SetInterruptHandler@InterruptHandler+1)& (0+255),b
  5402   0035A2  0E00               	movlw	low (_TMR0_DefaultInterruptHandler shr (0+16))
  5403   0035A4  6F62               	movwf	(TMR0_SetInterruptHandler@InterruptHandler+2)& (0+255),b
  5404   0035A6  ECB8  F01D         	call	_TMR0_SetInterruptHandler	;wreg free
  5405                           
  5406                           ;mcc_generated_files/tmr0.c: 93:     T0CON0 = 0x90;
  5407   0035AA  0E90               	movlw	144
  5408   0035AC  6ED5               	movwf	213,c	;volatile
  5409   0035AE  0012               	return		;funcret
  5410   0035B0                     __end_of_TMR0_Initialize:
  5411                           	callstack 0
  5412                           
  5413 ;; *************** function _TMR0_SetInterruptHandler *****************
  5414 ;; Defined at:
  5415 ;;		line 152 in file "mcc_generated_files/tmr0.c"
  5416 ;; Parameters:    Size  Location     Type
  5417 ;;  InterruptHan    3    0[BANK0 ] PTR FTN()void 
  5418 ;;		 -> TMR0_DefaultInterruptHandler(1), 
  5419 ;; Auto vars:     Size  Location     Type
  5420 ;;		None
  5421 ;; Return value:  Size  Location     Type
  5422 ;;                  1    wreg      void 
  5423 ;; Registers used:
  5424 ;;		wreg, status,2, status,0
  5425 ;; Tracked objects:
  5426 ;;		On entry : 0/0
  5427 ;;		On exit  : 0/0
  5428 ;;		Unchanged: 0/0
  5429 ;; Data sizes:     COMRAM   BANK0   BANK1   BANK2   BANK3   BANK4   BANK5   BANK6   BANK7   BANK8   BANK9  BANK10  BANK1
      +1  BANK12  BANK13  BANK14
  5430 ;;      Params:         0       3       0       0       0       0       0       0       0       0       0       0       
      +0       0       0       0
  5431 ;;      Locals:         0       0       0       0       0       0       0       0       0       0       0       0       
      +0       0       0       0
  5432 ;;      Temps:          0       0       0       0       0       0       0       0       0       0       0       0       
      +0       0       0       0
  5433 ;;      Totals:         0       3       0       0       0       0       0       0       0       0       0       0       
      +0       0       0       0
  5434 ;;Total ram usage:        3 bytes
  5435 ;; Hardware stack levels used: 1
  5436 ;; Hardware stack levels required when called: 5
  5437 ;; This function calls:
  5438 ;;		Nothing
  5439 ;; This function is called by:
  5440 ;;		_TMR0_Initialize
  5441 ;; This function uses a non-reentrant model
  5442 ;;
  5443                           
  5444                           	psect	text21
  5445   003B70                     __ptext21:
  5446                           	callstack 0
  5447   003B70                     _TMR0_SetInterruptHandler:
  5448                           	callstack 23
  5449                           
  5450                           ;mcc_generated_files/tmr0.c: 153:     TMR0_InterruptHandler = InterruptHandler;
  5451                           
  5452                           ;incstack = 0
  5453   003B70  C060  F161         	movff	TMR0_SetInterruptHandler@InterruptHandler,_TMR0_InterruptHandler
  5454   003B74  C061  F162         	movff	TMR0_SetInterruptHandler@InterruptHandler+1,_TMR0_InterruptHandler+1
  5455   003B78  C062  F163         	movff	TMR0_SetInterruptHandler@InterruptHandler+2,_TMR0_InterruptHandler+2
  5456   003B7C  0012               	return		;funcret
  5457   003B7E                     __end_of_TMR0_SetInterruptHandler:
  5458                           	callstack 0
  5459                           
  5460 ;; *************** function _PWM2_Initialize *****************
  5461 ;; Defined at:
  5462 ;;		line 64 in file "mcc_generated_files/pwm2.c"
  5463 ;; Parameters:    Size  Location     Type
  5464 ;;		None
  5465 ;; Auto vars:     Size  Location     Type
  5466 ;;		None
  5467 ;; Return value:  Size  Location     Type
  5468 ;;                  1    wreg      void 
  5469 ;; Registers used:
  5470 ;;		wreg, status,2
  5471 ;; Tracked objects:
  5472 ;;		On entry : 0/0
  5473 ;;		On exit  : 0/0
  5474 ;;		Unchanged: 0/0
  5475 ;; Data sizes:     COMRAM   BANK0   BANK1   BANK2   BANK3   BANK4   BANK5   BANK6   BANK7   BANK8   BANK9  BANK10  BANK1
      +1  BANK12  BANK13  BANK14
  5476 ;;      Params:         0       0       0       0       0       0       0       0       0       0       0       0       
      +0       0       0       0
  5477 ;;      Locals:         0       0       0       0       0       0       0       0       0       0       0       0       
      +0       0       0       0
  5478 ;;      Temps:          0       0       0       0       0       0       0       0       0       0       0       0       
      +0       0       0       0
  5479 ;;      Totals:         0       0       0       0       0       0       0       0       0       0       0       0       
      +0       0       0       0
  5480 ;;Total ram usage:        0 bytes
  5481 ;; Hardware stack levels used: 1
  5482 ;; Hardware stack levels required when called: 5
  5483 ;; This function calls:
  5484 ;;		Nothing
  5485 ;; This function is called by:
  5486 ;;		_SYSTEM_Initialize
  5487 ;; This function uses a non-reentrant model
  5488 ;;
  5489                           
  5490                           	psect	text22
  5491   003AA6                     __ptext22:
  5492                           	callstack 0
  5493   003AA6                     _PWM2_Initialize:
  5494                           	callstack 24
  5495                           
  5496                           ;mcc_generated_files/pwm2.c: 69:  CCP2CON = 0x8C;
  5497                           
  5498                           ;incstack = 0
  5499   003AA6  0E8C               	movlw	140
  5500   003AA8  6EA8               	movwf	168,c	;volatile
  5501                           
  5502                           ;mcc_generated_files/pwm2.c: 72:  CCPR2H = 0x01;
  5503   003AAA  0E01               	movlw	1
  5504   003AAC  6EA7               	movwf	167,c	;volatile
  5505                           
  5506                           ;mcc_generated_files/pwm2.c: 75:  CCPR2L = 0x8F;
  5507   003AAE  0E8F               	movlw	143
  5508   003AB0  6EA6               	movwf	166,c	;volatile
  5509                           
  5510                           ;mcc_generated_files/pwm2.c: 78:  CCPTMRSbits.C2TSEL = 0x1;
  5511   003AB2  50AE               	movf	174,w,c	;volatile
  5512   003AB4  0BF3               	andlw	-13
  5513   003AB6  0904               	iorlw	4
  5514   003AB8  6EAE               	movwf	174,c	;volatile
  5515   003ABA  0012               	return		;funcret
  5516   003ABC                     __end_of_PWM2_Initialize:
  5517                           	callstack 0
  5518                           
  5519 ;; *************** function _PWM1_Initialize *****************
  5520 ;; Defined at:
  5521 ;;		line 64 in file "mcc_generated_files/pwm1.c"
  5522 ;; Parameters:    Size  Location     Type
  5523 ;;		None
  5524 ;; Auto vars:     Size  Location     Type
  5525 ;;		None
  5526 ;; Return value:  Size  Location     Type
  5527 ;;                  1    wreg      void 
  5528 ;; Registers used:
  5529 ;;		wreg, status,2
  5530 ;; Tracked objects:
  5531 ;;		On entry : 0/0
  5532 ;;		On exit  : 0/0
  5533 ;;		Unchanged: 0/0
  5534 ;; Data sizes:     COMRAM   BANK0   BANK1   BANK2   BANK3   BANK4   BANK5   BANK6   BANK7   BANK8   BANK9  BANK10  BANK1
      +1  BANK12  BANK13  BANK14
  5535 ;;      Params:         0       0       0       0       0       0       0       0       0       0       0       0       
      +0       0       0       0
  5536 ;;      Locals:         0       0       0       0       0       0       0       0       0       0       0       0       
      +0       0       0       0
  5537 ;;      Temps:          0       0       0       0       0       0       0       0       0       0       0       0       
      +0       0       0       0
  5538 ;;      Totals:         0       0       0       0       0       0       0       0       0       0       0       0       
      +0       0       0       0
  5539 ;;Total ram usage:        0 bytes
  5540 ;; Hardware stack levels used: 1
  5541 ;; Hardware stack levels required when called: 5
  5542 ;; This function calls:
  5543 ;;		Nothing
  5544 ;; This function is called by:
  5545 ;;		_SYSTEM_Initialize
  5546 ;; This function uses a non-reentrant model
  5547 ;;
  5548                           
  5549                           	psect	text23
  5550   003ABC                     __ptext23:
  5551                           	callstack 0
  5552   003ABC                     _PWM1_Initialize:
  5553                           	callstack 24
  5554                           
  5555                           ;mcc_generated_files/pwm1.c: 69:  CCP1CON = 0x8C;
  5556                           
  5557                           ;incstack = 0
  5558   003ABC  0E8C               	movlw	140
  5559   003ABE  6EAC               	movwf	172,c	;volatile
  5560                           
  5561                           ;mcc_generated_files/pwm1.c: 72:  CCPR1H = 0x01;
  5562   003AC0  0E01               	movlw	1
  5563   003AC2  6EAB               	movwf	171,c	;volatile
  5564                           
  5565                           ;mcc_generated_files/pwm1.c: 75:  CCPR1L = 0x8F;
  5566   003AC4  0E8F               	movlw	143
  5567   003AC6  6EAA               	movwf	170,c	;volatile
  5568                           
  5569                           ;mcc_generated_files/pwm1.c: 78:  CCPTMRSbits.C1TSEL = 0x1;
  5570   003AC8  50AE               	movf	174,w,c	;volatile
  5571   003ACA  0BFC               	andlw	-4
  5572   003ACC  0901               	iorlw	1
  5573   003ACE  6EAE               	movwf	174,c	;volatile
  5574   003AD0  0012               	return		;funcret
  5575   003AD2                     __end_of_PWM1_Initialize:
  5576                           	callstack 0
  5577                           
  5578 ;; *************** function _PMD_Initialize *****************
  5579 ;; Defined at:
  5580 ;;		line 82 in file "mcc_generated_files/mcc.c"
  5581 ;; Parameters:    Size  Location     Type
  5582 ;;		None
  5583 ;; Auto vars:     Size  Location     Type
  5584 ;;		None
  5585 ;; Return value:  Size  Location     Type
  5586 ;;                  1    wreg      void 
  5587 ;; Registers used:
  5588 ;;		wreg, status,2
  5589 ;; Tracked objects:
  5590 ;;		On entry : 0/0
  5591 ;;		On exit  : 0/0
  5592 ;;		Unchanged: 0/0
  5593 ;; Data sizes:     COMRAM   BANK0   BANK1   BANK2   BANK3   BANK4   BANK5   BANK6   BANK7   BANK8   BANK9  BANK10  BANK1
      +1  BANK12  BANK13  BANK14
  5594 ;;      Params:         0       0       0       0       0       0       0       0       0       0       0       0       
      +0       0       0       0
  5595 ;;      Locals:         0       0       0       0       0       0       0       0       0       0       0       0       
      +0       0       0       0
  5596 ;;      Temps:          0       0       0       0       0       0       0       0       0       0       0       0       
      +0       0       0       0
  5597 ;;      Totals:         0       0       0       0       0       0       0       0       0       0       0       0       
      +0       0       0       0
  5598 ;;Total ram usage:        0 bytes
  5599 ;; Hardware stack levels used: 1
  5600 ;; Hardware stack levels required when called: 5
  5601 ;; This function calls:
  5602 ;;		Nothing
  5603 ;; This function is called by:
  5604 ;;		_SYSTEM_Initialize
  5605 ;; This function uses a non-reentrant model
  5606 ;;
  5607                           
  5608                           	psect	text24
  5609   0039D2                     __ptext24:
  5610                           	callstack 0
  5611   0039D2                     _PMD_Initialize:
  5612                           	callstack 24
  5613                           
  5614                           ;mcc_generated_files/mcc.c: 85:     PMD0 = 0x00;
  5615                           
  5616                           ;incstack = 0
  5617   0039D2  0E00               	movlw	0
  5618   0039D4  010E               	movlb	14	; () banked
  5619   0039D6  6FE1               	movwf	225,b	;volatile
  5620                           
  5621                           ;mcc_generated_files/mcc.c: 87:     PMD1 = 0x00;
  5622   0039D8  0E00               	movlw	0
  5623   0039DA  6FE2               	movwf	226,b	;volatile
  5624                           
  5625                           ;mcc_generated_files/mcc.c: 89:     PMD2 = 0x00;
  5626   0039DC  0E00               	movlw	0
  5627   0039DE  6FE3               	movwf	227,b	;volatile
  5628                           
  5629                           ;mcc_generated_files/mcc.c: 91:     PMD3 = 0x00;
  5630   0039E0  0E00               	movlw	0
  5631   0039E2  6FE4               	movwf	228,b	;volatile
  5632                           
  5633                           ;mcc_generated_files/mcc.c: 93:     PMD4 = 0x00;
  5634   0039E4  0E00               	movlw	0
  5635   0039E6  6FE5               	movwf	229,b	;volatile
  5636                           
  5637                           ;mcc_generated_files/mcc.c: 95:     PMD5 = 0x00;
  5638   0039E8  0E00               	movlw	0
  5639   0039EA  6FE6               	movwf	230,b	;volatile
  5640                           
  5641                           ; BSR set to: 14
  5642   0039EC  0012               	return		;funcret
  5643   0039EE                     __end_of_PMD_Initialize:
  5644                           	callstack 0
  5645                           
  5646 ;; *************** function _PIN_MANAGER_Initialize *****************
  5647 ;; Defined at:
  5648 ;;		line 66 in file "mcc_generated_files/pin_manager.c"
  5649 ;; Parameters:    Size  Location     Type
  5650 ;;		None
  5651 ;; Auto vars:     Size  Location     Type
  5652 ;;		None
  5653 ;; Return value:  Size  Location     Type
  5654 ;;                  1    wreg      void 
  5655 ;; Registers used:
  5656 ;;		wreg, status,2, status,0, cstack
  5657 ;; Tracked objects:
  5658 ;;		On entry : 0/0
  5659 ;;		On exit  : 0/0
  5660 ;;		Unchanged: 0/0
  5661 ;; Data sizes:     COMRAM   BANK0   BANK1   BANK2   BANK3   BANK4   BANK5   BANK6   BANK7   BANK8   BANK9  BANK10  BANK1
      +1  BANK12  BANK13  BANK14
  5662 ;;      Params:         0       0       0       0       0       0       0       0       0       0       0       0       
      +0       0       0       0
  5663 ;;      Locals:         0       0       0       0       0       0       0       0       0       0       0       0       
      +0       0       0       0
  5664 ;;      Temps:          0       0       0       0       0       0       0       0       0       0       0       0       
      +0       0       0       0
  5665 ;;      Totals:         0       0       0       0       0       0       0       0       0       0       0       0       
      +0       0       0       0
  5666 ;;Total ram usage:        0 bytes
  5667 ;; Hardware stack levels used: 1
  5668 ;; Hardware stack levels required when called: 6
  5669 ;; This function calls:
  5670 ;;		_IOCAF5_SetInterruptHandler
  5671 ;;		_IOCAF6_SetInterruptHandler
  5672 ;;		_IOCAF7_SetInterruptHandler
  5673 ;;		_IOCCF0_SetInterruptHandler
  5674 ;; This function is called by:
  5675 ;;		_SYSTEM_Initialize
  5676 ;; This function uses a non-reentrant model
  5677 ;;
  5678                           
  5679                           	psect	text25
  5680   002CF2                     __ptext25:
  5681                           	callstack 0
  5682   002CF2                     _PIN_MANAGER_Initialize:
  5683                           	callstack 23
  5684                           
  5685                           ;mcc_generated_files/pin_manager.c: 71:     LATE = 0x00;
  5686                           
  5687                           ; BSR set to: 14
  5688                           ;incstack = 0
  5689   002CF2  0E00               	movlw	0
  5690   002CF4  6E87               	movwf	135,c	;volatile
  5691                           
  5692                           ;mcc_generated_files/pin_manager.c: 72:     LATD = 0x00;
  5693   002CF6  0E00               	movlw	0
  5694   002CF8  6E86               	movwf	134,c	;volatile
  5695                           
  5696                           ;mcc_generated_files/pin_manager.c: 73:     LATA = 0x00;
  5697   002CFA  0E00               	movlw	0
  5698   002CFC  6E83               	movwf	131,c	;volatile
  5699                           
  5700                           ;mcc_generated_files/pin_manager.c: 74:     LATB = 0x00;
  5701   002CFE  0E00               	movlw	0
  5702   002D00  6E84               	movwf	132,c	;volatile
  5703                           
  5704                           ;mcc_generated_files/pin_manager.c: 75:     LATC = 0x00;
  5705   002D02  0E00               	movlw	0
  5706   002D04  6E85               	movwf	133,c	;volatile
  5707                           
  5708                           ;mcc_generated_files/pin_manager.c: 80:     TRISE = 0x02;
  5709   002D06  0E02               	movlw	2
  5710   002D08  6E8C               	movwf	140,c	;volatile
  5711                           
  5712                           ;mcc_generated_files/pin_manager.c: 81:     TRISA = 0xE0;
  5713   002D0A  0EE0               	movlw	224
  5714   002D0C  6E88               	movwf	136,c	;volatile
  5715                           
  5716                           ;mcc_generated_files/pin_manager.c: 82:     TRISB = 0xC7;
  5717   002D0E  0EC7               	movlw	199
  5718   002D10  6E89               	movwf	137,c	;volatile
  5719                           
  5720                           ;mcc_generated_files/pin_manager.c: 83:     TRISC = 0x99;
  5721   002D12  0E99               	movlw	153
  5722   002D14  6E8A               	movwf	138,c	;volatile
  5723                           
  5724                           ;mcc_generated_files/pin_manager.c: 84:     TRISD = 0xE3;
  5725   002D16  0EE3               	movlw	227
  5726   002D18  6E8B               	movwf	139,c	;volatile
  5727                           
  5728                           ;mcc_generated_files/pin_manager.c: 89:     ANSELD = 0x1C;
  5729   002D1A  0E1C               	movlw	28
  5730   002D1C  010F               	movlb	15	; () banked
  5731   002D1E  6F26               	movwf	38,b	;volatile
  5732                           
  5733                           ;mcc_generated_files/pin_manager.c: 90:     ANSELC = 0x66;
  5734   002D20  0E66               	movlw	102
  5735   002D22  6F21               	movwf	33,b	;volatile
  5736                           
  5737                           ;mcc_generated_files/pin_manager.c: 91:     ANSELB = 0xF8;
  5738   002D24  0EF8               	movlw	248
  5739   002D26  6F19               	movwf	25,b	;volatile
  5740                           
  5741                           ;mcc_generated_files/pin_manager.c: 92:     ANSELE = 0x05;
  5742   002D28  0E05               	movlw	5
  5743   002D2A  6F2E               	movwf	46,b	;volatile
  5744                           
  5745                           ;mcc_generated_files/pin_manager.c: 93:     ANSELA = 0x1F;
  5746   002D2C  0E1F               	movlw	31
  5747   002D2E  6F11               	movwf	17,b	;volatile
  5748                           
  5749                           ;mcc_generated_files/pin_manager.c: 98:     WPUD = 0x06;
  5750   002D30  0E06               	movlw	6
  5751   002D32  6F25               	movwf	37,b	;volatile
  5752                           
  5753                           ;mcc_generated_files/pin_manager.c: 99:     WPUE = 0x00;
  5754   002D34  0E00               	movlw	0
  5755   002D36  6F2D               	movwf	45,b	;volatile
  5756                           
  5757                           ;mcc_generated_files/pin_manager.c: 100:     WPUB = 0x00;
  5758   002D38  0E00               	movlw	0
  5759   002D3A  6F18               	movwf	24,b	;volatile
  5760                           
  5761                           ;mcc_generated_files/pin_manager.c: 101:     WPUA = 0xC0;
  5762   002D3C  0EC0               	movlw	192
  5763   002D3E  6F10               	movwf	16,b	;volatile
  5764                           
  5765                           ;mcc_generated_files/pin_manager.c: 102:     WPUC = 0x00;
  5766   002D40  0E00               	movlw	0
  5767   002D42  6F20               	movwf	32,b	;volatile
  5768                           
  5769                           ;mcc_generated_files/pin_manager.c: 107:     ODCONE = 0x00;
  5770   002D44  0E00               	movlw	0
  5771   002D46  6F2C               	movwf	44,b	;volatile
  5772                           
  5773                           ;mcc_generated_files/pin_manager.c: 108:     ODCONA = 0x00;
  5774   002D48  0E00               	movlw	0
  5775   002D4A  6F0F               	movwf	15,b	;volatile
  5776                           
  5777                           ;mcc_generated_files/pin_manager.c: 109:     ODCONB = 0x00;
  5778   002D4C  0E00               	movlw	0
  5779   002D4E  6F17               	movwf	23,b	;volatile
  5780                           
  5781                           ;mcc_generated_files/pin_manager.c: 110:     ODCONC = 0x00;
  5782   002D50  0E00               	movlw	0
  5783   002D52  6F1F               	movwf	31,b	;volatile
  5784                           
  5785                           ;mcc_generated_files/pin_manager.c: 111:     ODCOND = 0x00;
  5786   002D54  0E00               	movlw	0
  5787   002D56  6F24               	movwf	36,b	;volatile
  5788                           
  5789                           ; BSR set to: 15
  5790                           ;mcc_generated_files/pin_manager.c: 116:     SLRCONA = 0xFF;
  5791   002D58  690E               	setf	14,b	;volatile
  5792                           
  5793                           ; BSR set to: 15
  5794                           ;mcc_generated_files/pin_manager.c: 117:     SLRCONB = 0xFF;
  5795   002D5A  6916               	setf	22,b	;volatile
  5796                           
  5797                           ; BSR set to: 15
  5798                           ;mcc_generated_files/pin_manager.c: 118:     SLRCONC = 0xFF;
  5799   002D5C  691E               	setf	30,b	;volatile
  5800                           
  5801                           ; BSR set to: 15
  5802                           ;mcc_generated_files/pin_manager.c: 119:     SLRCOND = 0xFF;
  5803   002D5E  6923               	setf	35,b	;volatile
  5804                           
  5805                           ;mcc_generated_files/pin_manager.c: 120:     SLRCONE = 0x07;
  5806   002D60  0E07               	movlw	7
  5807   002D62  6F2B               	movwf	43,b	;volatile
  5808                           
  5809                           ; BSR set to: 15
  5810                           ;mcc_generated_files/pin_manager.c: 125:     INLVLA = 0xFF;
  5811   002D64  690D               	setf	13,b	;volatile
  5812                           
  5813                           ; BSR set to: 15
  5814                           ;mcc_generated_files/pin_manager.c: 126:     INLVLB = 0xFF;
  5815   002D66  6915               	setf	21,b	;volatile
  5816                           
  5817                           ; BSR set to: 15
  5818                           ;mcc_generated_files/pin_manager.c: 127:     INLVLC = 0xFF;
  5819   002D68  691D               	setf	29,b	;volatile
  5820                           
  5821                           ; BSR set to: 15
  5822                           ;mcc_generated_files/pin_manager.c: 128:     INLVLD = 0xFF;
  5823   002D6A  6922               	setf	34,b	;volatile
  5824                           
  5825                           ;mcc_generated_files/pin_manager.c: 129:     INLVLE = 0x0F;
  5826   002D6C  0E0F               	movlw	15
  5827   002D6E  6F2A               	movwf	42,b	;volatile
  5828                           
  5829                           ; BSR set to: 15
  5830                           ;mcc_generated_files/pin_manager.c: 136:     IOCAFbits.IOCAF5 = 0;
  5831   002D70  9B0A               	bcf	10,5,b	;volatile
  5832                           
  5833                           ; BSR set to: 15
  5834                           ;mcc_generated_files/pin_manager.c: 138:     IOCAFbits.IOCAF6 = 0;
  5835   002D72  9D0A               	bcf	10,6,b	;volatile
  5836                           
  5837                           ; BSR set to: 15
  5838                           ;mcc_generated_files/pin_manager.c: 140:     IOCAFbits.IOCAF7 = 0;
  5839   002D74  9F0A               	bcf	10,7,b	;volatile
  5840                           
  5841                           ; BSR set to: 15
  5842                           ;mcc_generated_files/pin_manager.c: 142:     IOCANbits.IOCAN5 = 1;
  5843   002D76  8B0B               	bsf	11,5,b	;volatile
  5844                           
  5845                           ; BSR set to: 15
  5846                           ;mcc_generated_files/pin_manager.c: 144:     IOCANbits.IOCAN6 = 1;
  5847   002D78  8D0B               	bsf	11,6,b	;volatile
  5848                           
  5849                           ; BSR set to: 15
  5850                           ;mcc_generated_files/pin_manager.c: 146:     IOCANbits.IOCAN7 = 1;
  5851   002D7A  8F0B               	bsf	11,7,b	;volatile
  5852                           
  5853                           ; BSR set to: 15
  5854                           ;mcc_generated_files/pin_manager.c: 148:     IOCAPbits.IOCAP5 = 0;
  5855   002D7C  9B0C               	bcf	12,5,b	;volatile
  5856                           
  5857                           ; BSR set to: 15
  5858                           ;mcc_generated_files/pin_manager.c: 150:     IOCAPbits.IOCAP6 = 1;
  5859   002D7E  8D0C               	bsf	12,6,b	;volatile
  5860                           
  5861                           ; BSR set to: 15
  5862                           ;mcc_generated_files/pin_manager.c: 152:     IOCAPbits.IOCAP7 = 0;
  5863   002D80  9F0C               	bcf	12,7,b	;volatile
  5864                           
  5865                           ; BSR set to: 15
  5866                           ;mcc_generated_files/pin_manager.c: 154:     IOCCFbits.IOCCF0 = 0;
  5867   002D82  911A               	bcf	26,0,b	;volatile
  5868                           
  5869                           ; BSR set to: 15
  5870                           ;mcc_generated_files/pin_manager.c: 156:     IOCCNbits.IOCCN0 = 1;
  5871   002D84  811B               	bsf	27,0,b	;volatile
  5872                           
  5873                           ; BSR set to: 15
  5874                           ;mcc_generated_files/pin_manager.c: 158:     IOCCPbits.IOCCP0 = 0;
  5875   002D86  911C               	bcf	28,0,b	;volatile
  5876                           
  5877                           ; BSR set to: 15
  5878                           ;mcc_generated_files/pin_manager.c: 163:     IOCAF5_SetInterruptHandler(IOCAF5_DefaultIn
      +                          terruptHandler);
  5879   002D88  0EF4               	movlw	low _IOCAF5_DefaultInterruptHandler
  5880   002D8A  0100               	movlb	0	; () banked
  5881   002D8C  6F60               	movwf	IOCAF5_SetInterruptHandler@InterruptHandler& (0+255),b
  5882   002D8E  0E33               	movlw	high _IOCAF5_DefaultInterruptHandler
  5883   002D90  6F61               	movwf	(IOCAF5_SetInterruptHandler@InterruptHandler+1)& (0+255),b
  5884   002D92  0E00               	movlw	low (_IOCAF5_DefaultInterruptHandler shr (0+16))
  5885   002D94  6F62               	movwf	(IOCAF5_SetInterruptHandler@InterruptHandler+2)& (0+255),b
  5886   002D96  ECD4  F01D         	call	_IOCAF5_SetInterruptHandler	;wreg free
  5887                           
  5888                           ;mcc_generated_files/pin_manager.c: 164:     IOCAF6_SetInterruptHandler(IOCAF6_DefaultIn
      +                          terruptHandler);
  5889   002D9A  0E24               	movlw	low _IOCAF6_DefaultInterruptHandler
  5890   002D9C  0100               	movlb	0	; () banked
  5891   002D9E  6F60               	movwf	IOCAF6_SetInterruptHandler@InterruptHandler& (0+255),b
  5892   002DA0  0E35               	movlw	high _IOCAF6_DefaultInterruptHandler
  5893   002DA2  6F61               	movwf	(IOCAF6_SetInterruptHandler@InterruptHandler+1)& (0+255),b
  5894   002DA4  0E00               	movlw	low (_IOCAF6_DefaultInterruptHandler shr (0+16))
  5895   002DA6  6F62               	movwf	(IOCAF6_SetInterruptHandler@InterruptHandler+2)& (0+255),b
  5896   002DA8  ECCD  F01D         	call	_IOCAF6_SetInterruptHandler	;wreg free
  5897                           
  5898                           ;mcc_generated_files/pin_manager.c: 165:     IOCAF7_SetInterruptHandler(IOCAF7_DefaultIn
      +                          terruptHandler);
  5899   002DAC  0E22               	movlw	low _IOCAF7_DefaultInterruptHandler
  5900   002DAE  0100               	movlb	0	; () banked
  5901   002DB0  6F60               	movwf	IOCAF7_SetInterruptHandler@InterruptHandler& (0+255),b
  5902   002DB2  0E3C               	movlw	high _IOCAF7_DefaultInterruptHandler
  5903   002DB4  6F61               	movwf	(IOCAF7_SetInterruptHandler@InterruptHandler+1)& (0+255),b
  5904   002DB6  0E00               	movlw	low (_IOCAF7_DefaultInterruptHandler shr (0+16))
  5905   002DB8  6F62               	movwf	(IOCAF7_SetInterruptHandler@InterruptHandler+2)& (0+255),b
  5906   002DBA  ECC6  F01D         	call	_IOCAF7_SetInterruptHandler	;wreg free
  5907                           
  5908                           ;mcc_generated_files/pin_manager.c: 166:     IOCCF0_SetInterruptHandler(IOCCF0_DefaultIn
      +                          terruptHandler);
  5909   002DBE  0EA4               	movlw	low _IOCCF0_DefaultInterruptHandler
  5910   002DC0  0100               	movlb	0	; () banked
  5911   002DC2  6F60               	movwf	IOCCF0_SetInterruptHandler@InterruptHandler& (0+255),b
  5912   002DC4  0E33               	movlw	high _IOCCF0_DefaultInterruptHandler
  5913   002DC6  6F61               	movwf	(IOCCF0_SetInterruptHandler@InterruptHandler+1)& (0+255),b
  5914   002DC8  0E00               	movlw	low (_IOCCF0_DefaultInterruptHandler shr (0+16))
  5915   002DCA  6F62               	movwf	(IOCCF0_SetInterruptHandler@InterruptHandler+2)& (0+255),b
  5916   002DCC  ECBF  F01D         	call	_IOCCF0_SetInterruptHandler	;wreg free
  5917                           
  5918                           ;mcc_generated_files/pin_manager.c: 169:     PIE0bits.IOCIE = 1;
  5919   002DD0  010E               	movlb	14	; () banked
  5920   002DD2  89C2               	bsf	194,4,b	;volatile
  5921                           
  5922                           ;mcc_generated_files/pin_manager.c: 172:     SSP1CLKPPS = 0x13;
  5923   002DD4  0E13               	movlw	19
  5924   002DD6  6FB7               	movwf	183,b	;volatile
  5925                           
  5926                           ;mcc_generated_files/pin_manager.c: 173:     RX1PPS = 0x17;
  5927   002DD8  0E17               	movlw	23
  5928   002DDA  6FB5               	movwf	181,b	;volatile
  5929                           
  5930                           ;mcc_generated_files/pin_manager.c: 174:     RC3PPS = 0x0F;
  5931   002DDC  0E0F               	movlw	15
  5932   002DDE  6FFA               	movwf	250,b	;volatile
  5933                           
  5934                           ;mcc_generated_files/pin_manager.c: 175:     RC1PPS = 0x06;
  5935   002DE0  0E06               	movlw	6
  5936   002DE2  6FF8               	movwf	248,b	;volatile
  5937                           
  5938                           ;mcc_generated_files/pin_manager.c: 176:     RC4PPS = 0x10;
  5939   002DE4  0E10               	movlw	16
  5940   002DE6  6FFB               	movwf	251,b	;volatile
  5941                           
  5942                           ;mcc_generated_files/pin_manager.c: 177:     RC2PPS = 0x05;
  5943   002DE8  0E05               	movlw	5
  5944   002DEA  6FF9               	movwf	249,b	;volatile
  5945                           
  5946                           ;mcc_generated_files/pin_manager.c: 178:     RC6PPS = 0x09;
  5947   002DEC  0E09               	movlw	9
  5948   002DEE  6FFD               	movwf	253,b	;volatile
  5949                           
  5950                           ;mcc_generated_files/pin_manager.c: 179:     SSP1DATPPS = 0x14;
  5951   002DF0  0E14               	movlw	20
  5952   002DF2  6FB8               	movwf	184,b	;volatile
  5953                           
  5954                           ; BSR set to: 14
  5955   002DF4  0012               	return		;funcret
  5956   002DF6                     __end_of_PIN_MANAGER_Initialize:
  5957                           	callstack 0
  5958                           
  5959 ;; *************** function _IOCCF0_SetInterruptHandler *****************
  5960 ;; Defined at:
  5961 ;;		line 353 in file "mcc_generated_files/pin_manager.c"
  5962 ;; Parameters:    Size  Location     Type
  5963 ;;  InterruptHan    3    0[BANK0 ] PTR FTN()void 
  5964 ;;		 -> IOCCF0_DefaultInterruptHandler(1), 
  5965 ;; Auto vars:     Size  Location     Type
  5966 ;;		None
  5967 ;; Return value:  Size  Location     Type
  5968 ;;                  1    wreg      void 
  5969 ;; Registers used:
  5970 ;;		wreg, status,2, status,0
  5971 ;; Tracked objects:
  5972 ;;		On entry : 0/0
  5973 ;;		On exit  : 0/0
  5974 ;;		Unchanged: 0/0
  5975 ;; Data sizes:     COMRAM   BANK0   BANK1   BANK2   BANK3   BANK4   BANK5   BANK6   BANK7   BANK8   BANK9  BANK10  BANK1
      +1  BANK12  BANK13  BANK14
  5976 ;;      Params:         0       3       0       0       0       0       0       0       0       0       0       0       
      +0       0       0       0
  5977 ;;      Locals:         0       0       0       0       0       0       0       0       0       0       0       0       
      +0       0       0       0
  5978 ;;      Temps:          0       0       0       0       0       0       0       0       0       0       0       0       
      +0       0       0       0
  5979 ;;      Totals:         0       3       0       0       0       0       0       0       0       0       0       0       
      +0       0       0       0
  5980 ;;Total ram usage:        3 bytes
  5981 ;; Hardware stack levels used: 1
  5982 ;; Hardware stack levels required when called: 5
  5983 ;; This function calls:
  5984 ;;		Nothing
  5985 ;; This function is called by:
  5986 ;;		_PIN_MANAGER_Initialize
  5987 ;; This function uses a non-reentrant model
  5988 ;;
  5989                           
  5990                           	psect	text26
  5991   003B7E                     __ptext26:
  5992                           	callstack 0
  5993   003B7E                     _IOCCF0_SetInterruptHandler:
  5994                           	callstack 23
  5995                           
  5996                           ;mcc_generated_files/pin_manager.c: 354:     IOCCF0_InterruptHandler = InterruptHandler;
  5997                           
  5998                           ; BSR set to: 14
  5999                           ;incstack = 0
  6000   003B7E  C060  F164         	movff	IOCCF0_SetInterruptHandler@InterruptHandler,_IOCCF0_InterruptHandler
  6001   003B82  C061  F165         	movff	IOCCF0_SetInterruptHandler@InterruptHandler+1,_IOCCF0_InterruptHandler+1
  6002   003B86  C062  F166         	movff	IOCCF0_SetInterruptHandler@InterruptHandler+2,_IOCCF0_InterruptHandler+2
  6003   003B8A  0012               	return		;funcret
  6004   003B8C                     __end_of_IOCCF0_SetInterruptHandler:
  6005                           	callstack 0
  6006                           
  6007 ;; *************** function _IOCAF7_SetInterruptHandler *****************
  6008 ;; Defined at:
  6009 ;;		line 323 in file "mcc_generated_files/pin_manager.c"
  6010 ;; Parameters:    Size  Location     Type
  6011 ;;  InterruptHan    3    0[BANK0 ] PTR FTN()void 
  6012 ;;		 -> IOCAF7_DefaultInterruptHandler(1), 
  6013 ;; Auto vars:     Size  Location     Type
  6014 ;;		None
  6015 ;; Return value:  Size  Location     Type
  6016 ;;                  1    wreg      void 
  6017 ;; Registers used:
  6018 ;;		wreg, status,2, status,0
  6019 ;; Tracked objects:
  6020 ;;		On entry : 0/0
  6021 ;;		On exit  : 0/0
  6022 ;;		Unchanged: 0/0
  6023 ;; Data sizes:     COMRAM   BANK0   BANK1   BANK2   BANK3   BANK4   BANK5   BANK6   BANK7   BANK8   BANK9  BANK10  BANK1
      +1  BANK12  BANK13  BANK14
  6024 ;;      Params:         0       3       0       0       0       0       0       0       0       0       0       0       
      +0       0       0       0
  6025 ;;      Locals:         0       0       0       0       0       0       0       0       0       0       0       0       
      +0       0       0       0
  6026 ;;      Temps:          0       0       0       0       0       0       0       0       0       0       0       0       
      +0       0       0       0
  6027 ;;      Totals:         0       3       0       0       0       0       0       0       0       0       0       0       
      +0       0       0       0
  6028 ;;Total ram usage:        3 bytes
  6029 ;; Hardware stack levels used: 1
  6030 ;; Hardware stack levels required when called: 5
  6031 ;; This function calls:
  6032 ;;		Nothing
  6033 ;; This function is called by:
  6034 ;;		_PIN_MANAGER_Initialize
  6035 ;; This function uses a non-reentrant model
  6036 ;;
  6037                           
  6038                           	psect	text27
  6039   003B8C                     __ptext27:
  6040                           	callstack 0
  6041   003B8C                     _IOCAF7_SetInterruptHandler:
  6042                           	callstack 23
  6043                           
  6044                           ;mcc_generated_files/pin_manager.c: 324:     IOCAF7_InterruptHandler = InterruptHandler;
  6045                           
  6046                           ;incstack = 0
  6047   003B8C  C060  F167         	movff	IOCAF7_SetInterruptHandler@InterruptHandler,_IOCAF7_InterruptHandler
  6048   003B90  C061  F168         	movff	IOCAF7_SetInterruptHandler@InterruptHandler+1,_IOCAF7_InterruptHandler+1
  6049   003B94  C062  F169         	movff	IOCAF7_SetInterruptHandler@InterruptHandler+2,_IOCAF7_InterruptHandler+2
  6050   003B98  0012               	return		;funcret
  6051   003B9A                     __end_of_IOCAF7_SetInterruptHandler:
  6052                           	callstack 0
  6053                           
  6054 ;; *************** function _IOCAF6_SetInterruptHandler *****************
  6055 ;; Defined at:
  6056 ;;		line 268 in file "mcc_generated_files/pin_manager.c"
  6057 ;; Parameters:    Size  Location     Type
  6058 ;;  InterruptHan    3    0[BANK0 ] PTR FTN()void 
  6059 ;;		 -> IOCAF6_DefaultInterruptHandler(1), 
  6060 ;; Auto vars:     Size  Location     Type
  6061 ;;		None
  6062 ;; Return value:  Size  Location     Type
  6063 ;;                  1    wreg      void 
  6064 ;; Registers used:
  6065 ;;		wreg, status,2, status,0
  6066 ;; Tracked objects:
  6067 ;;		On entry : 0/0
  6068 ;;		On exit  : 0/0
  6069 ;;		Unchanged: 0/0
  6070 ;; Data sizes:     COMRAM   BANK0   BANK1   BANK2   BANK3   BANK4   BANK5   BANK6   BANK7   BANK8   BANK9  BANK10  BANK1
      +1  BANK12  BANK13  BANK14
  6071 ;;      Params:         0       3       0       0       0       0       0       0       0       0       0       0       
      +0       0       0       0
  6072 ;;      Locals:         0       0       0       0       0       0       0       0       0       0       0       0       
      +0       0       0       0
  6073 ;;      Temps:          0       0       0       0       0       0       0       0       0       0       0       0       
      +0       0       0       0
  6074 ;;      Totals:         0       3       0       0       0       0       0       0       0       0       0       0       
      +0       0       0       0
  6075 ;;Total ram usage:        3 bytes
  6076 ;; Hardware stack levels used: 1
  6077 ;; Hardware stack levels required when called: 5
  6078 ;; This function calls:
  6079 ;;		Nothing
  6080 ;; This function is called by:
  6081 ;;		_PIN_MANAGER_Initialize
  6082 ;; This function uses a non-reentrant model
  6083 ;;
  6084                           
  6085                           	psect	text28
  6086   003B9A                     __ptext28:
  6087                           	callstack 0
  6088   003B9A                     _IOCAF6_SetInterruptHandler:
  6089                           	callstack 23
  6090                           
  6091                           ;mcc_generated_files/pin_manager.c: 269:     IOCAF6_InterruptHandler = InterruptHandler;
  6092                           
  6093                           ;incstack = 0
  6094   003B9A  C060  F16A         	movff	IOCAF6_SetInterruptHandler@InterruptHandler,_IOCAF6_InterruptHandler
  6095   003B9E  C061  F16B         	movff	IOCAF6_SetInterruptHandler@InterruptHandler+1,_IOCAF6_InterruptHandler+1
  6096   003BA2  C062  F16C         	movff	IOCAF6_SetInterruptHandler@InterruptHandler+2,_IOCAF6_InterruptHandler+2
  6097   003BA6  0012               	return		;funcret
  6098   003BA8                     __end_of_IOCAF6_SetInterruptHandler:
  6099                           	callstack 0
  6100                           
  6101 ;; *************** function _IOCAF5_SetInterruptHandler *****************
  6102 ;; Defined at:
  6103 ;;		line 224 in file "mcc_generated_files/pin_manager.c"
  6104 ;; Parameters:    Size  Location     Type
  6105 ;;  InterruptHan    3    0[BANK0 ] PTR FTN()void 
  6106 ;;		 -> IOCAF5_DefaultInterruptHandler(1), 
  6107 ;; Auto vars:     Size  Location     Type
  6108 ;;		None
  6109 ;; Return value:  Size  Location     Type
  6110 ;;                  1    wreg      void 
  6111 ;; Registers used:
  6112 ;;		wreg, status,2, status,0
  6113 ;; Tracked objects:
  6114 ;;		On entry : 0/0
  6115 ;;		On exit  : 0/0
  6116 ;;		Unchanged: 0/0
  6117 ;; Data sizes:     COMRAM   BANK0   BANK1   BANK2   BANK3   BANK4   BANK5   BANK6   BANK7   BANK8   BANK9  BANK10  BANK1
      +1  BANK12  BANK13  BANK14
  6118 ;;      Params:         0       3       0       0       0       0       0       0       0       0       0       0       
      +0       0       0       0
  6119 ;;      Locals:         0       0       0       0       0       0       0       0       0       0       0       0       
      +0       0       0       0
  6120 ;;      Temps:          0       0       0       0       0       0       0       0       0       0       0       0       
      +0       0       0       0
  6121 ;;      Totals:         0       3       0       0       0       0       0       0       0       0       0       0       
      +0       0       0       0
  6122 ;;Total ram usage:        3 bytes
  6123 ;; Hardware stack levels used: 1
  6124 ;; Hardware stack levels required when called: 5
  6125 ;; This function calls:
  6126 ;;		Nothing
  6127 ;; This function is called by:
  6128 ;;		_PIN_MANAGER_Initialize
  6129 ;; This function uses a non-reentrant model
  6130 ;;
  6131                           
  6132                           	psect	text29
  6133   003BA8                     __ptext29:
  6134                           	callstack 0
  6135   003BA8                     _IOCAF5_SetInterruptHandler:
  6136                           	callstack 23
  6137                           
  6138                           ;mcc_generated_files/pin_manager.c: 225:     IOCAF5_InterruptHandler = InterruptHandler;
  6139                           
  6140                           ;incstack = 0
  6141   003BA8  C060  F16D         	movff	IOCAF5_SetInterruptHandler@InterruptHandler,_IOCAF5_InterruptHandler
  6142   003BAC  C061  F16E         	movff	IOCAF5_SetInterruptHandler@InterruptHandler+1,_IOCAF5_InterruptHandler+1
  6143   003BB0  C062  F16F         	movff	IOCAF5_SetInterruptHandler@InterruptHandler+2,_IOCAF5_InterruptHandler+2
  6144   003BB4  0012               	return		;funcret
  6145   003BB6                     __end_of_IOCAF5_SetInterruptHandler:
  6146                           	callstack 0
  6147                           
  6148 ;; *************** function _OSCILLATOR_Initialize *****************
  6149 ;; Defined at:
  6150 ;;		line 68 in file "mcc_generated_files/mcc.c"
  6151 ;; Parameters:    Size  Location     Type
  6152 ;;		None
  6153 ;; Auto vars:     Size  Location     Type
  6154 ;;		None
  6155 ;; Return value:  Size  Location     Type
  6156 ;;                  1    wreg      void 
  6157 ;; Registers used:
  6158 ;;		wreg, status,2
  6159 ;; Tracked objects:
  6160 ;;		On entry : 0/0
  6161 ;;		On exit  : 0/0
  6162 ;;		Unchanged: 0/0
  6163 ;; Data sizes:     COMRAM   BANK0   BANK1   BANK2   BANK3   BANK4   BANK5   BANK6   BANK7   BANK8   BANK9  BANK10  BANK1
      +1  BANK12  BANK13  BANK14
  6164 ;;      Params:         0       0       0       0       0       0       0       0       0       0       0       0       
      +0       0       0       0
  6165 ;;      Locals:         0       0       0       0       0       0       0       0       0       0       0       0       
      +0       0       0       0
  6166 ;;      Temps:          0       0       0       0       0       0       0       0       0       0       0       0       
      +0       0       0       0
  6167 ;;      Totals:         0       0       0       0       0       0       0       0       0       0       0       0       
      +0       0       0       0
  6168 ;;Total ram usage:        0 bytes
  6169 ;; Hardware stack levels used: 1
  6170 ;; Hardware stack levels required when called: 5
  6171 ;; This function calls:
  6172 ;;		Nothing
  6173 ;; This function is called by:
  6174 ;;		_SYSTEM_Initialize
  6175 ;; This function uses a non-reentrant model
  6176 ;;
  6177                           
  6178                           	psect	text30
  6179   003A78                     __ptext30:
  6180                           	callstack 0
  6181   003A78                     _OSCILLATOR_Initialize:
  6182                           	callstack 24
  6183                           
  6184                           ;mcc_generated_files/mcc.c: 71:     OSCCON1 = 0x60;
  6185                           
  6186                           ;incstack = 0
  6187   003A78  0E60               	movlw	96
  6188   003A7A  010E               	movlb	14	; () banked
  6189   003A7C  6FD8               	movwf	216,b	;volatile
  6190                           
  6191                           ;mcc_generated_files/mcc.c: 73:     OSCCON3 = 0x00;
  6192   003A7E  0E00               	movlw	0
  6193   003A80  6FDA               	movwf	218,b	;volatile
  6194                           
  6195                           ;mcc_generated_files/mcc.c: 75:     OSCEN = 0x00;
  6196   003A82  0E00               	movlw	0
  6197   003A84  6FDC               	movwf	220,b	;volatile
  6198                           
  6199                           ;mcc_generated_files/mcc.c: 77:     OSCFRQ = 0x08;
  6200   003A86  0E08               	movlw	8
  6201   003A88  6FDE               	movwf	222,b	;volatile
  6202                           
  6203                           ;mcc_generated_files/mcc.c: 79:     OSCTUNE = 0x00;
  6204   003A8A  0E00               	movlw	0
  6205   003A8C  6FDD               	movwf	221,b	;volatile
  6206                           
  6207                           ; BSR set to: 14
  6208   003A8E  0012               	return		;funcret
  6209   003A90                     __end_of_OSCILLATOR_Initialize:
  6210                           	callstack 0
  6211                           
  6212 ;; *************** function _INTERRUPT_Initialize *****************
  6213 ;; Defined at:
  6214 ;;		line 52 in file "mcc_generated_files/interrupt_manager.c"
  6215 ;; Parameters:    Size  Location     Type
  6216 ;;		None
  6217 ;; Auto vars:     Size  Location     Type
  6218 ;;		None
  6219 ;; Return value:  Size  Location     Type
  6220 ;;                  1    wreg      void 
  6221 ;; Registers used:
  6222 ;;		None
  6223 ;; Tracked objects:
  6224 ;;		On entry : 0/0
  6225 ;;		On exit  : 0/0
  6226 ;;		Unchanged: 0/0
  6227 ;; Data sizes:     COMRAM   BANK0   BANK1   BANK2   BANK3   BANK4   BANK5   BANK6   BANK7   BANK8   BANK9  BANK10  BANK1
      +1  BANK12  BANK13  BANK14
  6228 ;;      Params:         0       0       0       0       0       0       0       0       0       0       0       0       
      +0       0       0       0
  6229 ;;      Locals:         0       0       0       0       0       0       0       0       0       0       0       0       
      +0       0       0       0
  6230 ;;      Temps:          0       0       0       0       0       0       0       0       0       0       0       0       
      +0       0       0       0
  6231 ;;      Totals:         0       0       0       0       0       0       0       0       0       0       0       0       
      +0       0       0       0
  6232 ;;Total ram usage:        0 bytes
  6233 ;; Hardware stack levels used: 1
  6234 ;; Hardware stack levels required when called: 5
  6235 ;; This function calls:
  6236 ;;		Nothing
  6237 ;; This function is called by:
  6238 ;;		_SYSTEM_Initialize
  6239 ;; This function uses a non-reentrant model
  6240 ;;
  6241                           
  6242                           	psect	text31
  6243   003C0E                     __ptext31:
  6244                           	callstack 0
  6245   003C0E                     _INTERRUPT_Initialize:
  6246                           	callstack 24
  6247                           
  6248                           ;mcc_generated_files/interrupt_manager.c: 55:     INTCONbits.IPEN = 0;
  6249                           
  6250                           ; BSR set to: 14
  6251                           ;incstack = 0
  6252   003C0E  9AF2               	bcf	242,5,c	;volatile
  6253   003C10  0012               	return		;funcret
  6254   003C12                     __end_of_INTERRUPT_Initialize:
  6255                           	callstack 0
  6256                           
  6257 ;; *************** function _I2C1_Initialize *****************
  6258 ;; Defined at:
  6259 ;;		line 198 in file "mcc_generated_files/i2c1.c"
  6260 ;; Parameters:    Size  Location     Type
  6261 ;;		None
  6262 ;; Auto vars:     Size  Location     Type
  6263 ;;		None
  6264 ;; Return value:  Size  Location     Type
  6265 ;;                  1    wreg      void 
  6266 ;; Registers used:
  6267 ;;		wreg, status,2, status,0
  6268 ;; Tracked objects:
  6269 ;;		On entry : 0/0
  6270 ;;		On exit  : 0/0
  6271 ;;		Unchanged: 0/0
  6272 ;; Data sizes:     COMRAM   BANK0   BANK1   BANK2   BANK3   BANK4   BANK5   BANK6   BANK7   BANK8   BANK9  BANK10  BANK1
      +1  BANK12  BANK13  BANK14
  6273 ;;      Params:         0       0       0       0       0       0       0       0       0       0       0       0       
      +0       0       0       0
  6274 ;;      Locals:         0       0       0       0       0       0       0       0       0       0       0       0       
      +0       0       0       0
  6275 ;;      Temps:          0       0       0       0       0       0       0       0       0       0       0       0       
      +0       0       0       0
  6276 ;;      Totals:         0       0       0       0       0       0       0       0       0       0       0       0       
      +0       0       0       0
  6277 ;;Total ram usage:        0 bytes
  6278 ;; Hardware stack levels used: 1
  6279 ;; Hardware stack levels required when called: 5
  6280 ;; This function calls:
  6281 ;;		Nothing
  6282 ;; This function is called by:
  6283 ;;		_SYSTEM_Initialize
  6284 ;; This function uses a non-reentrant model
  6285 ;;
  6286                           
  6287                           	psect	text32
  6288   0036A2                     __ptext32:
  6289                           	callstack 0
  6290   0036A2                     _I2C1_Initialize:
  6291                           	callstack 24
  6292                           
  6293                           ;mcc_generated_files/i2c1.c: 200:     i2c1_object.pTrHead = i2c1_tr_queue;
  6294                           
  6295                           ;incstack = 0
  6296   0036A2  0E4A               	movlw	low _i2c1_tr_queue
  6297   0036A4  0100               	movlb	0	; () banked
  6298   0036A6  6FED               	movwf	(_i2c1_object+2)& (0+255),b
  6299   0036A8  0E01               	movlw	high _i2c1_tr_queue
  6300   0036AA  6FEE               	movwf	(_i2c1_object+3)& (0+255),b
  6301                           
  6302                           ;mcc_generated_files/i2c1.c: 201:     i2c1_object.pTrTail = i2c1_tr_queue;
  6303   0036AC  0E4A               	movlw	low _i2c1_tr_queue
  6304   0036AE  6FEB               	movwf	_i2c1_object& (0+255),b
  6305   0036B0  0E01               	movlw	high _i2c1_tr_queue
  6306   0036B2  6FEC               	movwf	(_i2c1_object+1)& (0+255),b
  6307                           
  6308                           ; BSR set to: 0
  6309                           ;mcc_generated_files/i2c1.c: 202:     i2c1_object.trStatus.s.empty = 1;
  6310   0036B4  83EF               	bsf	(_i2c1_object+4)& (0+255),1,b
  6311                           
  6312                           ; BSR set to: 0
  6313                           ;mcc_generated_files/i2c1.c: 203:     i2c1_object.trStatus.s.full = 0;
  6314   0036B6  91EF               	bcf	(_i2c1_object+4)& (0+255),0,b
  6315                           
  6316                           ; BSR set to: 0
  6317                           ;mcc_generated_files/i2c1.c: 205:     i2c1_object.i2cErrors = 0;
  6318   0036B8  0E00               	movlw	0
  6319   0036BA  6FF1               	movwf	(_i2c1_object+6)& (0+255),b
  6320                           
  6321                           ; BSR set to: 0
  6322                           ;mcc_generated_files/i2c1.c: 208:     SSP1STAT = 0x00;
  6323   0036BC  0E00               	movlw	0
  6324   0036BE  6E95               	movwf	149,c	;volatile
  6325                           
  6326                           ; BSR set to: 0
  6327                           ;mcc_generated_files/i2c1.c: 210:     SSP1CON1 = 0x28;
  6328   0036C0  0E28               	movlw	40
  6329   0036C2  6E96               	movwf	150,c	;volatile
  6330                           
  6331                           ; BSR set to: 0
  6332                           ;mcc_generated_files/i2c1.c: 212:     SSP1CON3 = 0x00;
  6333   0036C4  0E00               	movlw	0
  6334   0036C6  6E98               	movwf	152,c	;volatile
  6335                           
  6336                           ; BSR set to: 0
  6337                           ;mcc_generated_files/i2c1.c: 214:     SSP1ADD = 0x27;
  6338   0036C8  0E27               	movlw	39
  6339   0036CA  6E93               	movwf	147,c	;volatile
  6340                           
  6341                           ; BSR set to: 0
  6342                           ;mcc_generated_files/i2c1.c: 217:     PIR3bits.SSP1IF = 0;
  6343   0036CC  010E               	movlb	14	; () banked
  6344   0036CE  91CD               	bcf	205,0,b	;volatile
  6345                           
  6346                           ; BSR set to: 14
  6347                           ;mcc_generated_files/i2c1.c: 218:     PIR3bits.BCL1IF = 0;
  6348   0036D0  93CD               	bcf	205,1,b	;volatile
  6349                           
  6350                           ; BSR set to: 14
  6351                           ;mcc_generated_files/i2c1.c: 221:     PIE3bits.SSP1IE = 1;
  6352   0036D2  81C5               	bsf	197,0,b	;volatile
  6353                           
  6354                           ; BSR set to: 14
  6355                           ;mcc_generated_files/i2c1.c: 222:     PIE3bits.BCL1IE = 1;
  6356   0036D4  83C5               	bsf	197,1,b	;volatile
  6357                           
  6358                           ; BSR set to: 14
  6359   0036D6  0012               	return		;funcret
  6360   0036D8                     __end_of_I2C1_Initialize:
  6361                           	callstack 0
  6362                           
  6363 ;; *************** function _EUSART1_Initialize *****************
  6364 ;; Defined at:
  6365 ;;		line 85 in file "mcc_generated_files/eusart1.c"
  6366 ;; Parameters:    Size  Location     Type
  6367 ;;		None
  6368 ;; Auto vars:     Size  Location     Type
  6369 ;;		None
  6370 ;; Return value:  Size  Location     Type
  6371 ;;                  1    wreg      void 
  6372 ;; Registers used:
  6373 ;;		wreg, status,2, status,0, cstack
  6374 ;; Tracked objects:
  6375 ;;		On entry : 0/0
  6376 ;;		On exit  : 0/0
  6377 ;;		Unchanged: 0/0
  6378 ;; Data sizes:     COMRAM   BANK0   BANK1   BANK2   BANK3   BANK4   BANK5   BANK6   BANK7   BANK8   BANK9  BANK10  BANK1
      +1  BANK12  BANK13  BANK14
  6379 ;;      Params:         0       0       0       0       0       0       0       0       0       0       0       0       
      +0       0       0       0
  6380 ;;      Locals:         0       0       0       0       0       0       0       0       0       0       0       0       
      +0       0       0       0
  6381 ;;      Temps:          0       0       0       0       0       0       0       0       0       0       0       0       
      +0       0       0       0
  6382 ;;      Totals:         0       0       0       0       0       0       0       0       0       0       0       0       
      +0       0       0       0
  6383 ;;Total ram usage:        0 bytes
  6384 ;; Hardware stack levels used: 1
  6385 ;; Hardware stack levels required when called: 6
  6386 ;; This function calls:
  6387 ;;		_EUSART1_SetErrorHandler
  6388 ;;		_EUSART1_SetFramingErrorHandler
  6389 ;;		_EUSART1_SetOverrunErrorHandler
  6390 ;;		_EUSART1_SetRxInterruptHandler
  6391 ;;		_EUSART1_SetTxInterruptHandler
  6392 ;; This function is called by:
  6393 ;;		_SYSTEM_Initialize
  6394 ;; This function uses a non-reentrant model
  6395 ;;
  6396                           
  6397                           	psect	text33
  6398   0031CC                     __ptext33:
  6399                           	callstack 0
  6400   0031CC                     _EUSART1_Initialize:
  6401                           	callstack 23
  6402                           
  6403                           ;mcc_generated_files/eusart1.c: 88:     PIE3bits.RC1IE = 0;
  6404                           
  6405                           ; BSR set to: 14
  6406                           ;incstack = 0
  6407   0031CC  010E               	movlb	14	; () banked
  6408   0031CE  9BC5               	bcf	197,5,b	;volatile
  6409                           
  6410                           ; BSR set to: 14
  6411                           ;mcc_generated_files/eusart1.c: 89:     EUSART1_SetRxInterruptHandler(EUSART1_Receive_IS
      +                          R);
  6412   0031D0  0E2E               	movlw	low _EUSART1_Receive_ISR
  6413   0031D2  0100               	movlb	0	; () banked
  6414   0031D4  6F60               	movwf	EUSART1_SetRxInterruptHandler@interruptHandler& (0+255),b
  6415   0031D6  0E31               	movlw	high _EUSART1_Receive_ISR
  6416   0031D8  6F61               	movwf	(EUSART1_SetRxInterruptHandler@interruptHandler+1)& (0+255),b
  6417   0031DA  0E00               	movlw	low (_EUSART1_Receive_ISR shr (0+16))
  6418   0031DC  6F62               	movwf	(EUSART1_SetRxInterruptHandler@interruptHandler+2)& (0+255),b
  6419   0031DE  ECE2  F01D         	call	_EUSART1_SetRxInterruptHandler	;wreg free
  6420                           
  6421                           ;mcc_generated_files/eusart1.c: 90:     PIE3bits.TX1IE = 0;
  6422   0031E2  010E               	movlb	14	; () banked
  6423   0031E4  99C5               	bcf	197,4,b	;volatile
  6424                           
  6425                           ;mcc_generated_files/eusart1.c: 91:     EUSART1_SetTxInterruptHandler(EUSART1_Transmit_I
      +                          SR);
  6426   0031E6  0EA4               	movlw	low _EUSART1_Transmit_ISR
  6427   0031E8  0100               	movlb	0	; () banked
  6428   0031EA  6F60               	movwf	EUSART1_SetTxInterruptHandler@interruptHandler& (0+255),b
  6429   0031EC  0E37               	movlw	high _EUSART1_Transmit_ISR
  6430   0031EE  6F61               	movwf	(EUSART1_SetTxInterruptHandler@interruptHandler+1)& (0+255),b
  6431   0031F0  0E00               	movlw	low (_EUSART1_Transmit_ISR shr (0+16))
  6432   0031F2  6F62               	movwf	(EUSART1_SetTxInterruptHandler@interruptHandler+2)& (0+255),b
  6433   0031F4  ECDB  F01D         	call	_EUSART1_SetTxInterruptHandler	;wreg free
  6434                           
  6435                           ;mcc_generated_files/eusart1.c: 95:     BAUD1CON = 0x08;
  6436   0031F8  0E08               	movlw	8
  6437   0031FA  6E9F               	movwf	159,c	;volatile
  6438                           
  6439                           ;mcc_generated_files/eusart1.c: 98:     RC1STA = 0x90;
  6440   0031FC  0E90               	movlw	144
  6441   0031FE  6E9D               	movwf	157,c	;volatile
  6442                           
  6443                           ;mcc_generated_files/eusart1.c: 101:     TX1STA = 0x24;
  6444   003200  0E24               	movlw	36
  6445   003202  6E9E               	movwf	158,c	;volatile
  6446                           
  6447                           ;mcc_generated_files/eusart1.c: 104:     SP1BRGL = 0x8A;
  6448   003204  0E8A               	movlw	138
  6449   003206  6E9B               	movwf	155,c	;volatile
  6450                           
  6451                           ;mcc_generated_files/eusart1.c: 107:     SP1BRGH = 0x00;
  6452   003208  0E00               	movlw	0
  6453   00320A  6E9C               	movwf	156,c	;volatile
  6454                           
  6455                           ;mcc_generated_files/eusart1.c: 110:     EUSART1_SetFramingErrorHandler(EUSART1_DefaultF
      +                          ramingErrorHandler);
  6456   00320C  0E24               	movlw	low _EUSART1_DefaultFramingErrorHandler
  6457   00320E  0100               	movlb	0	; () banked
  6458   003210  6F60               	movwf	EUSART1_SetFramingErrorHandler@interruptHandler& (0+255),b
  6459   003212  0E3C               	movlw	high _EUSART1_DefaultFramingErrorHandler
  6460   003214  6F61               	movwf	(EUSART1_SetFramingErrorHandler@interruptHandler+1)& (0+255),b
  6461   003216  0E00               	movlw	low (_EUSART1_DefaultFramingErrorHandler shr (0+16))
  6462   003218  6F62               	movwf	(EUSART1_SetFramingErrorHandler@interruptHandler+2)& (0+255),b
  6463   00321A  ECF0  F01D         	call	_EUSART1_SetFramingErrorHandler	;wreg free
  6464                           
  6465                           ;mcc_generated_files/eusart1.c: 111:     EUSART1_SetOverrunErrorHandler(EUSART1_DefaultO
      +                          verrunErrorHandler);
  6466   00321E  0E02               	movlw	low _EUSART1_DefaultOverrunErrorHandler
  6467   003220  0100               	movlb	0	; () banked
  6468   003222  6F60               	movwf	EUSART1_SetOverrunErrorHandler@interruptHandler& (0+255),b
  6469   003224  0E3C               	movlw	high _EUSART1_DefaultOverrunErrorHandler
  6470   003226  6F61               	movwf	(EUSART1_SetOverrunErrorHandler@interruptHandler+1)& (0+255),b
  6471   003228  0E00               	movlw	low (_EUSART1_DefaultOverrunErrorHandler shr (0+16))
  6472   00322A  6F62               	movwf	(EUSART1_SetOverrunErrorHandler@interruptHandler+2)& (0+255),b
  6473   00322C  ECE9  F01D         	call	_EUSART1_SetOverrunErrorHandler	;wreg free
  6474                           
  6475                           ;mcc_generated_files/eusart1.c: 112:     EUSART1_SetErrorHandler(EUSART1_DefaultErrorHan
      +                          dler);
  6476   003230  0E08               	movlw	low _EUSART1_DefaultErrorHandler
  6477   003232  0100               	movlb	0	; () banked
  6478   003234  6F60               	movwf	EUSART1_SetErrorHandler@interruptHandler& (0+255),b
  6479   003236  0E3C               	movlw	high _EUSART1_DefaultErrorHandler
  6480   003238  6F61               	movwf	(EUSART1_SetErrorHandler@interruptHandler+1)& (0+255),b
  6481   00323A  0E00               	movlw	low (_EUSART1_DefaultErrorHandler shr (0+16))
  6482   00323C  6F62               	movwf	(EUSART1_SetErrorHandler@interruptHandler+2)& (0+255),b
  6483   00323E  ECF7  F01D         	call	_EUSART1_SetErrorHandler	;wreg free
  6484                           
  6485                           ;mcc_generated_files/eusart1.c: 114:     eusart1RxLastError.status = 0;
  6486   003242  0E00               	movlw	0
  6487   003244  6E52               	movwf	_eusart1RxLastError^0,c	;volatile
  6488                           
  6489                           ;mcc_generated_files/eusart1.c: 117:     eusart1TxHead = 0;
  6490   003246  0E00               	movlw	0
  6491   003248  0100               	movlb	0	; () banked
  6492   00324A  6FFF               	movwf	_eusart1TxHead& (0+255),b	;volatile
  6493                           
  6494                           ;mcc_generated_files/eusart1.c: 118:     eusart1TxTail = 0;
  6495   00324C  0E00               	movlw	0
  6496   00324E  6FFE               	movwf	_eusart1TxTail& (0+255),b	;volatile
  6497                           
  6498                           ;mcc_generated_files/eusart1.c: 119:     eusart1TxBufferRemaining = sizeof(eusart1TxBuff
      +                          er);
  6499   003250  0E08               	movlw	8
  6500   003252  6FFD               	movwf	_eusart1TxBufferRemaining& (0+255),b	;volatile
  6501                           
  6502                           ;mcc_generated_files/eusart1.c: 121:     eusart1RxHead = 0;
  6503   003254  0E00               	movlw	0
  6504   003256  6FFC               	movwf	_eusart1RxHead& (0+255),b	;volatile
  6505                           
  6506                           ;mcc_generated_files/eusart1.c: 122:     eusart1RxTail = 0;
  6507   003258  0E00               	movlw	0
  6508   00325A  6E54               	movwf	_eusart1RxTail^0,c	;volatile
  6509                           
  6510                           ;mcc_generated_files/eusart1.c: 123:     eusart1RxCount = 0;
  6511   00325C  0E00               	movlw	0
  6512   00325E  6E53               	movwf	_eusart1RxCount^0,c	;volatile
  6513                           
  6514                           ; BSR set to: 0
  6515                           ;mcc_generated_files/eusart1.c: 126:     PIE3bits.RC1IE = 1;
  6516   003260  010E               	movlb	14	; () banked
  6517   003262  8BC5               	bsf	197,5,b	;volatile
  6518                           
  6519                           ; BSR set to: 14
  6520   003264  0012               	return		;funcret
  6521   003266                     __end_of_EUSART1_Initialize:
  6522                           	callstack 0
  6523                           
  6524 ;; *************** function _EUSART1_SetTxInterruptHandler *****************
  6525 ;; Defined at:
  6526 ;;		line 273 in file "mcc_generated_files/eusart1.c"
  6527 ;; Parameters:    Size  Location     Type
  6528 ;;  interruptHan    3    0[BANK0 ] PTR FTN()void 
  6529 ;;		 -> EUSART1_Transmit_ISR(1), 
  6530 ;; Auto vars:     Size  Location     Type
  6531 ;;		None
  6532 ;; Return value:  Size  Location     Type
  6533 ;;                  1    wreg      void 
  6534 ;; Registers used:
  6535 ;;		wreg, status,2, status,0
  6536 ;; Tracked objects:
  6537 ;;		On entry : 0/0
  6538 ;;		On exit  : 0/0
  6539 ;;		Unchanged: 0/0
  6540 ;; Data sizes:     COMRAM   BANK0   BANK1   BANK2   BANK3   BANK4   BANK5   BANK6   BANK7   BANK8   BANK9  BANK10  BANK1
      +1  BANK12  BANK13  BANK14
  6541 ;;      Params:         0       3       0       0       0       0       0       0       0       0       0       0       
      +0       0       0       0
  6542 ;;      Locals:         0       0       0       0       0       0       0       0       0       0       0       0       
      +0       0       0       0
  6543 ;;      Temps:          0       0       0       0       0       0       0       0       0       0       0       0       
      +0       0       0       0
  6544 ;;      Totals:         0       3       0       0       0       0       0       0       0       0       0       0       
      +0       0       0       0
  6545 ;;Total ram usage:        3 bytes
  6546 ;; Hardware stack levels used: 1
  6547 ;; Hardware stack levels required when called: 5
  6548 ;; This function calls:
  6549 ;;		Nothing
  6550 ;; This function is called by:
  6551 ;;		_EUSART1_Initialize
  6552 ;; This function uses a non-reentrant model
  6553 ;;
  6554                           
  6555                           	psect	text34
  6556   003BB6                     __ptext34:
  6557                           	callstack 0
  6558   003BB6                     _EUSART1_SetTxInterruptHandler:
  6559                           	callstack 23
  6560                           
  6561                           ;mcc_generated_files/eusart1.c: 274:     EUSART1_TxDefaultInterruptHandler = interruptHa
      +                          ndler;
  6562                           
  6563                           ; BSR set to: 14
  6564                           ;incstack = 0
  6565   003BB6  C060  F173         	movff	EUSART1_SetTxInterruptHandler@interruptHandler,_EUSART1_TxDefaultInterruptHandler
  6566   003BBA  C061  F174         	movff	EUSART1_SetTxInterruptHandler@interruptHandler+1,_EUSART1_TxDefaultInterruptHandl
      +                          er+1
  6567   003BBE  C062  F175         	movff	EUSART1_SetTxInterruptHandler@interruptHandler+2,_EUSART1_TxDefaultInterruptHandl
      +                          er+2
  6568   003BC2  0012               	return		;funcret
  6569   003BC4                     __end_of_EUSART1_SetTxInterruptHandler:
  6570                           	callstack 0
  6571                           
  6572 ;; *************** function _EUSART1_SetRxInterruptHandler *****************
  6573 ;; Defined at:
  6574 ;;		line 277 in file "mcc_generated_files/eusart1.c"
  6575 ;; Parameters:    Size  Location     Type
  6576 ;;  interruptHan    3    0[BANK0 ] PTR FTN()void 
  6577 ;;		 -> EUSART1_Receive_ISR(1), 
  6578 ;; Auto vars:     Size  Location     Type
  6579 ;;		None
  6580 ;; Return value:  Size  Location     Type
  6581 ;;                  1    wreg      void 
  6582 ;; Registers used:
  6583 ;;		wreg, status,2, status,0
  6584 ;; Tracked objects:
  6585 ;;		On entry : 0/0
  6586 ;;		On exit  : 0/0
  6587 ;;		Unchanged: 0/0
  6588 ;; Data sizes:     COMRAM   BANK0   BANK1   BANK2   BANK3   BANK4   BANK5   BANK6   BANK7   BANK8   BANK9  BANK10  BANK1
      +1  BANK12  BANK13  BANK14
  6589 ;;      Params:         0       3       0       0       0       0       0       0       0       0       0       0       
      +0       0       0       0
  6590 ;;      Locals:         0       0       0       0       0       0       0       0       0       0       0       0       
      +0       0       0       0
  6591 ;;      Temps:          0       0       0       0       0       0       0       0       0       0       0       0       
      +0       0       0       0
  6592 ;;      Totals:         0       3       0       0       0       0       0       0       0       0       0       0       
      +0       0       0       0
  6593 ;;Total ram usage:        3 bytes
  6594 ;; Hardware stack levels used: 1
  6595 ;; Hardware stack levels required when called: 5
  6596 ;; This function calls:
  6597 ;;		Nothing
  6598 ;; This function is called by:
  6599 ;;		_EUSART1_Initialize
  6600 ;; This function uses a non-reentrant model
  6601 ;;
  6602                           
  6603                           	psect	text35
  6604   003BC4                     __ptext35:
  6605                           	callstack 0
  6606   003BC4                     _EUSART1_SetRxInterruptHandler:
  6607                           	callstack 23
  6608                           
  6609                           ;mcc_generated_files/eusart1.c: 278:     EUSART1_RxDefaultInterruptHandler = interruptHa
      +                          ndler;
  6610                           
  6611                           ;incstack = 0
  6612   003BC4  C060  F170         	movff	EUSART1_SetRxInterruptHandler@interruptHandler,_EUSART1_RxDefaultInterruptHandler
  6613   003BC8  C061  F171         	movff	EUSART1_SetRxInterruptHandler@interruptHandler+1,_EUSART1_RxDefaultInterruptHandl
      +                          er+1
  6614   003BCC  C062  F172         	movff	EUSART1_SetRxInterruptHandler@interruptHandler+2,_EUSART1_RxDefaultInterruptHandl
      +                          er+2
  6615   003BD0  0012               	return		;funcret
  6616   003BD2                     __end_of_EUSART1_SetRxInterruptHandler:
  6617                           	callstack 0
  6618                           
  6619 ;; *************** function _EUSART1_SetOverrunErrorHandler *****************
  6620 ;; Defined at:
  6621 ;;		line 265 in file "mcc_generated_files/eusart1.c"
  6622 ;; Parameters:    Size  Location     Type
  6623 ;;  interruptHan    3    0[BANK0 ] PTR FTN()void 
  6624 ;;		 -> EUSART1_DefaultOverrunErrorHandler(1), 
  6625 ;; Auto vars:     Size  Location     Type
  6626 ;;		None
  6627 ;; Return value:  Size  Location     Type
  6628 ;;                  1    wreg      void 
  6629 ;; Registers used:
  6630 ;;		wreg, status,2, status,0
  6631 ;; Tracked objects:
  6632 ;;		On entry : 0/0
  6633 ;;		On exit  : 0/0
  6634 ;;		Unchanged: 0/0
  6635 ;; Data sizes:     COMRAM   BANK0   BANK1   BANK2   BANK3   BANK4   BANK5   BANK6   BANK7   BANK8   BANK9  BANK10  BANK1
      +1  BANK12  BANK13  BANK14
  6636 ;;      Params:         0       3       0       0       0       0       0       0       0       0       0       0       
      +0       0       0       0
  6637 ;;      Locals:         0       0       0       0       0       0       0       0       0       0       0       0       
      +0       0       0       0
  6638 ;;      Temps:          0       0       0       0       0       0       0       0       0       0       0       0       
      +0       0       0       0
  6639 ;;      Totals:         0       3       0       0       0       0       0       0       0       0       0       0       
      +0       0       0       0
  6640 ;;Total ram usage:        3 bytes
  6641 ;; Hardware stack levels used: 1
  6642 ;; Hardware stack levels required when called: 5
  6643 ;; This function calls:
  6644 ;;		Nothing
  6645 ;; This function is called by:
  6646 ;;		_EUSART1_Initialize
  6647 ;; This function uses a non-reentrant model
  6648 ;;
  6649                           
  6650                           	psect	text36
  6651   003BD2                     __ptext36:
  6652                           	callstack 0
  6653   003BD2                     _EUSART1_SetOverrunErrorHandler:
  6654                           	callstack 23
  6655                           
  6656                           ;mcc_generated_files/eusart1.c: 266:     EUSART1_OverrunErrorHandler = interruptHandler;
  6657                           
  6658                           ;incstack = 0
  6659   003BD2  C060  F15B         	movff	EUSART1_SetOverrunErrorHandler@interruptHandler,_EUSART1_OverrunErrorHandler
  6660   003BD6  C061  F15C         	movff	EUSART1_SetOverrunErrorHandler@interruptHandler+1,_EUSART1_OverrunErrorHandler+1
  6661   003BDA  C062  F15D         	movff	EUSART1_SetOverrunErrorHandler@interruptHandler+2,_EUSART1_OverrunErrorHandler+2
  6662   003BDE  0012               	return		;funcret
  6663   003BE0                     __end_of_EUSART1_SetOverrunErrorHandler:
  6664                           	callstack 0
  6665                           
  6666 ;; *************** function _EUSART1_SetFramingErrorHandler *****************
  6667 ;; Defined at:
  6668 ;;		line 261 in file "mcc_generated_files/eusart1.c"
  6669 ;; Parameters:    Size  Location     Type
  6670 ;;  interruptHan    3    0[BANK0 ] PTR FTN()void 
  6671 ;;		 -> EUSART1_DefaultFramingErrorHandler(1), 
  6672 ;; Auto vars:     Size  Location     Type
  6673 ;;		None
  6674 ;; Return value:  Size  Location     Type
  6675 ;;                  1    wreg      void 
  6676 ;; Registers used:
  6677 ;;		wreg, status,2, status,0
  6678 ;; Tracked objects:
  6679 ;;		On entry : 0/0
  6680 ;;		On exit  : 0/0
  6681 ;;		Unchanged: 0/0
  6682 ;; Data sizes:     COMRAM   BANK0   BANK1   BANK2   BANK3   BANK4   BANK5   BANK6   BANK7   BANK8   BANK9  BANK10  BANK1
      +1  BANK12  BANK13  BANK14
  6683 ;;      Params:         0       3       0       0       0       0       0       0       0       0       0       0       
      +0       0       0       0
  6684 ;;      Locals:         0       0       0       0       0       0       0       0       0       0       0       0       
      +0       0       0       0
  6685 ;;      Temps:          0       0       0       0       0       0       0       0       0       0       0       0       
      +0       0       0       0
  6686 ;;      Totals:         0       3       0       0       0       0       0       0       0       0       0       0       
      +0       0       0       0
  6687 ;;Total ram usage:        3 bytes
  6688 ;; Hardware stack levels used: 1
  6689 ;; Hardware stack levels required when called: 5
  6690 ;; This function calls:
  6691 ;;		Nothing
  6692 ;; This function is called by:
  6693 ;;		_EUSART1_Initialize
  6694 ;; This function uses a non-reentrant model
  6695 ;;
  6696                           
  6697                           	psect	text37
  6698   003BE0                     __ptext37:
  6699                           	callstack 0
  6700   003BE0                     _EUSART1_SetFramingErrorHandler:
  6701                           	callstack 23
  6702                           
  6703                           ;mcc_generated_files/eusart1.c: 262:     EUSART1_FramingErrorHandler = interruptHandler;
  6704                           
  6705                           ;incstack = 0
  6706   003BE0  C060  F15E         	movff	EUSART1_SetFramingErrorHandler@interruptHandler,_EUSART1_FramingErrorHandler
  6707   003BE4  C061  F15F         	movff	EUSART1_SetFramingErrorHandler@interruptHandler+1,_EUSART1_FramingErrorHandler+1
  6708   003BE8  C062  F160         	movff	EUSART1_SetFramingErrorHandler@interruptHandler+2,_EUSART1_FramingErrorHandler+2
  6709   003BEC  0012               	return		;funcret
  6710   003BEE                     __end_of_EUSART1_SetFramingErrorHandler:
  6711                           	callstack 0
  6712                           
  6713 ;; *************** function _EUSART1_SetErrorHandler *****************
  6714 ;; Defined at:
  6715 ;;		line 269 in file "mcc_generated_files/eusart1.c"
  6716 ;; Parameters:    Size  Location     Type
  6717 ;;  interruptHan    3    0[BANK0 ] PTR FTN()void 
  6718 ;;		 -> EUSART1_DefaultErrorHandler(1), 
  6719 ;; Auto vars:     Size  Location     Type
  6720 ;;		None
  6721 ;; Return value:  Size  Location     Type
  6722 ;;                  1    wreg      void 
  6723 ;; Registers used:
  6724 ;;		wreg, status,2, status,0
  6725 ;; Tracked objects:
  6726 ;;		On entry : 0/0
  6727 ;;		On exit  : 0/0
  6728 ;;		Unchanged: 0/0
  6729 ;; Data sizes:     COMRAM   BANK0   BANK1   BANK2   BANK3   BANK4   BANK5   BANK6   BANK7   BANK8   BANK9  BANK10  BANK1
      +1  BANK12  BANK13  BANK14
  6730 ;;      Params:         0       3       0       0       0       0       0       0       0       0       0       0       
      +0       0       0       0
  6731 ;;      Locals:         0       0       0       0       0       0       0       0       0       0       0       0       
      +0       0       0       0
  6732 ;;      Temps:          0       0       0       0       0       0       0       0       0       0       0       0       
      +0       0       0       0
  6733 ;;      Totals:         0       3       0       0       0       0       0       0       0       0       0       0       
      +0       0       0       0
  6734 ;;Total ram usage:        3 bytes
  6735 ;; Hardware stack levels used: 1
  6736 ;; Hardware stack levels required when called: 5
  6737 ;; This function calls:
  6738 ;;		Nothing
  6739 ;; This function is called by:
  6740 ;;		_EUSART1_Initialize
  6741 ;; This function uses a non-reentrant model
  6742 ;;
  6743                           
  6744                           	psect	text38
  6745   003BEE                     __ptext38:
  6746                           	callstack 0
  6747   003BEE                     _EUSART1_SetErrorHandler:
  6748                           	callstack 23
  6749                           
  6750                           ;mcc_generated_files/eusart1.c: 270:     EUSART1_ErrorHandler = interruptHandler;
  6751                           
  6752                           ;incstack = 0
  6753   003BEE  C060  F158         	movff	EUSART1_SetErrorHandler@interruptHandler,_EUSART1_ErrorHandler
  6754   003BF2  C061  F159         	movff	EUSART1_SetErrorHandler@interruptHandler+1,_EUSART1_ErrorHandler+1
  6755   003BF6  C062  F15A         	movff	EUSART1_SetErrorHandler@interruptHandler+2,_EUSART1_ErrorHandler+2
  6756   003BFA  0012               	return		;funcret
  6757   003BFC                     __end_of_EUSART1_SetErrorHandler:
  6758                           	callstack 0
  6759                           
  6760 ;; *************** function _ADCC_Initialize *****************
  6761 ;; Defined at:
  6762 ;;		line 62 in file "mcc_generated_files/adcc.c"
  6763 ;; Parameters:    Size  Location     Type
  6764 ;;		None
  6765 ;; Auto vars:     Size  Location     Type
  6766 ;;		None
  6767 ;; Return value:  Size  Location     Type
  6768 ;;                  1    wreg      void 
  6769 ;; Registers used:
  6770 ;;		wreg, status,2
  6771 ;; Tracked objects:
  6772 ;;		On entry : 0/0
  6773 ;;		On exit  : 0/0
  6774 ;;		Unchanged: 0/0
  6775 ;; Data sizes:     COMRAM   BANK0   BANK1   BANK2   BANK3   BANK4   BANK5   BANK6   BANK7   BANK8   BANK9  BANK10  BANK1
      +1  BANK12  BANK13  BANK14
  6776 ;;      Params:         0       0       0       0       0       0       0       0       0       0       0       0       
      +0       0       0       0
  6777 ;;      Locals:         0       0       0       0       0       0       0       0       0       0       0       0       
      +0       0       0       0
  6778 ;;      Temps:          0       0       0       0       0       0       0       0       0       0       0       0       
      +0       0       0       0
  6779 ;;      Totals:         0       0       0       0       0       0       0       0       0       0       0       0       
      +0       0       0       0
  6780 ;;Total ram usage:        0 bytes
  6781 ;; Hardware stack levels used: 1
  6782 ;; Hardware stack levels required when called: 5
  6783 ;; This function calls:
  6784 ;;		Nothing
  6785 ;; This function is called by:
  6786 ;;		_SYSTEM_Initialize
  6787 ;; This function uses a non-reentrant model
  6788 ;;
  6789                           
  6790                           	psect	text39
  6791   003444                     __ptext39:
  6792                           	callstack 0
  6793   003444                     _ADCC_Initialize:
  6794                           	callstack 24
  6795                           
  6796                           ;mcc_generated_files/adcc.c: 66:     ADLTHL = 0x00;
  6797                           
  6798                           ;incstack = 0
  6799   003444  0E00               	movlw	0
  6800   003446  6E6A               	movwf	106,c	;volatile
  6801                           
  6802                           ;mcc_generated_files/adcc.c: 68:     ADLTHH = 0x00;
  6803   003448  0E00               	movlw	0
  6804   00344A  6E6B               	movwf	107,c	;volatile
  6805                           
  6806                           ;mcc_generated_files/adcc.c: 70:     ADUTHL = 0x00;
  6807   00344C  0E00               	movlw	0
  6808   00344E  6E6C               	movwf	108,c	;volatile
  6809                           
  6810                           ;mcc_generated_files/adcc.c: 72:     ADUTHH = 0x00;
  6811   003450  0E00               	movlw	0
  6812   003452  6E6D               	movwf	109,c	;volatile
  6813                           
  6814                           ;mcc_generated_files/adcc.c: 74:     ADSTPTL = 0x00;
  6815   003454  0E00               	movlw	0
  6816   003456  6E68               	movwf	104,c	;volatile
  6817                           
  6818                           ;mcc_generated_files/adcc.c: 76:     ADSTPTH = 0x00;
  6819   003458  0E00               	movlw	0
  6820   00345A  6E69               	movwf	105,c	;volatile
  6821                           
  6822                           ;mcc_generated_files/adcc.c: 78:     ADRPT = 0x00;
  6823   00345C  0E00               	movlw	0
  6824   00345E  6E66               	movwf	102,c	;volatile
  6825                           
  6826                           ;mcc_generated_files/adcc.c: 80:     ADPCH = 0x00;
  6827   003460  0E00               	movlw	0
  6828   003462  010F               	movlb	15	; () banked
  6829   003464  6F5F               	movwf	95,b	;volatile
  6830                           
  6831                           ;mcc_generated_files/adcc.c: 82:     ADCAP = 0x00;
  6832   003466  0E00               	movlw	0
  6833   003468  6F5D               	movwf	93,b	;volatile
  6834                           
  6835                           ;mcc_generated_files/adcc.c: 84:     ADCON1 = 0x00;
  6836   00346A  0E00               	movlw	0
  6837   00346C  6F59               	movwf	89,b	;volatile
  6838                           
  6839                           ;mcc_generated_files/adcc.c: 86:     ADCON2 = 0x00;
  6840   00346E  0E00               	movlw	0
  6841   003470  6F5A               	movwf	90,b	;volatile
  6842                           
  6843                           ;mcc_generated_files/adcc.c: 88:     ADCON3 = 0x00;
  6844   003472  0E00               	movlw	0
  6845   003474  6F5B               	movwf	91,b	;volatile
  6846                           
  6847                           ;mcc_generated_files/adcc.c: 90:     ADSTAT = 0x00;
  6848   003476  0E00               	movlw	0
  6849   003478  6E65               	movwf	101,c	;volatile
  6850                           
  6851                           ;mcc_generated_files/adcc.c: 92:     ADREF = 0x00;
  6852   00347A  0E00               	movlw	0
  6853   00347C  6F58               	movwf	88,b	;volatile
  6854                           
  6855                           ;mcc_generated_files/adcc.c: 94:     ADACT = 0x00;
  6856   00347E  0E00               	movlw	0
  6857   003480  6F56               	movwf	86,b	;volatile
  6858                           
  6859                           ;mcc_generated_files/adcc.c: 96:     ADCLK = 0x33;
  6860   003482  0E33               	movlw	51
  6861   003484  6F57               	movwf	87,b	;volatile
  6862                           
  6863                           ;mcc_generated_files/adcc.c: 98:     ADCON0 = 0x84;
  6864   003486  0E84               	movlw	132
  6865   003488  6E60               	movwf	96,c	;volatile
  6866                           
  6867                           ;mcc_generated_files/adcc.c: 100:     ADACQ = 0x00;
  6868   00348A  0E00               	movlw	0
  6869   00348C  6F5C               	movwf	92,b	;volatile
  6870                           
  6871                           ; BSR set to: 15
  6872   00348E  0012               	return		;funcret
  6873   003490                     __end_of_ADCC_Initialize:
  6874                           	callstack 0
  6875                           
  6876 ;; *************** function _Motors *****************
  6877 ;; Defined at:
  6878 ;;		line 125 in file "commandes.c"
  6879 ;; Parameters:    Size  Location     Type
  6880 ;;  on_off          1    wreg     unsigned char 
  6881 ;; Auto vars:     Size  Location     Type
  6882 ;;  on_off          1    0[BANK0 ] unsigned char 
  6883 ;; Return value:  Size  Location     Type
  6884 ;;                  1    wreg      void 
  6885 ;; Registers used:
  6886 ;;		wreg, status,2
  6887 ;; Tracked objects:
  6888 ;;		On entry : 0/0
  6889 ;;		On exit  : 0/0
  6890 ;;		Unchanged: 0/0
  6891 ;; Data sizes:     COMRAM   BANK0   BANK1   BANK2   BANK3   BANK4   BANK5   BANK6   BANK7   BANK8   BANK9  BANK10  BANK1
      +1  BANK12  BANK13  BANK14
  6892 ;;      Params:         0       0       0       0       0       0       0       0       0       0       0       0       
      +0       0       0       0
  6893 ;;      Locals:         0       1       0       0       0       0       0       0       0       0       0       0       
      +0       0       0       0
  6894 ;;      Temps:          0       0       0       0       0       0       0       0       0       0       0       0       
      +0       0       0       0
  6895 ;;      Totals:         0       1       0       0       0       0       0       0       0       0       0       0       
      +0       0       0       0
  6896 ;;Total ram usage:        1 bytes
  6897 ;; Hardware stack levels used: 1
  6898 ;; Hardware stack levels required when called: 5
  6899 ;; This function calls:
  6900 ;;		Nothing
  6901 ;; This function is called by:
  6902 ;;		_main
  6903 ;; This function uses a non-reentrant model
  6904 ;;
  6905                           
  6906                           	psect	text40
  6907   003AE6                     __ptext40:
  6908                           	callstack 0
  6909   003AE6                     _Motors:
  6910                           	callstack 25
  6911                           
  6912                           ; BSR set to: 15
  6913                           ;incstack = 0
  6914                           ;Motors@on_off stored from wreg
  6915   003AE6  0100               	movlb	0	; () banked
  6916   003AE8  6F60               	movwf	Motors@on_off& (0+255),b
  6917                           
  6918                           ;commandes.c: 125: void Motors(uint8_t on_off);commandes.c: 126: {;commandes.c: 127:    
      +                           if(on_off)
  6919   003AEA  0100               	movlb	0	; () banked
  6920   003AEC  5160               	movf	Motors@on_off& (0+255),w,b
  6921   003AEE  B4D8               	btfsc	status,2,c
  6922   003AF0  D002               	goto	l1815
  6923                           
  6924                           ; BSR set to: 0
  6925                           ;commandes.c: 128:             {;commandes.c: 129:                 LATDbits.LATD3 = 1;
  6926   003AF2  8686               	bsf	134,3,c	;volatile
  6927                           
  6928                           ;commandes.c: 130:             }
  6929   003AF4  0012               	return	
  6930   003AF6                     l1815:
  6931                           
  6932                           ; BSR set to: 0
  6933                           ;commandes.c: 132:             {;commandes.c: 133:                 LATDbits.LATD3 = 0;
  6934   003AF6  9686               	bcf	134,3,c	;volatile
  6935                           
  6936                           ; BSR set to: 0
  6937   003AF8  0012               	return		;funcret
  6938   003AFA                     __end_of_Motors:
  6939                           	callstack 0
  6940                           
  6941 ;; *************** function _LED *****************
  6942 ;; Defined at:
  6943 ;;		line 149 in file "commandes.c"
  6944 ;; Parameters:    Size  Location     Type
  6945 ;;  io              1    wreg     unsigned char 
  6946 ;;  on_off          1    0[BANK0 ] unsigned char 
  6947 ;; Auto vars:     Size  Location     Type
  6948 ;;  io              1    3[BANK0 ] unsigned char 
  6949 ;; Return value:  Size  Location     Type
  6950 ;;                  1    wreg      void 
  6951 ;; Registers used:
  6952 ;;		wreg, status,2, status,0
  6953 ;; Tracked objects:
  6954 ;;		On entry : 0/0
  6955 ;;		On exit  : 0/0
  6956 ;;		Unchanged: 0/0
  6957 ;; Data sizes:     COMRAM   BANK0   BANK1   BANK2   BANK3   BANK4   BANK5   BANK6   BANK7   BANK8   BANK9  BANK10  BANK1
      +1  BANK12  BANK13  BANK14
  6958 ;;      Params:         0       1       0       0       0       0       0       0       0       0       0       0       
      +0       0       0       0
  6959 ;;      Locals:         0       1       0       0       0       0       0       0       0       0       0       0       
      +0       0       0       0
  6960 ;;      Temps:          0       2       0       0       0       0       0       0       0       0       0       0       
      +0       0       0       0
  6961 ;;      Totals:         0       4       0       0       0       0       0       0       0       0       0       0       
      +0       0       0       0
  6962 ;;Total ram usage:        4 bytes
  6963 ;; Hardware stack levels used: 1
  6964 ;; Hardware stack levels required when called: 5
  6965 ;; This function calls:
  6966 ;;		Nothing
  6967 ;; This function is called by:
  6968 ;;		_main
  6969 ;; This function uses a non-reentrant model
  6970 ;;
  6971                           
  6972                           	psect	text41
  6973   0035B0                     __ptext41:
  6974                           	callstack 0
  6975   0035B0                     _LED:
  6976                           	callstack 25
  6977                           
  6978                           ; BSR set to: 0
  6979                           ;incstack = 0
  6980                           ;LED@io stored from wreg
  6981   0035B0  0100               	movlb	0	; () banked
  6982   0035B2  6F63               	movwf	LED@io& (0+255),b
  6983                           
  6984                           ;commandes.c: 149: void LED(uint8_t io, uint8_t on_off);commandes.c: 150: {;commandes.c:
      +                           151:     switch (io)
  6985   0035B4  D00E               	goto	l7419
  6986   0035B6                     l7409:
  6987                           
  6988                           ; BSR set to: 0
  6989   0035B6  5160               	movf	LED@on_off& (0+255),w,b
  6990   0035B8  B4D8               	btfsc	status,2,c
  6991   0035BA  D002               	goto	l1827
  6992                           
  6993                           ; BSR set to: 0
  6994                           ;commandes.c: 154:                             {;commandes.c: 155:                      
      +                                     LATDbits.LATD4 = 1;
  6995   0035BC  8886               	bsf	134,4,c	;volatile
  6996                           
  6997                           ;commandes.c: 156:                             }
  6998   0035BE  0012               	return	
  6999   0035C0                     l1827:
  7000                           
  7001                           ; BSR set to: 0
  7002                           ;commandes.c: 158:                             {;commandes.c: 159:                      
      +                                     LATDbits.LATD4 = 0;
  7003   0035C0  9886               	bcf	134,4,c	;volatile
  7004   0035C2  0012               	return	
  7005   0035C4                     l7413:
  7006                           
  7007                           ; BSR set to: 0
  7008   0035C4  5160               	movf	LED@on_off& (0+255),w,b
  7009   0035C6  B4D8               	btfsc	status,2,c
  7010   0035C8  D002               	goto	l1831
  7011                           
  7012                           ; BSR set to: 0
  7013                           ;commandes.c: 163:                             {;commandes.c: 164:                      
      +                                     LATDbits.LATD2 = 1;
  7014   0035CA  8486               	bsf	134,2,c	;volatile
  7015                           
  7016                           ;commandes.c: 165:                             }
  7017   0035CC  0012               	return	
  7018   0035CE                     l1831:
  7019                           
  7020                           ; BSR set to: 0
  7021                           ;commandes.c: 167:                             {;commandes.c: 168:                      
      +                                     LATDbits.LATD2 = 0;
  7022   0035CE  9486               	bcf	134,2,c	;volatile
  7023   0035D0  0012               	return	
  7024   0035D2                     l7419:
  7025   0035D2  0100               	movlb	0	; () banked
  7026   0035D4  5163               	movf	LED@io& (0+255),w,b
  7027   0035D6  6F61               	movwf	??_LED& (0+255),b
  7028   0035D8  6B62               	clrf	(??_LED+1)& (0+255),b
  7029                           
  7030                           ; Switch on 2 bytes has been partitioned into a top level switch of size 1, and 1 sub-sw
      +                          itches
  7031                           ; Switch size 1, requested type "simple"
  7032                           ; Number of cases is 1, Range of values is 0 to 0
  7033                           ; switch strategies available:
  7034                           ; Name         Instructions Cycles
  7035                           ; simple_byte            4     3 (average)
  7036                           ;	Chosen strategy is simple_byte
  7037   0035DA  5162               	movf	(??_LED+1)& (0+255),w,b
  7038   0035DC  0A00               	xorlw	0	; case 0
  7039   0035DE  A4D8               	btfss	status,2,c
  7040   0035E0  0012               	return	
  7041                           
  7042                           ; BSR set to: 0
  7043                           ; Switch size 1, requested type "simple"
  7044                           ; Number of cases is 2, Range of values is 0 to 1
  7045                           ; switch strategies available:
  7046                           ; Name         Instructions Cycles
  7047                           ; simple_byte            7     4 (average)
  7048                           ;	Chosen strategy is simple_byte
  7049   0035E2  5161               	movf	??_LED& (0+255),w,b
  7050   0035E4  0A00               	xorlw	0	; case 0
  7051   0035E6  B4D8               	btfsc	status,2,c
  7052   0035E8  D7E6               	goto	l7409
  7053   0035EA  0A01               	xorlw	1	; case 1
  7054   0035EC  A4D8               	btfss	status,2,c
  7055   0035EE  0012               	return	
  7056   0035F0  D7E9               	goto	l7413
  7057   0035F2                     __end_of_LED:
  7058                           	callstack 0
  7059                           
  7060 ;; *************** function _Digital_read *****************
  7061 ;; Defined at:
  7062 ;;		line 96 in file "commandes.c"
  7063 ;; Parameters:    Size  Location     Type
  7064 ;;  io              1    wreg     unsigned char 
  7065 ;; Auto vars:     Size  Location     Type
  7066 ;;  io              1    2[BANK0 ] unsigned char 
  7067 ;; Return value:  Size  Location     Type
  7068 ;;                  1    wreg      unsigned char 
  7069 ;; Registers used:
  7070 ;;		wreg, status,2, status,0
  7071 ;; Tracked objects:
  7072 ;;		On entry : 0/0
  7073 ;;		On exit  : 0/0
  7074 ;;		Unchanged: 0/0
  7075 ;; Data sizes:     COMRAM   BANK0   BANK1   BANK2   BANK3   BANK4   BANK5   BANK6   BANK7   BANK8   BANK9  BANK10  BANK1
      +1  BANK12  BANK13  BANK14
  7076 ;;      Params:         0       0       0       0       0       0       0       0       0       0       0       0       
      +0       0       0       0
  7077 ;;      Locals:         0       1       0       0       0       0       0       0       0       0       0       0       
      +0       0       0       0
  7078 ;;      Temps:          0       2       0       0       0       0       0       0       0       0       0       0       
      +0       0       0       0
  7079 ;;      Totals:         0       3       0       0       0       0       0       0       0       0       0       0       
      +0       0       0       0
  7080 ;;Total ram usage:        3 bytes
  7081 ;; Hardware stack levels used: 1
  7082 ;; Hardware stack levels required when called: 5
  7083 ;; This function calls:
  7084 ;;		Nothing
  7085 ;; This function is called by:
  7086 ;;		_main
  7087 ;; This function uses a non-reentrant model
  7088 ;;
  7089                           
  7090                           	psect	text42
  7091   003354                     __ptext42:
  7092                           	callstack 0
  7093   003354                     _Digital_read:
  7094                           	callstack 25
  7095                           
  7096                           ; BSR set to: 0
  7097                           ;incstack = 0
  7098                           ;Digital_read@io stored from wreg
  7099   003354  0100               	movlb	0	; () banked
  7100   003356  6F62               	movwf	Digital_read@io& (0+255),b
  7101                           
  7102                           ;commandes.c: 96: uint8_t Digital_read(uint8_t io);commandes.c: 97: {;commandes.c: 98:  
      +                             switch (io)
  7103   003358  D012               	goto	l7441
  7104   00335A                     l1803:
  7105                           
  7106                           ; BSR set to: 0
  7107                           ;commandes.c: 101:             return (PORTBbits.RB0);
  7108   00335A  A08E               	btfss	142,0,c	;volatile
  7109   00335C  D002               	goto	u6550
  7110   00335E  0E01               	movlw	1
  7111   003360  0012               	return	
  7112   003362                     u6550:
  7113   003362  0E00               	movlw	0
  7114   003364  0012               	return	
  7115   003366                     l1806:
  7116                           
  7117                           ; BSR set to: 0
  7118                           ;commandes.c: 104:             return (PORTBbits.RB1);
  7119   003366  A28E               	btfss	142,1,c	;volatile
  7120   003368  D002               	goto	u6560
  7121   00336A  0E01               	movlw	1
  7122   00336C  0012               	return	
  7123   00336E                     u6560:
  7124   00336E  0E00               	movlw	0
  7125   003370  0012               	return	
  7126   003372                     l1807:
  7127                           
  7128                           ; BSR set to: 0
  7129                           ;commandes.c: 107:             return (PORTBbits.RB2);
  7130   003372  A48E               	btfss	142,2,c	;volatile
  7131   003374  D002               	goto	u6570
  7132   003376  0E01               	movlw	1
  7133   003378  0012               	return	
  7134   00337A                     u6570:
  7135   00337A  0E00               	movlw	0
  7136   00337C  0012               	return	
  7137   00337E                     l7441:
  7138   00337E  0100               	movlb	0	; () banked
  7139   003380  5162               	movf	Digital_read@io& (0+255),w,b
  7140   003382  6F60               	movwf	??_Digital_read& (0+255),b
  7141   003384  6B61               	clrf	(??_Digital_read+1)& (0+255),b
  7142                           
  7143                           ; Switch on 2 bytes has been partitioned into a top level switch of size 1, and 1 sub-sw
      +                          itches
  7144                           ; Switch size 1, requested type "simple"
  7145                           ; Number of cases is 1, Range of values is 0 to 0
  7146                           ; switch strategies available:
  7147                           ; Name         Instructions Cycles
  7148                           ; simple_byte            4     3 (average)
  7149                           ;	Chosen strategy is simple_byte
  7150   003386  5161               	movf	(??_Digital_read+1)& (0+255),w,b
  7151   003388  0A00               	xorlw	0	; case 0
  7152   00338A  A4D8               	btfss	status,2,c
  7153   00338C  0012               	return	
  7154                           
  7155                           ; BSR set to: 0
  7156                           ; Switch size 1, requested type "simple"
  7157                           ; Number of cases is 3, Range of values is 0 to 2
  7158                           ; switch strategies available:
  7159                           ; Name         Instructions Cycles
  7160                           ; simple_byte           10     6 (average)
  7161                           ;	Chosen strategy is simple_byte
  7162   00338E  5160               	movf	??_Digital_read& (0+255),w,b
  7163   003390  0A00               	xorlw	0	; case 0
  7164   003392  B4D8               	btfsc	status,2,c
  7165   003394  D7E2               	goto	l1803
  7166   003396  0A01               	xorlw	1	; case 1
  7167   003398  B4D8               	btfsc	status,2,c
  7168   00339A  D7E5               	goto	l1806
  7169   00339C  0A03               	xorlw	3	; case 2
  7170   00339E  A4D8               	btfss	status,2,c
  7171   0033A0  0012               	return	
  7172   0033A2  D7E7               	goto	l1807
  7173   0033A4                     __end_of_Digital_read:
  7174                           	callstack 0
  7175                           
  7176 ;; *************** function _Buzzer *****************
  7177 ;; Defined at:
  7178 ;;		line 137 in file "commandes.c"
  7179 ;; Parameters:    Size  Location     Type
  7180 ;;  on_off          1    wreg     unsigned char 
  7181 ;; Auto vars:     Size  Location     Type
  7182 ;;  on_off          1    0[BANK0 ] unsigned char 
  7183 ;; Return value:  Size  Location     Type
  7184 ;;                  1    wreg      void 
  7185 ;; Registers used:
  7186 ;;		wreg, status,2
  7187 ;; Tracked objects:
  7188 ;;		On entry : 0/0
  7189 ;;		On exit  : 0/0
  7190 ;;		Unchanged: 0/0
  7191 ;; Data sizes:     COMRAM   BANK0   BANK1   BANK2   BANK3   BANK4   BANK5   BANK6   BANK7   BANK8   BANK9  BANK10  BANK1
      +1  BANK12  BANK13  BANK14
  7192 ;;      Params:         0       0       0       0       0       0       0       0       0       0       0       0       
      +0       0       0       0
  7193 ;;      Locals:         0       1       0       0       0       0       0       0       0       0       0       0       
      +0       0       0       0
  7194 ;;      Temps:          0       0       0       0       0       0       0       0       0       0       0       0       
      +0       0       0       0
  7195 ;;      Totals:         0       1       0       0       0       0       0       0       0       0       0       0       
      +0       0       0       0
  7196 ;;Total ram usage:        1 bytes
  7197 ;; Hardware stack levels used: 1
  7198 ;; Hardware stack levels required when called: 5
  7199 ;; This function calls:
  7200 ;;		Nothing
  7201 ;; This function is called by:
  7202 ;;		_main
  7203 ;; This function uses a non-reentrant model
  7204 ;;
  7205                           
  7206                           	psect	text43
  7207   003AFA                     __ptext43:
  7208                           	callstack 0
  7209   003AFA                     _Buzzer:
  7210                           	callstack 25
  7211                           
  7212                           ; BSR set to: 0
  7213                           ;incstack = 0
  7214                           ;Buzzer@on_off stored from wreg
  7215   003AFA  0100               	movlb	0	; () banked
  7216   003AFC  6F60               	movwf	Buzzer@on_off& (0+255),b
  7217                           
  7218                           ;commandes.c: 137: void Buzzer(uint8_t on_off);commandes.c: 138: {;commandes.c: 139:    
      +                           if(on_off)
  7219   003AFE  0100               	movlb	0	; () banked
  7220   003B00  5160               	movf	Buzzer@on_off& (0+255),w,b
  7221   003B02  B4D8               	btfsc	status,2,c
  7222   003B04  D002               	goto	l1820
  7223                           
  7224                           ; BSR set to: 0
  7225                           ;commandes.c: 140:             {;commandes.c: 141:                 LATBbits.LATB4 = 1;
  7226   003B06  8884               	bsf	132,4,c	;volatile
  7227                           
  7228                           ;commandes.c: 142:             }
  7229   003B08  0012               	return	
  7230   003B0A                     l1820:
  7231                           
  7232                           ; BSR set to: 0
  7233                           ;commandes.c: 144:             {;commandes.c: 145:                 LATBbits.LATB4 = 0;
  7234   003B0A  9884               	bcf	132,4,c	;volatile
  7235                           
  7236                           ; BSR set to: 0
  7237   003B0C  0012               	return		;funcret
  7238   003B0E                     __end_of_Buzzer:
  7239                           	callstack 0
  7240                           
  7241 ;; *************** function _ADCC_GetSingleConversion *****************
  7242 ;; Defined at:
  7243 ;;		line 129 in file "mcc_generated_files/adcc.c"
  7244 ;; Parameters:    Size  Location     Type
  7245 ;;  channel         1    wreg     enum E10053
  7246 ;; Auto vars:     Size  Location     Type
  7247 ;;  channel         1    4[BANK0 ] enum E10053
  7248 ;; Return value:  Size  Location     Type
  7249 ;;                  2    0[BANK0 ] unsigned short 
  7250 ;; Registers used:
  7251 ;;		wreg, status,2, status,0
  7252 ;; Tracked objects:
  7253 ;;		On entry : 0/0
  7254 ;;		On exit  : 0/0
  7255 ;;		Unchanged: 0/0
  7256 ;; Data sizes:     COMRAM   BANK0   BANK1   BANK2   BANK3   BANK4   BANK5   BANK6   BANK7   BANK8   BANK9  BANK10  BANK1
      +1  BANK12  BANK13  BANK14
  7257 ;;      Params:         0       2       0       0       0       0       0       0       0       0       0       0       
      +0       0       0       0
  7258 ;;      Locals:         0       1       0       0       0       0       0       0       0       0       0       0       
      +0       0       0       0
  7259 ;;      Temps:          0       2       0       0       0       0       0       0       0       0       0       0       
      +0       0       0       0
  7260 ;;      Totals:         0       5       0       0       0       0       0       0       0       0       0       0       
      +0       0       0       0
  7261 ;;Total ram usage:        5 bytes
  7262 ;; Hardware stack levels used: 1
  7263 ;; Hardware stack levels required when called: 5
  7264 ;; This function calls:
  7265 ;;		Nothing
  7266 ;; This function is called by:
  7267 ;;		_main
  7268 ;; This function uses a non-reentrant model
  7269 ;;
  7270                           
  7271                           	psect	text44
  7272   00387A                     __ptext44:
  7273                           	callstack 0
  7274   00387A                     _ADCC_GetSingleConversion:
  7275                           	callstack 25
  7276                           
  7277                           ; BSR set to: 0
  7278                           ;incstack = 0
  7279                           ;ADCC_GetSingleConversion@channel stored from wreg
  7280   00387A  0100               	movlb	0	; () banked
  7281   00387C  6F64               	movwf	ADCC_GetSingleConversion@channel& (0+255),b
  7282                           
  7283                           ;mcc_generated_files/adcc.c: 129: adc_result_t ADCC_GetSingleConversion(adcc_channel_t c
      +                          hannel);mcc_generated_files/adcc.c: 130: {;mcc_generated_files/adcc.c: 132:     ADPCH = 
      +                          channel;
  7284   00387E  C064  FF5F         	movff	ADCC_GetSingleConversion@channel,3935	;volatile
  7285                           
  7286                           ;mcc_generated_files/adcc.c: 135:     ADCON0bits.ADON = 1;
  7287   003882  8E60               	bsf	96,7,c	;volatile
  7288                           
  7289                           ;mcc_generated_files/adcc.c: 138:     ADCON0bits.ADCONT = 0;
  7290   003884  9C60               	bcf	96,6,c	;volatile
  7291                           
  7292                           ;mcc_generated_files/adcc.c: 141:     ADCON0bits.ADGO = 1;
  7293   003886  8060               	bsf	96,0,c	;volatile
  7294   003888                     l1067:
  7295                           
  7296                           ;mcc_generated_files/adcc.c: 145:     while (ADCON0bits.ADGO)
  7297   003888  B060               	btfsc	96,0,c	;volatile
  7298   00388A  D7FE               	goto	l1067
  7299                           
  7300                           ;mcc_generated_files/adcc.c: 151:     return ((adc_result_t)((ADRESH << 8) + ADRESL));
  7301   00388C  5064               	movf	100,w,c	;volatile
  7302   00388E  0100               	movlb	0	; () banked
  7303   003890  6F63               	movwf	(??_ADCC_GetSingleConversion+1)& (0+255),b
  7304   003892  6B62               	clrf	??_ADCC_GetSingleConversion& (0+255),b
  7305   003894  5063               	movf	99,w,c	;volatile
  7306   003896  2562               	addwf	??_ADCC_GetSingleConversion& (0+255),w,b
  7307   003898  6F60               	movwf	?_ADCC_GetSingleConversion& (0+255),b
  7308   00389A  0E00               	movlw	0
  7309   00389C  2163               	addwfc	(??_ADCC_GetSingleConversion+1)& (0+255),w,b
  7310   00389E  6F61               	movwf	(?_ADCC_GetSingleConversion+1)& (0+255),b
  7311                           
  7312                           ; BSR set to: 0
  7313   0038A0  0012               	return		;funcret
  7314   0038A2                     __end_of_ADCC_GetSingleConversion:
  7315                           	callstack 0
  7316                           
  7317 ;; *************** function _INTERRUPT_InterruptManager *****************
  7318 ;; Defined at:
  7319 ;;		line 58 in file "mcc_generated_files/interrupt_manager.c"
  7320 ;; Parameters:    Size  Location     Type
  7321 ;;		None
  7322 ;; Auto vars:     Size  Location     Type
  7323 ;;		None
  7324 ;; Return value:  Size  Location     Type
  7325 ;;                  1    wreg      void 
  7326 ;; Registers used:
  7327 ;;		wreg, fsr2l, fsr2h, status,2, status,0, pcl, pclath, pclatu, tosl, prodl, prodh, cstack
  7328 ;; Tracked objects:
  7329 ;;		On entry : 0/0
  7330 ;;		On exit  : 0/0
  7331 ;;		Unchanged: 0/0
  7332 ;; Data sizes:     COMRAM   BANK0   BANK1   BANK2   BANK3   BANK4   BANK5   BANK6   BANK7   BANK8   BANK9  BANK10  BANK1
      +1  BANK12  BANK13  BANK14
  7333 ;;      Params:         0       0       0       0       0       0       0       0       0       0       0       0       
      +0       0       0       0
  7334 ;;      Locals:         0       0       0       0       0       0       0       0       0       0       0       0       
      +0       0       0       0
  7335 ;;      Temps:          6       0       0       0       0       0       0       0       0       0       0       0       
      +0       0       0       0
  7336 ;;      Totals:         6       0       0       0       0       0       0       0       0       0       0       0       
      +0       0       0       0
  7337 ;;Total ram usage:        6 bytes
  7338 ;; Hardware stack levels used: 1
  7339 ;; Hardware stack levels required when called: 4
  7340 ;; This function calls:
  7341 ;;		NULL
  7342 ;;		_EUSART1_Receive_ISR
  7343 ;;		_EUSART1_Transmit_ISR
  7344 ;;		_I2C1_BusCollisionISR
  7345 ;;		_I2C1_ISR
  7346 ;;		_PIN_MANAGER_IOC
  7347 ;;		_TMR0_ISR
  7348 ;;		_TMR1_ISR
  7349 ;;		_TMR3_ISR
  7350 ;;		_TMR4_ISR
  7351 ;; This function is called by:
  7352 ;;		Interrupt level 2
  7353 ;; This function uses a non-reentrant model
  7354 ;;
  7355                           
  7356                           	psect	intcode
  7357   000008                     __pintcode:
  7358                           	callstack 0
  7359   000008                     _INTERRUPT_InterruptManager:
  7360                           	callstack 22
  7361                           
  7362                           ; BSR set to: 0
  7363                           ;incstack = 0
  7364   000008  825B               	bsf	btemp,1,c	;set compiler interrupt flag (level 2)
  7365   00000A  CFFA F046          	movff	pclath,??_INTERRUPT_InterruptManager
  7366   00000E  CFFB F047          	movff	pclatu,??_INTERRUPT_InterruptManager+1
  7367   000012  CFD9 F048          	movff	fsr2l,??_INTERRUPT_InterruptManager+2
  7368   000016  CFDA F049          	movff	fsr2h,??_INTERRUPT_InterruptManager+3
  7369   00001A  CFF3 F04A          	movff	prodl,??_INTERRUPT_InterruptManager+4
  7370   00001E  CFF4 F04B          	movff	prodh,??_INTERRUPT_InterruptManager+5
  7371                           
  7372                           ;mcc_generated_files/interrupt_manager.c: 61:     if(PIE0bits.TMR0IE == 1 && PIR0bits.TM
      +                          R0IF == 1)
  7373   000022  010E               	movlb	14	; () banked
  7374   000024  BBC2               	btfsc	194,5,b	;volatile
  7375                           
  7376                           ; BSR set to: 14
  7377   000026  ABCA               	btfss	202,5,b	;volatile
  7378   000028  D003               	goto	i2l831
  7379                           
  7380                           ; BSR set to: 14
  7381                           ;mcc_generated_files/interrupt_manager.c: 62:     {;mcc_generated_files/interrupt_manage
      +                          r.c: 63:         TMR0_ISR();
  7382   00002A  ECB9  F01B         	call	_TMR0_ISR	;wreg free
  7383                           
  7384                           ;mcc_generated_files/interrupt_manager.c: 64:     }
  7385   00002E  D043               	goto	i2l845
  7386   000030                     i2l831:
  7387                           
  7388                           ; BSR set to: 14
  7389   000030  B9C2               	btfsc	194,4,b	;volatile
  7390                           
  7391                           ; BSR set to: 14
  7392   000032  A9CA               	btfss	202,4,b	;volatile
  7393   000034  D003               	goto	i2l833
  7394                           
  7395                           ; BSR set to: 14
  7396                           ;mcc_generated_files/interrupt_manager.c: 66:     {;mcc_generated_files/interrupt_manage
      +                          r.c: 67:         PIN_MANAGER_IOC();
  7397   000036  EC65  F01C         	call	_PIN_MANAGER_IOC	;wreg free
  7398                           
  7399                           ;mcc_generated_files/interrupt_manager.c: 68:     }
  7400   00003A  D03D               	goto	i2l845
  7401   00003C                     i2l833:
  7402                           
  7403                           ; BSR set to: 14
  7404   00003C  ACF2               	btfss	242,6,c	;volatile
  7405   00003E  D03B               	goto	i2l845
  7406                           
  7407                           ; BSR set to: 14
  7408                           ;mcc_generated_files/interrupt_manager.c: 70:     {;mcc_generated_files/interrupt_manage
      +                          r.c: 71:         if(PIE3bits.BCL1IE == 1 && PIR3bits.BCL1IF == 1)
  7409   000040  B3C5               	btfsc	197,1,b	;volatile
  7410                           
  7411                           ; BSR set to: 14
  7412   000042  A3CD               	btfss	205,1,b	;volatile
  7413   000044  D003               	goto	i2l836
  7414                           
  7415                           ; BSR set to: 14
  7416                           ;mcc_generated_files/interrupt_manager.c: 72:         {;mcc_generated_files/interrupt_ma
      +                          nager.c: 73:             I2C1_BusCollisionISR();
  7417   000046  ECFE  F01D         	call	_I2C1_BusCollisionISR	;wreg free
  7418                           
  7419                           ;mcc_generated_files/interrupt_manager.c: 74:         }
  7420   00004A  D035               	goto	i2l845
  7421   00004C                     i2l836:
  7422                           
  7423                           ; BSR set to: 14
  7424   00004C  B1C5               	btfsc	197,0,b	;volatile
  7425                           
  7426                           ; BSR set to: 14
  7427   00004E  A1CD               	btfss	205,0,b	;volatile
  7428   000050  D003               	goto	i2l838
  7429                           
  7430                           ; BSR set to: 14
  7431                           ;mcc_generated_files/interrupt_manager.c: 76:         {;mcc_generated_files/interrupt_ma
      +                          nager.c: 77:             I2C1_ISR();
  7432   000052  EC10  F014         	call	_I2C1_ISR	;wreg free
  7433                           
  7434                           ;mcc_generated_files/interrupt_manager.c: 78:         }
  7435   000056  D02F               	goto	i2l845
  7436   000058                     i2l838:
  7437                           
  7438                           ; BSR set to: 14
  7439   000058  B9C5               	btfsc	197,4,b	;volatile
  7440                           
  7441                           ; BSR set to: 14
  7442   00005A  A9CD               	btfss	205,4,b	;volatile
  7443   00005C  D00B               	goto	i2l840
  7444                           
  7445                           ; BSR set to: 14
  7446                           ;mcc_generated_files/interrupt_manager.c: 80:         {;mcc_generated_files/interrupt_ma
      +                          nager.c: 81:             EUSART1_TxDefaultInterruptHandler();
  7447   00005E  D801               	call	i2u761_48
  7448   000060  D02A               	goto	i2l845
  7449   000062                     i2u761_48:
  7450   000062  0005               	push	
  7451   000064  6EFA               	movwf	pclath,c
  7452   000066  0101               	movlb	1	; () banked
  7453   000068  5173               	movf	_EUSART1_TxDefaultInterruptHandler& (0+255),w,b
  7454   00006A  6EFD               	movwf	tosl,c
  7455   00006C  5174               	movf	(_EUSART1_TxDefaultInterruptHandler+1)& (0+255),w,b
  7456   00006E  6EFE               	movwf	tosh,c
  7457   000070  5175               	movf	(_EUSART1_TxDefaultInterruptHandler+2)& (0+255),w,b
  7458   000072  D00D               	goto	L7
  7459   000074                     i2l840:
  7460                           
  7461                           ; BSR set to: 14
  7462   000074  BBC5               	btfsc	197,5,b	;volatile
  7463                           
  7464                           ; BSR set to: 14
  7465   000076  ABCD               	btfss	205,5,b	;volatile
  7466   000078  D00D               	goto	i2l842
  7467                           
  7468                           ; BSR set to: 14
  7469                           ;mcc_generated_files/interrupt_manager.c: 84:         {;mcc_generated_files/interrupt_ma
      +                          nager.c: 85:             EUSART1_RxDefaultInterruptHandler();
  7470   00007A  D801               	call	i2u764_48
  7471   00007C  D01C               	goto	i2l845
  7472   00007E                     i2u764_48:
  7473   00007E  0005               	push	
  7474   000080  6EFA               	movwf	pclath,c
  7475   000082  0101               	movlb	1	; () banked
  7476   000084  5170               	movf	_EUSART1_RxDefaultInterruptHandler& (0+255),w,b
  7477   000086  6EFD               	movwf	tosl,c
  7478   000088  5171               	movf	(_EUSART1_RxDefaultInterruptHandler+1)& (0+255),w,b
  7479   00008A  6EFE               	movwf	tosh,c
  7480   00008C  5172               	movf	(_EUSART1_RxDefaultInterruptHandler+2)& (0+255),w,b
  7481   00008E                     L7:
  7482   00008E  6EFF               	movwf	tosu,c
  7483   000090  50FA               	movf	pclath,w,c
  7484   000092  0012               	return		;indir
  7485   000094                     i2l842:
  7486                           
  7487                           ; BSR set to: 14
  7488   000094  B7C6               	btfsc	198,3,b	;volatile
  7489                           
  7490                           ; BSR set to: 14
  7491   000096  A7CE               	btfss	206,3,b	;volatile
  7492   000098  D003               	goto	i2l844
  7493                           
  7494                           ; BSR set to: 14
  7495                           ;mcc_generated_files/interrupt_manager.c: 88:         {;mcc_generated_files/interrupt_ma
      +                          nager.c: 89:             TMR4_ISR();
  7496   00009A  EC51  F01C         	call	_TMR4_ISR	;wreg free
  7497                           
  7498                           ;mcc_generated_files/interrupt_manager.c: 90:         }
  7499   00009E  D00B               	goto	i2l845
  7500   0000A0                     i2l844:
  7501                           
  7502                           ; BSR set to: 14
  7503   0000A0  B5C6               	btfsc	198,2,b	;volatile
  7504                           
  7505                           ; BSR set to: 14
  7506   0000A2  A5CE               	btfss	206,2,b	;volatile
  7507   0000A4  D003               	goto	i2l846
  7508                           
  7509                           ; BSR set to: 14
  7510                           ;mcc_generated_files/interrupt_manager.c: 92:         {;mcc_generated_files/interrupt_ma
      +                          nager.c: 93:             TMR3_ISR();
  7511   0000A6  EC6C  F01B         	call	_TMR3_ISR	;wreg free
  7512                           
  7513                           ;mcc_generated_files/interrupt_manager.c: 94:         }
  7514   0000AA  D005               	goto	i2l845
  7515   0000AC                     i2l846:
  7516                           
  7517                           ; BSR set to: 14
  7518   0000AC  B1C6               	btfsc	198,0,b	;volatile
  7519                           
  7520                           ; BSR set to: 14
  7521   0000AE  A1CE               	btfss	206,0,b	;volatile
  7522   0000B0  D002               	goto	i2l845
  7523                           
  7524                           ; BSR set to: 14
  7525                           ;mcc_generated_files/interrupt_manager.c: 96:         {;mcc_generated_files/interrupt_ma
      +                          nager.c: 97:             TMR1_ISR();
  7526   0000B2  EC86  F01B         	call	_TMR1_ISR	;wreg free
  7527   0000B6                     i2l845:
  7528                           
  7529                           ; BSR set to: 14
  7530   0000B6  C04B  FFF4         	movff	??_INTERRUPT_InterruptManager+5,prodh
  7531   0000BA  C04A  FFF3         	movff	??_INTERRUPT_InterruptManager+4,prodl
  7532   0000BE  C049  FFDA         	movff	??_INTERRUPT_InterruptManager+3,fsr2h
  7533   0000C2  C048  FFD9         	movff	??_INTERRUPT_InterruptManager+2,fsr2l
  7534   0000C6  C047  FFFB         	movff	??_INTERRUPT_InterruptManager+1,pclatu
  7535   0000CA  C046  FFFA         	movff	??_INTERRUPT_InterruptManager,pclath
  7536   0000CE  925B               	bcf	btemp,1,c	;clear compiler interrupt flag (level 2)
  7537   0000D0  0011               	retfie		f
  7538   0000D2                     __end_of_INTERRUPT_InterruptManager:
  7539                           	callstack 0
  7540                           
  7541 ;; *************** function _TMR4_ISR *****************
  7542 ;; Defined at:
  7543 ;;		line 197 in file "mcc_generated_files/tmr4.c"
  7544 ;; Parameters:    Size  Location     Type
  7545 ;;		None
  7546 ;; Auto vars:     Size  Location     Type
  7547 ;;		None
  7548 ;; Return value:  Size  Location     Type
  7549 ;;                  1    wreg      void 
  7550 ;; Registers used:
  7551 ;;		wreg, status,2, status,0, pcl, pclath, pclatu, tosl, prodl, prodh, cstack
  7552 ;; Tracked objects:
  7553 ;;		On entry : 0/0
  7554 ;;		On exit  : 0/0
  7555 ;;		Unchanged: 0/0
  7556 ;; Data sizes:     COMRAM   BANK0   BANK1   BANK2   BANK3   BANK4   BANK5   BANK6   BANK7   BANK8   BANK9  BANK10  BANK1
      +1  BANK12  BANK13  BANK14
  7557 ;;      Params:         0       0       0       0       0       0       0       0       0       0       0       0       
      +0       0       0       0
  7558 ;;      Locals:         0       0       0       0       0       0       0       0       0       0       0       0       
      +0       0       0       0
  7559 ;;      Temps:          0       0       0       0       0       0       0       0       0       0       0       0       
      +0       0       0       0
  7560 ;;      Totals:         0       0       0       0       0       0       0       0       0       0       0       0       
      +0       0       0       0
  7561 ;;Total ram usage:        0 bytes
  7562 ;; Hardware stack levels used: 1
  7563 ;; Hardware stack levels required when called: 2
  7564 ;; This function calls:
  7565 ;;		NULL
  7566 ;;		_TMR4_DefaultInterruptHandler
  7567 ;; This function is called by:
  7568 ;;		_INTERRUPT_InterruptManager
  7569 ;; This function uses a non-reentrant model
  7570 ;;
  7571                           
  7572                           	psect	text46
  7573   0038A2                     __ptext46:
  7574                           	callstack 0
  7575   0038A2                     _TMR4_ISR:
  7576                           	callstack 23
  7577                           
  7578                           ;mcc_generated_files/tmr4.c: 201:     PIR4bits.TMR4IF = 0;
  7579                           
  7580                           ;incstack = 0
  7581   0038A2  010E               	movlb	14	; () banked
  7582   0038A4  97CE               	bcf	206,3,b	;volatile
  7583                           
  7584                           ; BSR set to: 14
  7585                           ;mcc_generated_files/tmr4.c: 203:     if(TMR4_InterruptHandler)
  7586   0038A6  0101               	movlb	1	; () banked
  7587   0038A8  5155               	movf	_TMR4_InterruptHandler& (0+255),w,b
  7588   0038AA  1156               	iorwf	(_TMR4_InterruptHandler+1)& (0+255),w,b
  7589   0038AC  1157               	iorwf	(_TMR4_InterruptHandler+2)& (0+255),w,b
  7590   0038AE  B4D8               	btfsc	status,2,c
  7591   0038B0  0012               	return	
  7592                           
  7593                           ; BSR set to: 1
  7594                           ;mcc_generated_files/tmr4.c: 204:     {;mcc_generated_files/tmr4.c: 205:         TMR4_In
      +                          terruptHandler();
  7595   0038B2  D801               	call	i2u638_48
  7596   0038B4  0012               	return	
  7597   0038B6                     i2u638_48:
  7598   0038B6  0005               	push	
  7599   0038B8  6EFA               	movwf	pclath,c
  7600   0038BA  5155               	movf	_TMR4_InterruptHandler& (0+255),w,b
  7601   0038BC  6EFD               	movwf	tosl,c
  7602   0038BE  5156               	movf	(_TMR4_InterruptHandler+1)& (0+255),w,b
  7603   0038C0  6EFE               	movwf	tosh,c
  7604   0038C2  5157               	movf	(_TMR4_InterruptHandler+2)& (0+255),w,b
  7605   0038C4  6EFF               	movwf	tosu,c
  7606   0038C6  50FA               	movf	pclath,w,c
  7607   0038C8  0012               	return		;indir
  7608   0038CA                     __end_of_TMR4_ISR:
  7609                           	callstack 0
  7610                           
  7611 ;; *************** function _TMR4_DefaultInterruptHandler *****************
  7612 ;; Defined at:
  7613 ;;		line 233 in file "mcc_generated_files/tmr4.c"
  7614 ;; Parameters:    Size  Location     Type
  7615 ;;		None
  7616 ;; Auto vars:     Size  Location     Type
  7617 ;;		None
  7618 ;; Return value:  Size  Location     Type
  7619 ;;                  1    wreg      void 
  7620 ;; Registers used:
  7621 ;;		wreg, status,2, status,0, prodl, prodh, cstack
  7622 ;; Tracked objects:
  7623 ;;		On entry : 0/0
  7624 ;;		On exit  : 0/0
  7625 ;;		Unchanged: 0/0
  7626 ;; Data sizes:     COMRAM   BANK0   BANK1   BANK2   BANK3   BANK4   BANK5   BANK6   BANK7   BANK8   BANK9  BANK10  BANK1
      +1  BANK12  BANK13  BANK14
  7627 ;;      Params:         0       0       0       0       0       0       0       0       0       0       0       0       
      +0       0       0       0
  7628 ;;      Locals:         4       0       0       0       0       0       0       0       0       0       0       0       
      +0       0       0       0
  7629 ;;      Temps:          0       0       0       0       0       0       0       0       0       0       0       0       
      +0       0       0       0
  7630 ;;      Totals:         4       0       0       0       0       0       0       0       0       0       0       0       
      +0       0       0       0
  7631 ;;Total ram usage:        4 bytes
  7632 ;; Hardware stack levels used: 1
  7633 ;; Hardware stack levels required when called: 1
  7634 ;; This function calls:
  7635 ;;		_PWM1_LoadDutyValue
  7636 ;;		_PWM2_LoadDutyValue
  7637 ;;		i2___fladd
  7638 ;;		i2___flmul
  7639 ;;		i2___fltol
  7640 ;;		i2___xxtofl
  7641 ;; This function is called by:
  7642 ;;		_TMR4_Initialize
  7643 ;;		_TMR4_ISR
  7644 ;; This function uses a non-reentrant model
  7645 ;;
  7646                           
  7647                           	psect	text47
  7648   00257A                     __ptext47:
  7649                           	callstack 0
  7650   00257A                     _TMR4_DefaultInterruptHandler:
  7651                           	callstack 23
  7652                           
  7653                           ;mcc_generated_files/tmr4.c: 265:        Erreur_Vitesse_Moteur_G = Consigne_Vitesse_Mote
      +                          ur_G - Vitesse_Moteur_G;
  7654                           
  7655                           ;incstack = 0
  7656   00257A  0101               	movlb	1	; () banked
  7657   00257C  513E               	movf	_Vitesse_Moteur_G& (0+255),w,b
  7658   00257E  5D36               	subwf	_Consigne_Vitesse_Moteur_G& (0+255),w,b
  7659   002580  6F32               	movwf	_Erreur_Vitesse_Moteur_G& (0+255),b
  7660   002582  513F               	movf	(_Vitesse_Moteur_G+1)& (0+255),w,b
  7661   002584  5937               	subwfb	(_Consigne_Vitesse_Moteur_G+1)& (0+255),w,b
  7662   002586  6F33               	movwf	(_Erreur_Vitesse_Moteur_G+1)& (0+255),b
  7663                           
  7664                           ; BSR set to: 1
  7665                           ;mcc_generated_files/tmr4.c: 266:        dutyValue_G = (float)ancien_dutyValue_G + 20.2 
      +                          * (float) Erreur_Vitesse_Moteur_G + -19.8 * (float) Ancienne_Erreur_Vitesse_Moteur_G;
  7666   002588  0E9A               	movlw	154
  7667   00258A  6E13               	movwf	i2___flmul@a^0,c
  7668   00258C  0E99               	movlw	153
  7669   00258E  6E14               	movwf	(i2___flmul@a+1)^0,c
  7670   002590  0EA1               	movlw	161
  7671   002592  6E15               	movwf	(i2___flmul@a+2)^0,c
  7672   002594  0E41               	movlw	65
  7673   002596  6E16               	movwf	(i2___flmul@a+3)^0,c
  7674   002598  C132  F001         	movff	_Erreur_Vitesse_Moteur_G,i2___xxtofl@val
  7675   00259C  C133  F002         	movff	_Erreur_Vitesse_Moteur_G+1,i2___xxtofl@val+1
  7676   0025A0  0E00               	movlw	0
  7677   0025A2  BE02               	btfsc	(i2___xxtofl@val+1)^0,7,c
  7678   0025A4  0EFF               	movlw	-1
  7679   0025A6  6E03               	movwf	(i2___xxtofl@val+2)^0,c
  7680   0025A8  6E04               	movwf	(i2___xxtofl@val+3)^0,c
  7681   0025AA  0E01               	movlw	1
  7682   0025AC  ECD9  F015         	call	i2___xxtofl
  7683   0025B0  C001  F00F         	movff	?i2___xxtofl,i2___flmul@b
  7684   0025B4  C002  F010         	movff	?i2___xxtofl+1,i2___flmul@b+1
  7685   0025B8  C003  F011         	movff	?i2___xxtofl+2,i2___flmul@b+2
  7686   0025BC  C004  F012         	movff	?i2___xxtofl+3,i2___flmul@b+3
  7687   0025C0  EC07  F00E         	call	i2___flmul	;wreg free
  7688   0025C4  C00F  F02C         	movff	?i2___flmul,i2___fladd@a
  7689   0025C8  C010  F02D         	movff	?i2___flmul+1,i2___fladd@a+1
  7690   0025CC  C011  F02E         	movff	?i2___flmul+2,i2___fladd@a+2
  7691   0025D0  C012  F02F         	movff	?i2___flmul+3,i2___fladd@a+3
  7692   0025D4  C186  F001         	movff	_ancien_dutyValue_G,i2___xxtofl@val
  7693   0025D8  C187  F002         	movff	_ancien_dutyValue_G+1,i2___xxtofl@val+1
  7694   0025DC  0E00               	movlw	0
  7695   0025DE  BE02               	btfsc	(i2___xxtofl@val+1)^0,7,c
  7696   0025E0  0EFF               	movlw	-1
  7697   0025E2  6E03               	movwf	(i2___xxtofl@val+2)^0,c
  7698   0025E4  6E04               	movwf	(i2___xxtofl@val+3)^0,c
  7699   0025E6  0E01               	movlw	1
  7700   0025E8  ECD9  F015         	call	i2___xxtofl
  7701   0025EC  C001  F028         	movff	?i2___xxtofl,i2___fladd@b
  7702   0025F0  C002  F029         	movff	?i2___xxtofl+1,i2___fladd@b+1
  7703   0025F4  C003  F02A         	movff	?i2___xxtofl+2,i2___fladd@b+2
  7704   0025F8  C004  F02B         	movff	?i2___xxtofl+3,i2___fladd@b+3
  7705   0025FC  EC37  F011         	call	i2___fladd	;wreg free
  7706   002600  C028  F042         	movff	?i2___fladd,_TMR4_DefaultInterruptHandler$5646
  7707   002604  C029  F043         	movff	?i2___fladd+1,_TMR4_DefaultInterruptHandler$5646+1
  7708   002608  C02A  F044         	movff	?i2___fladd+2,_TMR4_DefaultInterruptHandler$5646+2
  7709   00260C  C02B  F045         	movff	?i2___fladd+3,_TMR4_DefaultInterruptHandler$5646+3
  7710                           
  7711                           ;mcc_generated_files/tmr4.c: 266:        dutyValue_G = (float)ancien_dutyValue_G + 20.2 
      +                          * (float) Erreur_Vitesse_Moteur_G + -19.8 * (float) Ancienne_Erreur_Vitesse_Moteur_G;
  7712   002610  0E66               	movlw	102
  7713   002612  6E13               	movwf	i2___flmul@a^0,c
  7714   002614  0E66               	movlw	102
  7715   002616  6E14               	movwf	(i2___flmul@a+1)^0,c
  7716   002618  0E9E               	movlw	158
  7717   00261A  6E15               	movwf	(i2___flmul@a+2)^0,c
  7718   00261C  0EC1               	movlw	193
  7719   00261E  6E16               	movwf	(i2___flmul@a+3)^0,c
  7720   002620  C130  F001         	movff	_Ancienne_Erreur_Vitesse_Moteur_G,i2___xxtofl@val
  7721   002624  C131  F002         	movff	_Ancienne_Erreur_Vitesse_Moteur_G+1,i2___xxtofl@val+1
  7722   002628  0E00               	movlw	0
  7723   00262A  BE02               	btfsc	(i2___xxtofl@val+1)^0,7,c
  7724   00262C  0EFF               	movlw	-1
  7725   00262E  6E03               	movwf	(i2___xxtofl@val+2)^0,c
  7726   002630  6E04               	movwf	(i2___xxtofl@val+3)^0,c
  7727   002632  0E01               	movlw	1
  7728   002634  ECD9  F015         	call	i2___xxtofl
  7729   002638  C001  F00F         	movff	?i2___xxtofl,i2___flmul@b
  7730   00263C  C002  F010         	movff	?i2___xxtofl+1,i2___flmul@b+1
  7731   002640  C003  F011         	movff	?i2___xxtofl+2,i2___flmul@b+2
  7732   002644  C004  F012         	movff	?i2___xxtofl+3,i2___flmul@b+3
  7733   002648  EC07  F00E         	call	i2___flmul	;wreg free
  7734   00264C  C00F  F02C         	movff	?i2___flmul,i2___fladd@a
  7735   002650  C010  F02D         	movff	?i2___flmul+1,i2___fladd@a+1
  7736   002654  C011  F02E         	movff	?i2___flmul+2,i2___fladd@a+2
  7737   002658  C012  F02F         	movff	?i2___flmul+3,i2___fladd@a+3
  7738   00265C  C042  F028         	movff	_TMR4_DefaultInterruptHandler$5646,i2___fladd@b
  7739   002660  C043  F029         	movff	_TMR4_DefaultInterruptHandler$5646+1,i2___fladd@b+1
  7740   002664  C044  F02A         	movff	_TMR4_DefaultInterruptHandler$5646+2,i2___fladd@b+2
  7741   002668  C045  F02B         	movff	_TMR4_DefaultInterruptHandler$5646+3,i2___fladd@b+3
  7742   00266C  EC37  F011         	call	i2___fladd	;wreg free
  7743   002670  C028  F038         	movff	?i2___fladd,i2___fltol@f1
  7744   002674  C029  F039         	movff	?i2___fladd+1,i2___fltol@f1+1
  7745   002678  C02A  F03A         	movff	?i2___fladd+2,i2___fltol@f1+2
  7746   00267C  C02B  F03B         	movff	?i2___fladd+3,i2___fltol@f1+3
  7747   002680  EC3A  F018         	call	i2___fltol	;wreg free
  7748   002684  C038  F04E         	movff	?i2___fltol,_dutyValue_G
  7749   002688  C039  F04F         	movff	?i2___fltol+1,_dutyValue_G+1
  7750                           
  7751                           ;mcc_generated_files/tmr4.c: 267:        Ancienne_Erreur_Vitesse_Moteur_G = Erreur_Vites
      +                          se_Moteur_G;
  7752   00268C  C132  F130         	movff	_Erreur_Vitesse_Moteur_G,_Ancienne_Erreur_Vitesse_Moteur_G
  7753   002690  C133  F131         	movff	_Erreur_Vitesse_Moteur_G+1,_Ancienne_Erreur_Vitesse_Moteur_G+1
  7754                           
  7755                           ;mcc_generated_files/tmr4.c: 269:        if (dutyValue_G > 800)
  7756   002694  BE4F               	btfsc	(_dutyValue_G+1)^0,7,c
  7757   002696  D00A               	goto	i2l6991
  7758   002698  0E21               	movlw	33
  7759   00269A  5C4E               	subwf	_dutyValue_G^0,w,c
  7760   00269C  0E03               	movlw	3
  7761   00269E  584F               	subwfb	(_dutyValue_G+1)^0,w,c
  7762   0026A0  A0D8               	btfss	status,0,c
  7763   0026A2  D004               	goto	i2l6991
  7764                           
  7765                           ;mcc_generated_files/tmr4.c: 270:             {dutyValue_G = 800;}
  7766   0026A4  0E03               	movlw	3
  7767   0026A6  6E4F               	movwf	(_dutyValue_G+1)^0,c
  7768   0026A8  0E20               	movlw	32
  7769   0026AA  D005               	goto	L8
  7770   0026AC                     i2l6991:
  7771   0026AC  AE4F               	btfss	(_dutyValue_G+1)^0,7,c
  7772   0026AE  D004               	goto	i2l6995
  7773                           
  7774                           ;mcc_generated_files/tmr4.c: 272:             {dutyValue_G = 0;}
  7775   0026B0  0E00               	movlw	0
  7776   0026B2  6E4F               	movwf	(_dutyValue_G+1)^0,c
  7777   0026B4  0E00               	movlw	0
  7778   0026B6                     L8:
  7779   0026B6  6E4E               	movwf	_dutyValue_G^0,c
  7780   0026B8                     i2l6995:
  7781                           
  7782                           ;mcc_generated_files/tmr4.c: 273:        ancien_dutyValue_G = dutyValue_G;
  7783   0026B8  C04E  F186         	movff	_dutyValue_G,_ancien_dutyValue_G
  7784   0026BC  C04F  F187         	movff	_dutyValue_G+1,_ancien_dutyValue_G+1
  7785                           
  7786                           ;mcc_generated_files/tmr4.c: 275:        Erreur_Vitesse_Moteur_D = Consigne_Vitesse_Mote
      +                          ur_D - Vitesse_Moteur_D;
  7787   0026C0  0101               	movlb	1	; () banked
  7788   0026C2  513C               	movf	_Vitesse_Moteur_D& (0+255),w,b
  7789   0026C4  5D34               	subwf	_Consigne_Vitesse_Moteur_D& (0+255),w,b
  7790   0026C6  6F2E               	movwf	_Erreur_Vitesse_Moteur_D& (0+255),b
  7791   0026C8  513D               	movf	(_Vitesse_Moteur_D+1)& (0+255),w,b
  7792   0026CA  5935               	subwfb	(_Consigne_Vitesse_Moteur_D+1)& (0+255),w,b
  7793   0026CC  6F2F               	movwf	(_Erreur_Vitesse_Moteur_D+1)& (0+255),b
  7794                           
  7795                           ; BSR set to: 1
  7796                           ;mcc_generated_files/tmr4.c: 276:        dutyValue_D = (float) ancien_dutyValue_D + 20.2
      +                           * (float) Erreur_Vitesse_Moteur_D + -19.8 * (float) Ancienne_Erreur_Vitesse_Moteur_D;
  7797   0026CE  0E9A               	movlw	154
  7798   0026D0  6E13               	movwf	i2___flmul@a^0,c
  7799   0026D2  0E99               	movlw	153
  7800   0026D4  6E14               	movwf	(i2___flmul@a+1)^0,c
  7801   0026D6  0EA1               	movlw	161
  7802   0026D8  6E15               	movwf	(i2___flmul@a+2)^0,c
  7803   0026DA  0E41               	movlw	65
  7804   0026DC  6E16               	movwf	(i2___flmul@a+3)^0,c
  7805   0026DE  C12E  F001         	movff	_Erreur_Vitesse_Moteur_D,i2___xxtofl@val
  7806   0026E2  C12F  F002         	movff	_Erreur_Vitesse_Moteur_D+1,i2___xxtofl@val+1
  7807   0026E6  0E00               	movlw	0
  7808   0026E8  BE02               	btfsc	(i2___xxtofl@val+1)^0,7,c
  7809   0026EA  0EFF               	movlw	-1
  7810   0026EC  6E03               	movwf	(i2___xxtofl@val+2)^0,c
  7811   0026EE  6E04               	movwf	(i2___xxtofl@val+3)^0,c
  7812   0026F0  0E01               	movlw	1
  7813   0026F2  ECD9  F015         	call	i2___xxtofl
  7814   0026F6  C001  F00F         	movff	?i2___xxtofl,i2___flmul@b
  7815   0026FA  C002  F010         	movff	?i2___xxtofl+1,i2___flmul@b+1
  7816   0026FE  C003  F011         	movff	?i2___xxtofl+2,i2___flmul@b+2
  7817   002702  C004  F012         	movff	?i2___xxtofl+3,i2___flmul@b+3
  7818   002706  EC07  F00E         	call	i2___flmul	;wreg free
  7819   00270A  C00F  F02C         	movff	?i2___flmul,i2___fladd@a
  7820   00270E  C010  F02D         	movff	?i2___flmul+1,i2___fladd@a+1
  7821   002712  C011  F02E         	movff	?i2___flmul+2,i2___fladd@a+2
  7822   002716  C012  F02F         	movff	?i2___flmul+3,i2___fladd@a+3
  7823   00271A  C184  F001         	movff	_ancien_dutyValue_D,i2___xxtofl@val
  7824   00271E  C185  F002         	movff	_ancien_dutyValue_D+1,i2___xxtofl@val+1
  7825   002722  0E00               	movlw	0
  7826   002724  BE02               	btfsc	(i2___xxtofl@val+1)^0,7,c
  7827   002726  0EFF               	movlw	-1
  7828   002728  6E03               	movwf	(i2___xxtofl@val+2)^0,c
  7829   00272A  6E04               	movwf	(i2___xxtofl@val+3)^0,c
  7830   00272C  0E01               	movlw	1
  7831   00272E  ECD9  F015         	call	i2___xxtofl
  7832   002732  C001  F028         	movff	?i2___xxtofl,i2___fladd@b
  7833   002736  C002  F029         	movff	?i2___xxtofl+1,i2___fladd@b+1
  7834   00273A  C003  F02A         	movff	?i2___xxtofl+2,i2___fladd@b+2
  7835   00273E  C004  F02B         	movff	?i2___xxtofl+3,i2___fladd@b+3
  7836   002742  EC37  F011         	call	i2___fladd	;wreg free
  7837   002746  C028  F042         	movff	?i2___fladd,_TMR4_DefaultInterruptHandler$5646
  7838   00274A  C029  F043         	movff	?i2___fladd+1,_TMR4_DefaultInterruptHandler$5646+1
  7839   00274E  C02A  F044         	movff	?i2___fladd+2,_TMR4_DefaultInterruptHandler$5646+2
  7840   002752  C02B  F045         	movff	?i2___fladd+3,_TMR4_DefaultInterruptHandler$5646+3
  7841                           
  7842                           ;mcc_generated_files/tmr4.c: 276:        dutyValue_D = (float) ancien_dutyValue_D + 20.2
      +                           * (float) Erreur_Vitesse_Moteur_D + -19.8 * (float) Ancienne_Erreur_Vitesse_Moteur_D;
  7843   002756  0E66               	movlw	102
  7844   002758  6E13               	movwf	i2___flmul@a^0,c
  7845   00275A  0E66               	movlw	102
  7846   00275C  6E14               	movwf	(i2___flmul@a+1)^0,c
  7847   00275E  0E9E               	movlw	158
  7848   002760  6E15               	movwf	(i2___flmul@a+2)^0,c
  7849   002762  0EC1               	movlw	193
  7850   002764  6E16               	movwf	(i2___flmul@a+3)^0,c
  7851   002766  C12C  F001         	movff	_Ancienne_Erreur_Vitesse_Moteur_D,i2___xxtofl@val
  7852   00276A  C12D  F002         	movff	_Ancienne_Erreur_Vitesse_Moteur_D+1,i2___xxtofl@val+1
  7853   00276E  0E00               	movlw	0
  7854   002770  BE02               	btfsc	(i2___xxtofl@val+1)^0,7,c
  7855   002772  0EFF               	movlw	-1
  7856   002774  6E03               	movwf	(i2___xxtofl@val+2)^0,c
  7857   002776  6E04               	movwf	(i2___xxtofl@val+3)^0,c
  7858   002778  0E01               	movlw	1
  7859   00277A  ECD9  F015         	call	i2___xxtofl
  7860   00277E  C001  F00F         	movff	?i2___xxtofl,i2___flmul@b
  7861   002782  C002  F010         	movff	?i2___xxtofl+1,i2___flmul@b+1
  7862   002786  C003  F011         	movff	?i2___xxtofl+2,i2___flmul@b+2
  7863   00278A  C004  F012         	movff	?i2___xxtofl+3,i2___flmul@b+3
  7864   00278E  EC07  F00E         	call	i2___flmul	;wreg free
  7865   002792  C00F  F02C         	movff	?i2___flmul,i2___fladd@a
  7866   002796  C010  F02D         	movff	?i2___flmul+1,i2___fladd@a+1
  7867   00279A  C011  F02E         	movff	?i2___flmul+2,i2___fladd@a+2
  7868   00279E  C012  F02F         	movff	?i2___flmul+3,i2___fladd@a+3
  7869   0027A2  C042  F028         	movff	_TMR4_DefaultInterruptHandler$5646,i2___fladd@b
  7870   0027A6  C043  F029         	movff	_TMR4_DefaultInterruptHandler$5646+1,i2___fladd@b+1
  7871   0027AA  C044  F02A         	movff	_TMR4_DefaultInterruptHandler$5646+2,i2___fladd@b+2
  7872   0027AE  C045  F02B         	movff	_TMR4_DefaultInterruptHandler$5646+3,i2___fladd@b+3
  7873   0027B2  EC37  F011         	call	i2___fladd	;wreg free
  7874   0027B6  C028  F038         	movff	?i2___fladd,i2___fltol@f1
  7875   0027BA  C029  F039         	movff	?i2___fladd+1,i2___fltol@f1+1
  7876   0027BE  C02A  F03A         	movff	?i2___fladd+2,i2___fltol@f1+2
  7877   0027C2  C02B  F03B         	movff	?i2___fladd+3,i2___fltol@f1+3
  7878   0027C6  EC3A  F018         	call	i2___fltol	;wreg free
  7879   0027CA  C038  F04C         	movff	?i2___fltol,_dutyValue_D
  7880   0027CE  C039  F04D         	movff	?i2___fltol+1,_dutyValue_D+1
  7881                           
  7882                           ;mcc_generated_files/tmr4.c: 277:        Ancienne_Erreur_Vitesse_Moteur_D = Erreur_Vites
      +                          se_Moteur_D;
  7883   0027D2  C12E  F12C         	movff	_Erreur_Vitesse_Moteur_D,_Ancienne_Erreur_Vitesse_Moteur_D
  7884   0027D6  C12F  F12D         	movff	_Erreur_Vitesse_Moteur_D+1,_Ancienne_Erreur_Vitesse_Moteur_D+1
  7885                           
  7886                           ;mcc_generated_files/tmr4.c: 278:        if (dutyValue_D > 800)
  7887   0027DA  BE4D               	btfsc	(_dutyValue_D+1)^0,7,c
  7888   0027DC  D00A               	goto	i2l7009
  7889   0027DE  0E21               	movlw	33
  7890   0027E0  5C4C               	subwf	_dutyValue_D^0,w,c
  7891   0027E2  0E03               	movlw	3
  7892   0027E4  584D               	subwfb	(_dutyValue_D+1)^0,w,c
  7893   0027E6  A0D8               	btfss	status,0,c
  7894   0027E8  D004               	goto	i2l7009
  7895                           
  7896                           ;mcc_generated_files/tmr4.c: 279:             {dutyValue_D = 800;}
  7897   0027EA  0E03               	movlw	3
  7898   0027EC  6E4D               	movwf	(_dutyValue_D+1)^0,c
  7899   0027EE  0E20               	movlw	32
  7900   0027F0  D005               	goto	L9
  7901   0027F2                     i2l7009:
  7902   0027F2  AE4D               	btfss	(_dutyValue_D+1)^0,7,c
  7903   0027F4  D004               	goto	i2l7013
  7904                           
  7905                           ;mcc_generated_files/tmr4.c: 281:             {dutyValue_D = 0;}
  7906   0027F6  0E00               	movlw	0
  7907   0027F8  6E4D               	movwf	(_dutyValue_D+1)^0,c
  7908   0027FA  0E00               	movlw	0
  7909   0027FC                     L9:
  7910   0027FC  6E4C               	movwf	_dutyValue_D^0,c
  7911   0027FE                     i2l7013:
  7912                           
  7913                           ;mcc_generated_files/tmr4.c: 282:        ancien_dutyValue_D = dutyValue_D;
  7914   0027FE  C04C  F184         	movff	_dutyValue_D,_ancien_dutyValue_D
  7915   002802  C04D  F185         	movff	_dutyValue_D+1,_ancien_dutyValue_D+1
  7916                           
  7917                           ;mcc_generated_files/tmr4.c: 284:        PWM2_LoadDutyValue( (int16_t) dutyValue_G );
  7918   002806  C04E  F001         	movff	_dutyValue_G,PWM2_LoadDutyValue@dutyValue
  7919   00280A  C04F  F002         	movff	_dutyValue_G+1,PWM2_LoadDutyValue@dutyValue+1
  7920   00280E  EC77  F01C         	call	_PWM2_LoadDutyValue	;wreg free
  7921                           
  7922                           ;mcc_generated_files/tmr4.c: 285:        PWM1_LoadDutyValue( (int16_t) dutyValue_D );
  7923   002812  C04C  F001         	movff	_dutyValue_D,PWM1_LoadDutyValue@dutyValue
  7924   002816  C04D  F002         	movff	_dutyValue_D+1,PWM1_LoadDutyValue@dutyValue+1
  7925   00281A  EC88  F01C         	call	_PWM1_LoadDutyValue	;wreg free
  7926   00281E  0012               	return		;funcret
  7927   002820                     __end_of_TMR4_DefaultInterruptHandler:
  7928                           	callstack 0
  7929                           
  7930 ;; *************** function i2___xxtofl *****************
  7931 ;; Defined at:
  7932 ;;		line 10 in file "C:\Program Files\Microchip\xc8\v2.41\pic\sources\c99\common\xxtofl.c"
  7933 ;; Parameters:    Size  Location     Type
  7934 ;;  sign            1    wreg     unsigned char 
  7935 ;;  val             4    0[COMRAM] long 
  7936 ;; Auto vars:     Size  Location     Type
  7937 ;;  sign            1    8[COMRAM] unsigned char 
  7938 ;;  arg             4   10[COMRAM] unsigned long 
  7939 ;;  exp             1    9[COMRAM] unsigned char 
  7940 ;; Return value:  Size  Location     Type
  7941 ;;                  4    0[COMRAM] unsigned char 
  7942 ;; Registers used:
  7943 ;;		wreg, status,2, status,0
  7944 ;; Tracked objects:
  7945 ;;		On entry : 0/0
  7946 ;;		On exit  : 0/0
  7947 ;;		Unchanged: 0/0
  7948 ;; Data sizes:     COMRAM   BANK0   BANK1   BANK2   BANK3   BANK4   BANK5   BANK6   BANK7   BANK8   BANK9  BANK10  BANK1
      +1  BANK12  BANK13  BANK14
  7949 ;;      Params:         4       0       0       0       0       0       0       0       0       0       0       0       
      +0       0       0       0
  7950 ;;      Locals:         6       0       0       0       0       0       0       0       0       0       0       0       
      +0       0       0       0
  7951 ;;      Temps:          4       0       0       0       0       0       0       0       0       0       0       0       
      +0       0       0       0
  7952 ;;      Totals:        14       0       0       0       0       0       0       0       0       0       0       0       
      +0       0       0       0
  7953 ;;Total ram usage:       14 bytes
  7954 ;; Hardware stack levels used: 1
  7955 ;; This function calls:
  7956 ;;		Nothing
  7957 ;; This function is called by:
  7958 ;;		_TMR4_DefaultInterruptHandler
  7959 ;; This function uses a non-reentrant model
  7960 ;;
  7961                           
  7962                           	psect	text48
  7963   002BB2                     __ptext48:
  7964                           	callstack 0
  7965   002BB2                     i2___xxtofl:
  7966                           	callstack 23
  7967                           
  7968                           ;incstack = 0
  7969                           ;i2___xxtofl@sign stored from wreg
  7970   002BB2  6E09               	movwf	i2___xxtofl@sign^0,c
  7971   002BB4  5009               	movf	i2___xxtofl@sign^0,w,c
  7972   002BB6  A4D8               	btfss	status,2,c
  7973   002BB8  AE04               	btfss	(i2___xxtofl@val+3)^0,7,c
  7974   002BBA  D01A               	goto	i2l2509
  7975   002BBC  C001  F005         	movff	i2___xxtofl@val,??i2___xxtofl
  7976   002BC0  C002  F006         	movff	i2___xxtofl@val+1,??i2___xxtofl+1
  7977   002BC4  C003  F007         	movff	i2___xxtofl@val+2,??i2___xxtofl+2
  7978   002BC8  C004  F008         	movff	i2___xxtofl@val+3,??i2___xxtofl+3
  7979   002BCC  1E05               	comf	??i2___xxtofl^0,f,c
  7980   002BCE  1E06               	comf	(??i2___xxtofl+1)^0,f,c
  7981   002BD0  1E07               	comf	(??i2___xxtofl+2)^0,f,c
  7982   002BD2  1E08               	comf	(??i2___xxtofl+3)^0,f,c
  7983   002BD4  2A05               	incf	??i2___xxtofl^0,f,c
  7984   002BD6  0E00               	movlw	0
  7985   002BD8  2206               	addwfc	(??i2___xxtofl+1)^0,f,c
  7986   002BDA  2207               	addwfc	(??i2___xxtofl+2)^0,f,c
  7987   002BDC  2208               	addwfc	(??i2___xxtofl+3)^0,f,c
  7988   002BDE  C005  F00B         	movff	??i2___xxtofl,i2___xxtofl@arg
  7989   002BE2  C006  F00C         	movff	??i2___xxtofl+1,i2___xxtofl@arg+1
  7990   002BE6  C007  F00D         	movff	??i2___xxtofl+2,i2___xxtofl@arg+2
  7991   002BEA  C008  F00E         	movff	??i2___xxtofl+3,i2___xxtofl@arg+3
  7992   002BEE  D008               	goto	i2l6597
  7993   002BF0                     i2l2509:
  7994   002BF0  C001  F00B         	movff	i2___xxtofl@val,i2___xxtofl@arg
  7995   002BF4  C002  F00C         	movff	i2___xxtofl@val+1,i2___xxtofl@arg+1
  7996   002BF8  C003  F00D         	movff	i2___xxtofl@val+2,i2___xxtofl@arg+2
  7997   002BFC  C004  F00E         	movff	i2___xxtofl@val+3,i2___xxtofl@arg+3
  7998   002C00                     i2l6597:
  7999   002C00  5001               	movf	i2___xxtofl@val^0,w,c
  8000   002C02  1002               	iorwf	(i2___xxtofl@val+1)^0,w,c
  8001   002C04  1003               	iorwf	(i2___xxtofl@val+2)^0,w,c
  8002   002C06  1004               	iorwf	(i2___xxtofl@val+3)^0,w,c
  8003   002C08  A4D8               	btfss	status,2,c
  8004   002C0A  D009               	goto	i2l6603
  8005   002C0C  0E00               	movlw	0
  8006   002C0E  6E01               	movwf	?i2___xxtofl^0,c
  8007   002C10  0E00               	movlw	0
  8008   002C12  6E02               	movwf	(?i2___xxtofl+1)^0,c
  8009   002C14  0E00               	movlw	0
  8010   002C16  6E03               	movwf	(?i2___xxtofl+2)^0,c
  8011   002C18  0E00               	movlw	0
  8012   002C1A  6E04               	movwf	(?i2___xxtofl+3)^0,c
  8013   002C1C  0012               	return	
  8014   002C1E                     i2l6603:
  8015   002C1E  0E96               	movlw	150
  8016   002C20  6E0A               	movwf	i2___xxtofl@exp^0,c
  8017   002C22  D006               	goto	i2l6607
  8018   002C24                     i2l6605:
  8019   002C24  2A0A               	incf	i2___xxtofl@exp^0,f,c
  8020   002C26  90D8               	bcf	status,0,c
  8021   002C28  320E               	rrcf	(i2___xxtofl@arg+3)^0,f,c
  8022   002C2A  320D               	rrcf	(i2___xxtofl@arg+2)^0,f,c
  8023   002C2C  320C               	rrcf	(i2___xxtofl@arg+1)^0,f,c
  8024   002C2E  320B               	rrcf	i2___xxtofl@arg^0,f,c
  8025   002C30                     i2l6607:
  8026   002C30  0E00               	movlw	0
  8027   002C32  140B               	andwf	i2___xxtofl@arg^0,w,c
  8028   002C34  6E05               	movwf	??i2___xxtofl^0,c
  8029   002C36  0E00               	movlw	0
  8030   002C38  140C               	andwf	(i2___xxtofl@arg+1)^0,w,c
  8031   002C3A  6E06               	movwf	(??i2___xxtofl+1)^0,c
  8032   002C3C  0E00               	movlw	0
  8033   002C3E  140D               	andwf	(i2___xxtofl@arg+2)^0,w,c
  8034   002C40  6E07               	movwf	(??i2___xxtofl+2)^0,c
  8035   002C42  0EFE               	movlw	254
  8036   002C44  140E               	andwf	(i2___xxtofl@arg+3)^0,w,c
  8037   002C46  6E08               	movwf	(??i2___xxtofl+3)^0,c
  8038   002C48  5005               	movf	??i2___xxtofl^0,w,c
  8039   002C4A  1006               	iorwf	(??i2___xxtofl+1)^0,w,c
  8040   002C4C  1007               	iorwf	(??i2___xxtofl+2)^0,w,c
  8041   002C4E  1008               	iorwf	(??i2___xxtofl+3)^0,w,c
  8042   002C50  B4D8               	btfsc	status,2,c
  8043   002C52  D00D               	goto	i2l2516
  8044   002C54  D7E7               	goto	i2l6605
  8045   002C56                     i2l6609:
  8046   002C56  2A0A               	incf	i2___xxtofl@exp^0,f,c
  8047   002C58  0E01               	movlw	1
  8048   002C5A  260B               	addwf	i2___xxtofl@arg^0,f,c
  8049   002C5C  0E00               	movlw	0
  8050   002C5E  220C               	addwfc	(i2___xxtofl@arg+1)^0,f,c
  8051   002C60  220D               	addwfc	(i2___xxtofl@arg+2)^0,f,c
  8052   002C62  220E               	addwfc	(i2___xxtofl@arg+3)^0,f,c
  8053   002C64  90D8               	bcf	status,0,c
  8054   002C66  320E               	rrcf	(i2___xxtofl@arg+3)^0,f,c
  8055   002C68  320D               	rrcf	(i2___xxtofl@arg+2)^0,f,c
  8056   002C6A  320C               	rrcf	(i2___xxtofl@arg+1)^0,f,c
  8057   002C6C  320B               	rrcf	i2___xxtofl@arg^0,f,c
  8058   002C6E                     i2l2516:
  8059   002C6E  0E00               	movlw	0
  8060   002C70  140B               	andwf	i2___xxtofl@arg^0,w,c
  8061   002C72  6E05               	movwf	??i2___xxtofl^0,c
  8062   002C74  0E00               	movlw	0
  8063   002C76  140C               	andwf	(i2___xxtofl@arg+1)^0,w,c
  8064   002C78  6E06               	movwf	(??i2___xxtofl+1)^0,c
  8065   002C7A  0E00               	movlw	0
  8066   002C7C  140D               	andwf	(i2___xxtofl@arg+2)^0,w,c
  8067   002C7E  6E07               	movwf	(??i2___xxtofl+2)^0,c
  8068   002C80  0EFF               	movlw	255
  8069   002C82  140E               	andwf	(i2___xxtofl@arg+3)^0,w,c
  8070   002C84  6E08               	movwf	(??i2___xxtofl+3)^0,c
  8071   002C86  5005               	movf	??i2___xxtofl^0,w,c
  8072   002C88  1006               	iorwf	(??i2___xxtofl+1)^0,w,c
  8073   002C8A  1007               	iorwf	(??i2___xxtofl+2)^0,w,c
  8074   002C8C  1008               	iorwf	(??i2___xxtofl+3)^0,w,c
  8075   002C8E  B4D8               	btfsc	status,2,c
  8076   002C90  D007               	goto	i2l6617
  8077   002C92  D7E1               	goto	i2l6609
  8078   002C94                     i2l6615:
  8079   002C94  060A               	decf	i2___xxtofl@exp^0,f,c
  8080   002C96  90D8               	bcf	status,0,c
  8081   002C98  360B               	rlcf	i2___xxtofl@arg^0,f,c
  8082   002C9A  360C               	rlcf	(i2___xxtofl@arg+1)^0,f,c
  8083   002C9C  360D               	rlcf	(i2___xxtofl@arg+2)^0,f,c
  8084   002C9E  360E               	rlcf	(i2___xxtofl@arg+3)^0,f,c
  8085   002CA0                     i2l6617:
  8086   002CA0  BE0D               	btfsc	(i2___xxtofl@arg+2)^0,7,c
  8087   002CA2  D003               	goto	i2u574_40
  8088   002CA4  0E02               	movlw	2
  8089   002CA6  600A               	cpfslt	i2___xxtofl@exp^0,c
  8090   002CA8  D7F5               	goto	i2l6615
  8091   002CAA                     i2u574_40:
  8092   002CAA  A00A               	btfss	i2___xxtofl@exp^0,0,c
  8093   002CAC  9E0D               	bcf	(i2___xxtofl@arg+2)^0,7,c
  8094   002CAE  90D8               	bcf	status,0,c
  8095   002CB0  320A               	rrcf	i2___xxtofl@exp^0,f,c
  8096   002CB2  C00A  F005         	movff	i2___xxtofl@exp,??i2___xxtofl
  8097   002CB6  6A06               	clrf	(??i2___xxtofl+1)^0,c
  8098   002CB8  6A07               	clrf	(??i2___xxtofl+2)^0,c
  8099   002CBA  6A08               	clrf	(??i2___xxtofl+3)^0,c
  8100   002CBC  C005  F008         	movff	??i2___xxtofl,??i2___xxtofl+3
  8101   002CC0  6A07               	clrf	(??i2___xxtofl+2)^0,c
  8102   002CC2  6A06               	clrf	(??i2___xxtofl+1)^0,c
  8103   002CC4  6A05               	clrf	??i2___xxtofl^0,c
  8104   002CC6  5005               	movf	??i2___xxtofl^0,w,c
  8105   002CC8  120B               	iorwf	i2___xxtofl@arg^0,f,c
  8106   002CCA  5006               	movf	(??i2___xxtofl+1)^0,w,c
  8107   002CCC  120C               	iorwf	(i2___xxtofl@arg+1)^0,f,c
  8108   002CCE  5007               	movf	(??i2___xxtofl+2)^0,w,c
  8109   002CD0  120D               	iorwf	(i2___xxtofl@arg+2)^0,f,c
  8110   002CD2  5008               	movf	(??i2___xxtofl+3)^0,w,c
  8111   002CD4  120E               	iorwf	(i2___xxtofl@arg+3)^0,f,c
  8112   002CD6  5009               	movf	i2___xxtofl@sign^0,w,c
  8113   002CD8  A4D8               	btfss	status,2,c
  8114   002CDA  AE04               	btfss	(i2___xxtofl@val+3)^0,7,c
  8115   002CDC  D001               	goto	i2l6633
  8116   002CDE  8E0E               	bsf	(i2___xxtofl@arg+3)^0,7,c
  8117   002CE0                     i2l6633:
  8118   002CE0  C00B  F001         	movff	i2___xxtofl@arg,?i2___xxtofl
  8119   002CE4  C00C  F002         	movff	i2___xxtofl@arg+1,?i2___xxtofl+1
  8120   002CE8  C00D  F003         	movff	i2___xxtofl@arg+2,?i2___xxtofl+2
  8121   002CEC  C00E  F004         	movff	i2___xxtofl@arg+3,?i2___xxtofl+3
  8122   002CF0  0012               	return		;funcret
  8123   002CF2                     __end_ofi2___xxtofl:
  8124                           	callstack 0
  8125                           
  8126 ;; *************** function i2___fltol *****************
  8127 ;; Defined at:
  8128 ;;		line 43 in file "C:\Program Files\Microchip\xc8\v2.41\pic\sources\c99\common\fltol.c"
  8129 ;; Parameters:    Size  Location     Type
  8130 ;;  f1              4   55[COMRAM] unsigned char 
  8131 ;; Auto vars:     Size  Location     Type
  8132 ;;  exp1            1   64[COMRAM] unsigned char 
  8133 ;;  sign1           1   63[COMRAM] unsigned char 
  8134 ;; Return value:  Size  Location     Type
  8135 ;;                  4   55[COMRAM] long 
  8136 ;; Registers used:
  8137 ;;		wreg, status,2, status,0
  8138 ;; Tracked objects:
  8139 ;;		On entry : 0/0
  8140 ;;		On exit  : 0/0
  8141 ;;		Unchanged: 0/0
  8142 ;; Data sizes:     COMRAM   BANK0   BANK1   BANK2   BANK3   BANK4   BANK5   BANK6   BANK7   BANK8   BANK9  BANK10  BANK1
      +1  BANK12  BANK13  BANK14
  8143 ;;      Params:         4       0       0       0       0       0       0       0       0       0       0       0       
      +0       0       0       0
  8144 ;;      Locals:         2       0       0       0       0       0       0       0       0       0       0       0       
      +0       0       0       0
  8145 ;;      Temps:          4       0       0       0       0       0       0       0       0       0       0       0       
      +0       0       0       0
  8146 ;;      Totals:        10       0       0       0       0       0       0       0       0       0       0       0       
      +0       0       0       0
  8147 ;;Total ram usage:       10 bytes
  8148 ;; Hardware stack levels used: 1
  8149 ;; This function calls:
  8150 ;;		Nothing
  8151 ;; This function is called by:
  8152 ;;		_TMR4_DefaultInterruptHandler
  8153 ;; This function uses a non-reentrant model
  8154 ;;
  8155                           
  8156                           	psect	text49
  8157   003074                     __ptext49:
  8158                           	callstack 0
  8159   003074                     i2___fltol:
  8160                           	callstack 23
  8161                           
  8162                           ;incstack = 0
  8163   003074  343A               	rlcf	(i2___fltol@f1+2)^0,w,c
  8164   003076  343B               	rlcf	(i2___fltol@f1+3)^0,w,c
  8165   003078  6E41               	movwf	i2___fltol@exp1^0,c
  8166   00307A  5041               	movf	i2___fltol@exp1^0,w,c
  8167   00307C  A4D8               	btfss	status,2,c
  8168   00307E  D009               	goto	i2l6221
  8169   003080                     i2u503_40:
  8170   003080  0E00               	movlw	0
  8171   003082  6E38               	movwf	?i2___fltol^0,c
  8172   003084  0E00               	movlw	0
  8173   003086  6E39               	movwf	(?i2___fltol+1)^0,c
  8174   003088  0E00               	movlw	0
  8175   00308A  6E3A               	movwf	(?i2___fltol+2)^0,c
  8176   00308C  0E00               	movlw	0
  8177   00308E  6E3B               	movwf	(?i2___fltol+3)^0,c
  8178   003090  0012               	return	
  8179   003092                     i2l6221:
  8180   003092  C038  F03C         	movff	i2___fltol@f1,??i2___fltol
  8181   003096  C039  F03D         	movff	i2___fltol@f1+1,??i2___fltol+1
  8182   00309A  C03A  F03E         	movff	i2___fltol@f1+2,??i2___fltol+2
  8183   00309E  C03B  F03F         	movff	i2___fltol@f1+3,??i2___fltol+3
  8184   0030A2  0E20               	movlw	32
  8185   0030A4  D005               	goto	i2u504_40
  8186   0030A6                     i2u504_45:
  8187   0030A6  90D8               	bcf	status,0,c
  8188   0030A8  323F               	rrcf	(??i2___fltol+3)^0,f,c
  8189   0030AA  323E               	rrcf	(??i2___fltol+2)^0,f,c
  8190   0030AC  323D               	rrcf	(??i2___fltol+1)^0,f,c
  8191   0030AE  323C               	rrcf	??i2___fltol^0,f,c
  8192   0030B0                     i2u504_40:
  8193   0030B0  2EE8               	decfsz	wreg,f,c
  8194   0030B2  D7F9               	goto	i2u504_45
  8195   0030B4  503C               	movf	??i2___fltol^0,w,c
  8196   0030B6  6E40               	movwf	i2___fltol@sign1^0,c
  8197   0030B8  8E3A               	bsf	(i2___fltol@f1+2)^0,7,c
  8198   0030BA  0EFF               	movlw	255
  8199   0030BC  1638               	andwf	i2___fltol@f1^0,f,c
  8200   0030BE  0EFF               	movlw	255
  8201   0030C0  1639               	andwf	(i2___fltol@f1+1)^0,f,c
  8202   0030C2  0EFF               	movlw	255
  8203   0030C4  163A               	andwf	(i2___fltol@f1+2)^0,f,c
  8204   0030C6  0E00               	movlw	0
  8205   0030C8  163B               	andwf	(i2___fltol@f1+3)^0,f,c
  8206   0030CA  0E96               	movlw	150
  8207   0030CC  5E41               	subwf	i2___fltol@exp1^0,f,c
  8208   0030CE  AE41               	btfss	i2___fltol@exp1^0,7,c
  8209   0030D0  D00D               	goto	i2l6241
  8210   0030D2  5041               	movf	i2___fltol@exp1^0,w,c
  8211   0030D4  0A80               	xorlw	128
  8212   0030D6  0F97               	addlw	151
  8213   0030D8  A0D8               	btfss	status,0,c
  8214   0030DA  D7D2               	goto	i2u503_40
  8215   0030DC                     i2l6237:
  8216   0030DC  90D8               	bcf	status,0,c
  8217   0030DE  323B               	rrcf	(i2___fltol@f1+3)^0,f,c
  8218   0030E0  323A               	rrcf	(i2___fltol@f1+2)^0,f,c
  8219   0030E2  3239               	rrcf	(i2___fltol@f1+1)^0,f,c
  8220   0030E4  3238               	rrcf	i2___fltol@f1^0,f,c
  8221   0030E6  3E41               	incfsz	i2___fltol@exp1^0,f,c
  8222   0030E8  D7F9               	goto	i2l6237
  8223   0030EA  D00D               	goto	i2u508_40
  8224   0030EC                     i2l6241:
  8225   0030EC  0E1F               	movlw	31
  8226   0030EE  6441               	cpfsgt	i2___fltol@exp1^0,c
  8227   0030F0  D007               	goto	i2l6249
  8228   0030F2  D7C6               	goto	i2u503_40
  8229   0030F4                     i2l6247:
  8230   0030F4  90D8               	bcf	status,0,c
  8231   0030F6  3638               	rlcf	i2___fltol@f1^0,f,c
  8232   0030F8  3639               	rlcf	(i2___fltol@f1+1)^0,f,c
  8233   0030FA  363A               	rlcf	(i2___fltol@f1+2)^0,f,c
  8234   0030FC  363B               	rlcf	(i2___fltol@f1+3)^0,f,c
  8235   0030FE  0641               	decf	i2___fltol@exp1^0,f,c
  8236   003100                     i2l6249:
  8237   003100  5041               	movf	i2___fltol@exp1^0,w,c
  8238   003102  A4D8               	btfss	status,2,c
  8239   003104  D7F7               	goto	i2l6247
  8240   003106                     i2u508_40:
  8241   003106  5040               	movf	i2___fltol@sign1^0,w,c
  8242   003108  B4D8               	btfsc	status,2,c
  8243   00310A  D008               	goto	i2l6255
  8244   00310C  1E3B               	comf	(i2___fltol@f1+3)^0,f,c
  8245   00310E  1E3A               	comf	(i2___fltol@f1+2)^0,f,c
  8246   003110  1E39               	comf	(i2___fltol@f1+1)^0,f,c
  8247   003112  6C38               	negf	i2___fltol@f1^0,c
  8248   003114  0E00               	movlw	0
  8249   003116  2239               	addwfc	(i2___fltol@f1+1)^0,f,c
  8250   003118  223A               	addwfc	(i2___fltol@f1+2)^0,f,c
  8251   00311A  223B               	addwfc	(i2___fltol@f1+3)^0,f,c
  8252   00311C                     i2l6255:
  8253   00311C  C038  F038         	movff	i2___fltol@f1,?i2___fltol
  8254   003120  C039  F039         	movff	i2___fltol@f1+1,?i2___fltol+1
  8255   003124  C03A  F03A         	movff	i2___fltol@f1+2,?i2___fltol+2
  8256   003128  C03B  F03B         	movff	i2___fltol@f1+3,?i2___fltol+3
  8257   00312C  0012               	return		;funcret
  8258   00312E                     __end_ofi2___fltol:
  8259                           	callstack 0
  8260                           
  8261 ;; *************** function i2___flmul *****************
  8262 ;; Defined at:
  8263 ;;		line 8 in file "C:\Program Files\Microchip\xc8\v2.41\pic\sources\c99\common\sprcmul.c"
  8264 ;; Parameters:    Size  Location     Type
  8265 ;;  b               4   14[COMRAM] long 
  8266 ;;  a               4   18[COMRAM] long 
  8267 ;; Auto vars:     Size  Location     Type
  8268 ;;  prod            4   33[COMRAM] struct .
  8269 ;;  grs             4   27[COMRAM] unsigned long 
  8270 ;;  temp            2   37[COMRAM] struct .
  8271 ;;  bexp            1   32[COMRAM] unsigned char 
  8272 ;;  aexp            1   31[COMRAM] unsigned char 
  8273 ;;  sign            1   26[COMRAM] unsigned char 
  8274 ;; Return value:  Size  Location     Type
  8275 ;;                  4   14[COMRAM] unsigned char 
  8276 ;; Registers used:
  8277 ;;		wreg, status,2, status,0, prodl, prodh
  8278 ;; Tracked objects:
  8279 ;;		On entry : 0/0
  8280 ;;		On exit  : 0/0
  8281 ;;		Unchanged: 0/0
  8282 ;; Data sizes:     COMRAM   BANK0   BANK1   BANK2   BANK3   BANK4   BANK5   BANK6   BANK7   BANK8   BANK9  BANK10  BANK1
      +1  BANK12  BANK13  BANK14
  8283 ;;      Params:         8       0       0       0       0       0       0       0       0       0       0       0       
      +0       0       0       0
  8284 ;;      Locals:        13       0       0       0       0       0       0       0       0       0       0       0       
      +0       0       0       0
  8285 ;;      Temps:          4       0       0       0       0       0       0       0       0       0       0       0       
      +0       0       0       0
  8286 ;;      Totals:        25       0       0       0       0       0       0       0       0       0       0       0       
      +0       0       0       0
  8287 ;;Total ram usage:       25 bytes
  8288 ;; Hardware stack levels used: 1
  8289 ;; This function calls:
  8290 ;;		Nothing
  8291 ;; This function is called by:
  8292 ;;		_TMR4_DefaultInterruptHandler
  8293 ;; This function uses a non-reentrant model
  8294 ;;
  8295                           
  8296                           	psect	text50
  8297   001C0E                     __ptext50:
  8298                           	callstack 0
  8299   001C0E                     i2___flmul:
  8300                           	callstack 23
  8301                           
  8302                           ;incstack = 0
  8303   001C0E  5012               	movf	(i2___flmul@b+3)^0,w,c
  8304   001C10  0B80               	andlw	128
  8305   001C12  6E1B               	movwf	i2___flmul@sign^0,c
  8306   001C14  5012               	movf	(i2___flmul@b+3)^0,w,c
  8307   001C16  2412               	addwf	(i2___flmul@b+3)^0,w,c
  8308   001C18  6E21               	movwf	i2___flmul@bexp^0,c
  8309   001C1A  BE11               	btfsc	(i2___flmul@b+2)^0,7,c
  8310   001C1C  8021               	bsf	i2___flmul@bexp^0,0,c
  8311   001C1E  5021               	movf	i2___flmul@bexp^0,w,c
  8312   001C20  B4D8               	btfsc	status,2,c
  8313   001C22  D00D               	goto	i2l6475
  8314   001C24  2821               	incf	i2___flmul@bexp^0,w,c
  8315   001C26  A4D8               	btfss	status,2,c
  8316   001C28  D008               	goto	i2l6473
  8317   001C2A  0E00               	movlw	0
  8318   001C2C  6E0F               	movwf	i2___flmul@b^0,c
  8319   001C2E  0E00               	movlw	0
  8320   001C30  6E10               	movwf	(i2___flmul@b+1)^0,c
  8321   001C32  0E00               	movlw	0
  8322   001C34  6E11               	movwf	(i2___flmul@b+2)^0,c
  8323   001C36  0E00               	movlw	0
  8324   001C38  6E12               	movwf	(i2___flmul@b+3)^0,c
  8325   001C3A                     i2l6473:
  8326   001C3A  8E11               	bsf	(i2___flmul@b+2)^0,7,c
  8327   001C3C  D008               	goto	i2l6477
  8328   001C3E                     i2l6475:
  8329   001C3E  0E00               	movlw	0
  8330   001C40  6E0F               	movwf	i2___flmul@b^0,c
  8331   001C42  0E00               	movlw	0
  8332   001C44  6E10               	movwf	(i2___flmul@b+1)^0,c
  8333   001C46  0E00               	movlw	0
  8334   001C48  6E11               	movwf	(i2___flmul@b+2)^0,c
  8335   001C4A  0E00               	movlw	0
  8336   001C4C  6E12               	movwf	(i2___flmul@b+3)^0,c
  8337   001C4E                     i2l6477:
  8338   001C4E  5016               	movf	(i2___flmul@a+3)^0,w,c
  8339   001C50  0B80               	andlw	128
  8340   001C52  1A1B               	xorwf	i2___flmul@sign^0,f,c
  8341   001C54  5016               	movf	(i2___flmul@a+3)^0,w,c
  8342   001C56  2416               	addwf	(i2___flmul@a+3)^0,w,c
  8343   001C58  6E20               	movwf	i2___flmul@aexp^0,c
  8344   001C5A  BE15               	btfsc	(i2___flmul@a+2)^0,7,c
  8345   001C5C  8020               	bsf	i2___flmul@aexp^0,0,c
  8346   001C5E  5020               	movf	i2___flmul@aexp^0,w,c
  8347   001C60  B4D8               	btfsc	status,2,c
  8348   001C62  D00D               	goto	i2l6493
  8349   001C64  2820               	incf	i2___flmul@aexp^0,w,c
  8350   001C66  A4D8               	btfss	status,2,c
  8351   001C68  D008               	goto	i2l6491
  8352   001C6A  0E00               	movlw	0
  8353   001C6C  6E13               	movwf	i2___flmul@a^0,c
  8354   001C6E  0E00               	movlw	0
  8355   001C70  6E14               	movwf	(i2___flmul@a+1)^0,c
  8356   001C72  0E00               	movlw	0
  8357   001C74  6E15               	movwf	(i2___flmul@a+2)^0,c
  8358   001C76  0E00               	movlw	0
  8359   001C78  6E16               	movwf	(i2___flmul@a+3)^0,c
  8360   001C7A                     i2l6491:
  8361   001C7A  8E15               	bsf	(i2___flmul@a+2)^0,7,c
  8362   001C7C  D008               	goto	i2l2468
  8363   001C7E                     i2l6493:
  8364   001C7E  0E00               	movlw	0
  8365   001C80  6E13               	movwf	i2___flmul@a^0,c
  8366   001C82  0E00               	movlw	0
  8367   001C84  6E14               	movwf	(i2___flmul@a+1)^0,c
  8368   001C86  0E00               	movlw	0
  8369   001C88  6E15               	movwf	(i2___flmul@a+2)^0,c
  8370   001C8A  0E00               	movlw	0
  8371   001C8C  6E16               	movwf	(i2___flmul@a+3)^0,c
  8372   001C8E                     i2l2468:
  8373   001C8E  5020               	movf	i2___flmul@aexp^0,w,c
  8374   001C90  B4D8               	btfsc	status,2,c
  8375   001C92  D003               	goto	i2u556_40
  8376   001C94  5021               	movf	i2___flmul@bexp^0,w,c
  8377   001C96  A4D8               	btfss	status,2,c
  8378   001C98  D009               	goto	i2l6501
  8379   001C9A                     i2u556_40:
  8380   001C9A  0E00               	movlw	0
  8381   001C9C  6E0F               	movwf	?i2___flmul^0,c
  8382   001C9E  0E00               	movlw	0
  8383   001CA0  6E10               	movwf	(?i2___flmul+1)^0,c
  8384   001CA2  0E00               	movlw	0
  8385   001CA4  6E11               	movwf	(?i2___flmul+2)^0,c
  8386   001CA6  0E00               	movlw	0
  8387   001CA8  6E12               	movwf	(?i2___flmul+3)^0,c
  8388   001CAA  0012               	return	
  8389   001CAC                     i2l6501:
  8390   001CAC  5015               	movf	(i2___flmul@a+2)^0,w,c
  8391   001CAE  020F               	mulwf	i2___flmul@b^0,c
  8392   001CB0  CFF3 F026          	movff	prodl,i2___flmul@temp
  8393   001CB4  CFF4 F027          	movff	prodh,i2___flmul@temp+1
  8394   001CB8  5026               	movf	i2___flmul@temp^0,w,c
  8395   001CBA  6E1C               	movwf	i2___flmul@grs^0,c
  8396   001CBC  6A1D               	clrf	(i2___flmul@grs+1)^0,c
  8397   001CBE  6A1E               	clrf	(i2___flmul@grs+2)^0,c
  8398   001CC0  6A1F               	clrf	(i2___flmul@grs+3)^0,c
  8399   001CC2  5027               	movf	(i2___flmul@temp+1)^0,w,c
  8400   001CC4  6E22               	movwf	i2___flmul@prod^0,c
  8401   001CC6  6A23               	clrf	(i2___flmul@prod+1)^0,c
  8402   001CC8  6A24               	clrf	(i2___flmul@prod+2)^0,c
  8403   001CCA  6A25               	clrf	(i2___flmul@prod+3)^0,c
  8404   001CCC  5014               	movf	(i2___flmul@a+1)^0,w,c
  8405   001CCE  0210               	mulwf	(i2___flmul@b+1)^0,c
  8406   001CD0  CFF3 F026          	movff	prodl,i2___flmul@temp
  8407   001CD4  CFF4 F027          	movff	prodh,i2___flmul@temp+1
  8408   001CD8  5026               	movf	i2___flmul@temp^0,w,c
  8409   001CDA  261C               	addwf	i2___flmul@grs^0,f,c
  8410   001CDC  0E00               	movlw	0
  8411   001CDE  221D               	addwfc	(i2___flmul@grs+1)^0,f,c
  8412   001CE0  221E               	addwfc	(i2___flmul@grs+2)^0,f,c
  8413   001CE2  221F               	addwfc	(i2___flmul@grs+3)^0,f,c
  8414   001CE4  5027               	movf	(i2___flmul@temp+1)^0,w,c
  8415   001CE6  2622               	addwf	i2___flmul@prod^0,f,c
  8416   001CE8  0E00               	movlw	0
  8417   001CEA  2223               	addwfc	(i2___flmul@prod+1)^0,f,c
  8418   001CEC  2224               	addwfc	(i2___flmul@prod+2)^0,f,c
  8419   001CEE  2225               	addwfc	(i2___flmul@prod+3)^0,f,c
  8420   001CF0  5013               	movf	i2___flmul@a^0,w,c
  8421   001CF2  0211               	mulwf	(i2___flmul@b+2)^0,c
  8422   001CF4  CFF3 F026          	movff	prodl,i2___flmul@temp
  8423   001CF8  CFF4 F027          	movff	prodh,i2___flmul@temp+1
  8424   001CFC  5026               	movf	i2___flmul@temp^0,w,c
  8425   001CFE  261C               	addwf	i2___flmul@grs^0,f,c
  8426   001D00  0E00               	movlw	0
  8427   001D02  221D               	addwfc	(i2___flmul@grs+1)^0,f,c
  8428   001D04  221E               	addwfc	(i2___flmul@grs+2)^0,f,c
  8429   001D06  221F               	addwfc	(i2___flmul@grs+3)^0,f,c
  8430   001D08  5027               	movf	(i2___flmul@temp+1)^0,w,c
  8431   001D0A  2622               	addwf	i2___flmul@prod^0,f,c
  8432   001D0C  0E00               	movlw	0
  8433   001D0E  2223               	addwfc	(i2___flmul@prod+1)^0,f,c
  8434   001D10  2224               	addwfc	(i2___flmul@prod+2)^0,f,c
  8435   001D12  2225               	addwfc	(i2___flmul@prod+3)^0,f,c
  8436   001D14  C01E  F01F         	movff	i2___flmul@grs+2,i2___flmul@grs+3
  8437   001D18  C01D  F01E         	movff	i2___flmul@grs+1,i2___flmul@grs+2
  8438   001D1C  C01C  F01D         	movff	i2___flmul@grs,i2___flmul@grs+1
  8439   001D20  6A1C               	clrf	i2___flmul@grs^0,c
  8440   001D22  5013               	movf	i2___flmul@a^0,w,c
  8441   001D24  0210               	mulwf	(i2___flmul@b+1)^0,c
  8442   001D26  CFF3 F026          	movff	prodl,i2___flmul@temp
  8443   001D2A  CFF4 F027          	movff	prodh,i2___flmul@temp+1
  8444   001D2E  5026               	movf	i2___flmul@temp^0,w,c
  8445   001D30  261C               	addwf	i2___flmul@grs^0,f,c
  8446   001D32  5027               	movf	(i2___flmul@temp+1)^0,w,c
  8447   001D34  221D               	addwfc	(i2___flmul@grs+1)^0,f,c
  8448   001D36  0E00               	movlw	0
  8449   001D38  221E               	addwfc	(i2___flmul@grs+2)^0,f,c
  8450   001D3A  0E00               	movlw	0
  8451   001D3C  221F               	addwfc	(i2___flmul@grs+3)^0,f,c
  8452   001D3E  5014               	movf	(i2___flmul@a+1)^0,w,c
  8453   001D40  020F               	mulwf	i2___flmul@b^0,c
  8454   001D42  CFF3 F026          	movff	prodl,i2___flmul@temp
  8455   001D46  CFF4 F027          	movff	prodh,i2___flmul@temp+1
  8456   001D4A  5026               	movf	i2___flmul@temp^0,w,c
  8457   001D4C  261C               	addwf	i2___flmul@grs^0,f,c
  8458   001D4E  5027               	movf	(i2___flmul@temp+1)^0,w,c
  8459   001D50  221D               	addwfc	(i2___flmul@grs+1)^0,f,c
  8460   001D52  0E00               	movlw	0
  8461   001D54  221E               	addwfc	(i2___flmul@grs+2)^0,f,c
  8462   001D56  0E00               	movlw	0
  8463   001D58  221F               	addwfc	(i2___flmul@grs+3)^0,f,c
  8464   001D5A  C01E  F01F         	movff	i2___flmul@grs+2,i2___flmul@grs+3
  8465   001D5E  C01D  F01E         	movff	i2___flmul@grs+1,i2___flmul@grs+2
  8466   001D62  C01C  F01D         	movff	i2___flmul@grs,i2___flmul@grs+1
  8467   001D66  6A1C               	clrf	i2___flmul@grs^0,c
  8468   001D68  5013               	movf	i2___flmul@a^0,w,c
  8469   001D6A  020F               	mulwf	i2___flmul@b^0,c
  8470   001D6C  CFF3 F026          	movff	prodl,i2___flmul@temp
  8471   001D70  CFF4 F027          	movff	prodh,i2___flmul@temp+1
  8472   001D74  5026               	movf	i2___flmul@temp^0,w,c
  8473   001D76  261C               	addwf	i2___flmul@grs^0,f,c
  8474   001D78  5027               	movf	(i2___flmul@temp+1)^0,w,c
  8475   001D7A  221D               	addwfc	(i2___flmul@grs+1)^0,f,c
  8476   001D7C  0E00               	movlw	0
  8477   001D7E  221E               	addwfc	(i2___flmul@grs+2)^0,f,c
  8478   001D80  0E00               	movlw	0
  8479   001D82  221F               	addwfc	(i2___flmul@grs+3)^0,f,c
  8480   001D84  5015               	movf	(i2___flmul@a+2)^0,w,c
  8481   001D86  0210               	mulwf	(i2___flmul@b+1)^0,c
  8482   001D88  CFF3 F026          	movff	prodl,i2___flmul@temp
  8483   001D8C  CFF4 F027          	movff	prodh,i2___flmul@temp+1
  8484   001D90  5026               	movf	i2___flmul@temp^0,w,c
  8485   001D92  2622               	addwf	i2___flmul@prod^0,f,c
  8486   001D94  5027               	movf	(i2___flmul@temp+1)^0,w,c
  8487   001D96  2223               	addwfc	(i2___flmul@prod+1)^0,f,c
  8488   001D98  0E00               	movlw	0
  8489   001D9A  2224               	addwfc	(i2___flmul@prod+2)^0,f,c
  8490   001D9C  0E00               	movlw	0
  8491   001D9E  2225               	addwfc	(i2___flmul@prod+3)^0,f,c
  8492   001DA0  5014               	movf	(i2___flmul@a+1)^0,w,c
  8493   001DA2  0211               	mulwf	(i2___flmul@b+2)^0,c
  8494   001DA4  CFF3 F026          	movff	prodl,i2___flmul@temp
  8495   001DA8  CFF4 F027          	movff	prodh,i2___flmul@temp+1
  8496   001DAC  5026               	movf	i2___flmul@temp^0,w,c
  8497   001DAE  2622               	addwf	i2___flmul@prod^0,f,c
  8498   001DB0  5027               	movf	(i2___flmul@temp+1)^0,w,c
  8499   001DB2  2223               	addwfc	(i2___flmul@prod+1)^0,f,c
  8500   001DB4  0E00               	movlw	0
  8501   001DB6  2224               	addwfc	(i2___flmul@prod+2)^0,f,c
  8502   001DB8  0E00               	movlw	0
  8503   001DBA  2225               	addwfc	(i2___flmul@prod+3)^0,f,c
  8504   001DBC  5015               	movf	(i2___flmul@a+2)^0,w,c
  8505   001DBE  0211               	mulwf	(i2___flmul@b+2)^0,c
  8506   001DC0  CFF3 F026          	movff	prodl,i2___flmul@temp
  8507   001DC4  CFF4 F027          	movff	prodh,i2___flmul@temp+1
  8508   001DC8  5026               	movf	i2___flmul@temp^0,w,c
  8509   001DCA  6E17               	movwf	??i2___flmul^0,c
  8510   001DCC  5027               	movf	(i2___flmul@temp+1)^0,w,c
  8511   001DCE  6E18               	movwf	(??i2___flmul+1)^0,c
  8512   001DD0  6A19               	clrf	(??i2___flmul+2)^0,c
  8513   001DD2  6A1A               	clrf	(??i2___flmul+3)^0,c
  8514   001DD4  C019  F01A         	movff	??i2___flmul+2,??i2___flmul+3
  8515   001DD8  C018  F019         	movff	??i2___flmul+1,??i2___flmul+2
  8516   001DDC  C017  F018         	movff	??i2___flmul,??i2___flmul+1
  8517   001DE0  6A17               	clrf	??i2___flmul^0,c
  8518   001DE2  5017               	movf	??i2___flmul^0,w,c
  8519   001DE4  2622               	addwf	i2___flmul@prod^0,f,c
  8520   001DE6  5018               	movf	(??i2___flmul+1)^0,w,c
  8521   001DE8  2223               	addwfc	(i2___flmul@prod+1)^0,f,c
  8522   001DEA  5019               	movf	(??i2___flmul+2)^0,w,c
  8523   001DEC  2224               	addwfc	(i2___flmul@prod+2)^0,f,c
  8524   001DEE  501A               	movf	(??i2___flmul+3)^0,w,c
  8525   001DF0  2225               	addwfc	(i2___flmul@prod+3)^0,f,c
  8526   001DF2  C01C  F017         	movff	i2___flmul@grs,??i2___flmul
  8527   001DF6  C01D  F018         	movff	i2___flmul@grs+1,??i2___flmul+1
  8528   001DFA  C01E  F019         	movff	i2___flmul@grs+2,??i2___flmul+2
  8529   001DFE  C01F  F01A         	movff	i2___flmul@grs+3,??i2___flmul+3
  8530   001E02  0E19               	movlw	25
  8531   001E04  D005               	goto	i2u557_40
  8532   001E06                     i2u557_45:
  8533   001E06  90D8               	bcf	status,0,c
  8534   001E08  321A               	rrcf	(??i2___flmul+3)^0,f,c
  8535   001E0A  3219               	rrcf	(??i2___flmul+2)^0,f,c
  8536   001E0C  3218               	rrcf	(??i2___flmul+1)^0,f,c
  8537   001E0E  3217               	rrcf	??i2___flmul^0,f,c
  8538   001E10                     i2u557_40:
  8539   001E10  2EE8               	decfsz	wreg,f,c
  8540   001E12  D7F9               	goto	i2u557_45
  8541   001E14  5017               	movf	??i2___flmul^0,w,c
  8542   001E16  2622               	addwf	i2___flmul@prod^0,f,c
  8543   001E18  5018               	movf	(??i2___flmul+1)^0,w,c
  8544   001E1A  2223               	addwfc	(i2___flmul@prod+1)^0,f,c
  8545   001E1C  5019               	movf	(??i2___flmul+2)^0,w,c
  8546   001E1E  2224               	addwfc	(i2___flmul@prod+2)^0,f,c
  8547   001E20  501A               	movf	(??i2___flmul+3)^0,w,c
  8548   001E22  2225               	addwfc	(i2___flmul@prod+3)^0,f,c
  8549   001E24  C01E  F01F         	movff	i2___flmul@grs+2,i2___flmul@grs+3
  8550   001E28  C01D  F01E         	movff	i2___flmul@grs+1,i2___flmul@grs+2
  8551   001E2C  C01C  F01D         	movff	i2___flmul@grs,i2___flmul@grs+1
  8552   001E30  6A1C               	clrf	i2___flmul@grs^0,c
  8553   001E32  5020               	movf	i2___flmul@aexp^0,w,c
  8554   001E34  C021  F017         	movff	i2___flmul@bexp,??i2___flmul
  8555   001E38  6A18               	clrf	(??i2___flmul+1)^0,c
  8556   001E3A  2617               	addwf	??i2___flmul^0,f,c
  8557   001E3C  0E00               	movlw	0
  8558   001E3E  2218               	addwfc	(??i2___flmul+1)^0,f,c
  8559   001E40  0E82               	movlw	130
  8560   001E42  2417               	addwf	??i2___flmul^0,w,c
  8561   001E44  6E26               	movwf	i2___flmul@temp^0,c
  8562   001E46  0EFF               	movlw	255
  8563   001E48  2018               	addwfc	(??i2___flmul+1)^0,w,c
  8564   001E4A  6E27               	movwf	(i2___flmul@temp+1)^0,c
  8565   001E4C  D00F               	goto	i2l6549
  8566   001E4E                     i2l6543:
  8567   001E4E  90D8               	bcf	status,0,c
  8568   001E50  3622               	rlcf	i2___flmul@prod^0,f,c
  8569   001E52  3623               	rlcf	(i2___flmul@prod+1)^0,f,c
  8570   001E54  3624               	rlcf	(i2___flmul@prod+2)^0,f,c
  8571   001E56  3625               	rlcf	(i2___flmul@prod+3)^0,f,c
  8572   001E58  BE1F               	btfsc	(i2___flmul@grs+3)^0,7,c
  8573   001E5A  8022               	bsf	i2___flmul@prod^0,0,c
  8574   001E5C  90D8               	bcf	status,0,c
  8575   001E5E  361C               	rlcf	i2___flmul@grs^0,f,c
  8576   001E60  361D               	rlcf	(i2___flmul@grs+1)^0,f,c
  8577   001E62  361E               	rlcf	(i2___flmul@grs+2)^0,f,c
  8578   001E64  361F               	rlcf	(i2___flmul@grs+3)^0,f,c
  8579   001E66  0626               	decf	i2___flmul@temp^0,f,c
  8580   001E68  A0D8               	btfss	status,0,c
  8581   001E6A  0627               	decf	(i2___flmul@temp+1)^0,f,c
  8582   001E6C                     i2l6549:
  8583   001E6C  AE24               	btfss	(i2___flmul@prod+2)^0,7,c
  8584   001E6E  D7EF               	goto	i2l6543
  8585   001E70  0E00               	movlw	0
  8586   001E72  6E20               	movwf	i2___flmul@aexp^0,c
  8587   001E74  AE1F               	btfss	(i2___flmul@grs+3)^0,7,c
  8588   001E76  D017               	goto	i2l2477
  8589   001E78  0EFF               	movlw	255
  8590   001E7A  141C               	andwf	i2___flmul@grs^0,w,c
  8591   001E7C  6E17               	movwf	??i2___flmul^0,c
  8592   001E7E  0EFF               	movlw	255
  8593   001E80  141D               	andwf	(i2___flmul@grs+1)^0,w,c
  8594   001E82  6E18               	movwf	(??i2___flmul+1)^0,c
  8595   001E84  0EFF               	movlw	255
  8596   001E86  141E               	andwf	(i2___flmul@grs+2)^0,w,c
  8597   001E88  6E19               	movwf	(??i2___flmul+2)^0,c
  8598   001E8A  0E7F               	movlw	127
  8599   001E8C  141F               	andwf	(i2___flmul@grs+3)^0,w,c
  8600   001E8E  6E1A               	movwf	(??i2___flmul+3)^0,c
  8601   001E90  5017               	movf	??i2___flmul^0,w,c
  8602   001E92  1018               	iorwf	(??i2___flmul+1)^0,w,c
  8603   001E94  1019               	iorwf	(??i2___flmul+2)^0,w,c
  8604   001E96  101A               	iorwf	(??i2___flmul+3)^0,w,c
  8605   001E98  B4D8               	btfsc	status,2,c
  8606   001E9A  D003               	goto	i2l2478
  8607   001E9C                     i2u561_40:
  8608   001E9C  0E01               	movlw	1
  8609   001E9E  6E20               	movwf	i2___flmul@aexp^0,c
  8610   001EA0  D002               	goto	i2l2477
  8611   001EA2                     i2l2478:
  8612   001EA2  B022               	btfsc	i2___flmul@prod^0,0,c
  8613   001EA4  D7FB               	goto	i2u561_40
  8614   001EA6                     i2l2477:
  8615   001EA6  5020               	movf	i2___flmul@aexp^0,w,c
  8616   001EA8  B4D8               	btfsc	status,2,c
  8617   001EAA  D01F               	goto	i2l6569
  8618   001EAC  0E01               	movlw	1
  8619   001EAE  2622               	addwf	i2___flmul@prod^0,f,c
  8620   001EB0  0E00               	movlw	0
  8621   001EB2  2223               	addwfc	(i2___flmul@prod+1)^0,f,c
  8622   001EB4  2224               	addwfc	(i2___flmul@prod+2)^0,f,c
  8623   001EB6  2225               	addwfc	(i2___flmul@prod+3)^0,f,c
  8624   001EB8  A025               	btfss	(i2___flmul@prod+3)^0,0,c
  8625   001EBA  D017               	goto	i2l6569
  8626   001EBC  C022  F017         	movff	i2___flmul@prod,??i2___flmul
  8627   001EC0  C023  F018         	movff	i2___flmul@prod+1,??i2___flmul+1
  8628   001EC4  C024  F019         	movff	i2___flmul@prod+2,??i2___flmul+2
  8629   001EC8  C025  F01A         	movff	i2___flmul@prod+3,??i2___flmul+3
  8630   001ECC  341A               	rlcf	(??i2___flmul+3)^0,w,c
  8631   001ECE  321A               	rrcf	(??i2___flmul+3)^0,f,c
  8632   001ED0  3219               	rrcf	(??i2___flmul+2)^0,f,c
  8633   001ED2  3218               	rrcf	(??i2___flmul+1)^0,f,c
  8634   001ED4  3217               	rrcf	??i2___flmul^0,f,c
  8635   001ED6  C017  F022         	movff	??i2___flmul,i2___flmul@prod
  8636   001EDA  C018  F023         	movff	??i2___flmul+1,i2___flmul@prod+1
  8637   001EDE  C019  F024         	movff	??i2___flmul+2,i2___flmul@prod+2
  8638   001EE2  C01A  F025         	movff	??i2___flmul+3,i2___flmul@prod+3
  8639   001EE6  4A26               	infsnz	i2___flmul@temp^0,f,c
  8640   001EE8  2A27               	incf	(i2___flmul@temp+1)^0,f,c
  8641   001EEA                     i2l6569:
  8642   001EEA  BE27               	btfsc	(i2___flmul@temp+1)^0,7,c
  8643   001EEC  D00D               	goto	i2l6573
  8644   001EEE  5027               	movf	(i2___flmul@temp+1)^0,w,c
  8645   001EF0  E103               	bnz	i2u565_40
  8646   001EF2  2826               	incf	i2___flmul@temp^0,w,c
  8647   001EF4  A0D8               	btfss	status,0,c
  8648   001EF6  D008               	goto	i2l6573
  8649   001EF8                     i2u565_40:
  8650   001EF8  0E00               	movlw	0
  8651   001EFA  6E22               	movwf	i2___flmul@prod^0,c
  8652   001EFC  0E00               	movlw	0
  8653   001EFE  6E23               	movwf	(i2___flmul@prod+1)^0,c
  8654   001F00  0E80               	movlw	128
  8655   001F02  6E24               	movwf	(i2___flmul@prod+2)^0,c
  8656   001F04  0E7F               	movlw	127
  8657   001F06  D020               	goto	L10
  8658   001F08                     i2l6573:
  8659   001F08  BE27               	btfsc	(i2___flmul@temp+1)^0,7,c
  8660   001F0A  D005               	goto	i2u566_40
  8661   001F0C  5027               	movf	(i2___flmul@temp+1)^0,w,c
  8662   001F0E  E10E               	bnz	i2l2485
  8663   001F10  0426               	decf	i2___flmul@temp^0,w,c
  8664   001F12  B0D8               	btfsc	status,0,c
  8665   001F14  D00B               	goto	i2l2485
  8666   001F16                     i2u566_40:
  8667   001F16  0E00               	movlw	0
  8668   001F18  6E22               	movwf	i2___flmul@prod^0,c
  8669   001F1A  0E00               	movlw	0
  8670   001F1C  6E23               	movwf	(i2___flmul@prod+1)^0,c
  8671   001F1E  0E00               	movlw	0
  8672   001F20  6E24               	movwf	(i2___flmul@prod+2)^0,c
  8673   001F22  0E00               	movlw	0
  8674   001F24  6E25               	movwf	(i2___flmul@prod+3)^0,c
  8675   001F26  0E00               	movlw	0
  8676   001F28  6E1B               	movwf	i2___flmul@sign^0,c
  8677   001F2A  D00F               	goto	i2l6585
  8678   001F2C                     i2l2485:
  8679   001F2C  C026  F021         	movff	i2___flmul@temp,i2___flmul@bexp
  8680   001F30  0EFF               	movlw	255
  8681   001F32  1622               	andwf	i2___flmul@prod^0,f,c
  8682   001F34  0EFF               	movlw	255
  8683   001F36  1623               	andwf	(i2___flmul@prod+1)^0,f,c
  8684   001F38  0E7F               	movlw	127
  8685   001F3A  1624               	andwf	(i2___flmul@prod+2)^0,f,c
  8686   001F3C  0E00               	movlw	0
  8687   001F3E  1625               	andwf	(i2___flmul@prod+3)^0,f,c
  8688   001F40  B021               	btfsc	i2___flmul@bexp^0,0,c
  8689   001F42  8E24               	bsf	(i2___flmul@prod+2)^0,7,c
  8690   001F44  90D8               	bcf	status,0,c
  8691   001F46  3021               	rrcf	i2___flmul@bexp^0,w,c
  8692   001F48                     L10:
  8693   001F48  6E25               	movwf	(i2___flmul@prod+3)^0,c
  8694   001F4A                     i2l6585:
  8695   001F4A  501B               	movf	i2___flmul@sign^0,w,c
  8696   001F4C  1225               	iorwf	(i2___flmul@prod+3)^0,f,c
  8697   001F4E  C022  F00F         	movff	i2___flmul@prod,?i2___flmul
  8698   001F52  C023  F010         	movff	i2___flmul@prod+1,?i2___flmul+1
  8699   001F56  C024  F011         	movff	i2___flmul@prod+2,?i2___flmul+2
  8700   001F5A  C025  F012         	movff	i2___flmul@prod+3,?i2___flmul+3
  8701   001F5E  0012               	return		;funcret
  8702   001F60                     __end_ofi2___flmul:
  8703                           	callstack 0
  8704                           
  8705 ;; *************** function i2___fladd *****************
  8706 ;; Defined at:
  8707 ;;		line 10 in file "C:\Program Files\Microchip\xc8\v2.41\pic\sources\c99\common\sprcadd.c"
  8708 ;; Parameters:    Size  Location     Type
  8709 ;;  b               4   39[COMRAM] unsigned char 
  8710 ;;  a               4   43[COMRAM] unsigned char 
  8711 ;; Auto vars:     Size  Location     Type
  8712 ;;  grs             1   54[COMRAM] unsigned char 
  8713 ;;  bexp            1   53[COMRAM] unsigned char 
  8714 ;;  aexp            1   52[COMRAM] unsigned char 
  8715 ;;  signs           1   51[COMRAM] unsigned char 
  8716 ;; Return value:  Size  Location     Type
  8717 ;;                  4   39[COMRAM] unsigned char 
  8718 ;; Registers used:
  8719 ;;		wreg, status,2, status,0
  8720 ;; Tracked objects:
  8721 ;;		On entry : 0/0
  8722 ;;		On exit  : 0/0
  8723 ;;		Unchanged: 0/0
  8724 ;; Data sizes:     COMRAM   BANK0   BANK1   BANK2   BANK3   BANK4   BANK5   BANK6   BANK7   BANK8   BANK9  BANK10  BANK1
      +1  BANK12  BANK13  BANK14
  8725 ;;      Params:         8       0       0       0       0       0       0       0       0       0       0       0       
      +0       0       0       0
  8726 ;;      Locals:         4       0       0       0       0       0       0       0       0       0       0       0       
      +0       0       0       0
  8727 ;;      Temps:          4       0       0       0       0       0       0       0       0       0       0       0       
      +0       0       0       0
  8728 ;;      Totals:        16       0       0       0       0       0       0       0       0       0       0       0       
      +0       0       0       0
  8729 ;;Total ram usage:       16 bytes
  8730 ;; Hardware stack levels used: 1
  8731 ;; This function calls:
  8732 ;;		Nothing
  8733 ;; This function is called by:
  8734 ;;		_TMR4_DefaultInterruptHandler
  8735 ;; This function uses a non-reentrant model
  8736 ;;
  8737                           
  8738                           	psect	text51
  8739   00226E                     __ptext51:
  8740                           	callstack 0
  8741   00226E                     i2___fladd:
  8742                           	callstack 23
  8743                           
  8744                           ;incstack = 0
  8745   00226E  502B               	movf	(i2___fladd@b+3)^0,w,c
  8746   002270  0B80               	andlw	128
  8747   002272  6E34               	movwf	i2___fladd@signs^0,c
  8748   002274  502B               	movf	(i2___fladd@b+3)^0,w,c
  8749   002276  242B               	addwf	(i2___fladd@b+3)^0,w,c
  8750   002278  6E36               	movwf	i2___fladd@bexp^0,c
  8751   00227A  BE2A               	btfsc	(i2___fladd@b+2)^0,7,c
  8752   00227C  8036               	bsf	i2___fladd@bexp^0,0,c
  8753   00227E  5036               	movf	i2___fladd@bexp^0,w,c
  8754   002280  B4D8               	btfsc	status,2,c
  8755   002282  D00D               	goto	i2l6275
  8756   002284  2836               	incf	i2___fladd@bexp^0,w,c
  8757   002286  A4D8               	btfss	status,2,c
  8758   002288  D008               	goto	i2l6271
  8759   00228A  0E00               	movlw	0
  8760   00228C  6E28               	movwf	i2___fladd@b^0,c
  8761   00228E  0E00               	movlw	0
  8762   002290  6E29               	movwf	(i2___fladd@b+1)^0,c
  8763   002292  0E00               	movlw	0
  8764   002294  6E2A               	movwf	(i2___fladd@b+2)^0,c
  8765   002296  0E00               	movlw	0
  8766   002298  6E2B               	movwf	(i2___fladd@b+3)^0,c
  8767   00229A                     i2l6271:
  8768   00229A  8E2A               	bsf	(i2___fladd@b+2)^0,7,c
  8769   00229C  D006               	goto	L11
  8770   00229E                     i2l6275:
  8771   00229E  0E00               	movlw	0
  8772   0022A0  6E28               	movwf	i2___fladd@b^0,c
  8773   0022A2  0E00               	movlw	0
  8774   0022A4  6E29               	movwf	(i2___fladd@b+1)^0,c
  8775   0022A6  0E00               	movlw	0
  8776   0022A8  6E2A               	movwf	(i2___fladd@b+2)^0,c
  8777   0022AA                     L11:
  8778   0022AA  0E00               	movlw	0
  8779   0022AC  6E2B               	movwf	(i2___fladd@b+3)^0,c
  8780   0022AE  502F               	movf	(i2___fladd@a+3)^0,w,c
  8781   0022B0  0B80               	andlw	128
  8782   0022B2  6E35               	movwf	i2___fladd@aexp^0,c
  8783   0022B4  5034               	movf	i2___fladd@signs^0,w,c
  8784   0022B6  1835               	xorwf	i2___fladd@aexp^0,w,c
  8785   0022B8  A4D8               	btfss	status,2,c
  8786   0022BA  8C34               	bsf	i2___fladd@signs^0,6,c
  8787   0022BC  502F               	movf	(i2___fladd@a+3)^0,w,c
  8788   0022BE  242F               	addwf	(i2___fladd@a+3)^0,w,c
  8789   0022C0  6E35               	movwf	i2___fladd@aexp^0,c
  8790   0022C2  BE2E               	btfsc	(i2___fladd@a+2)^0,7,c
  8791   0022C4  8035               	bsf	i2___fladd@aexp^0,0,c
  8792   0022C6  5035               	movf	i2___fladd@aexp^0,w,c
  8793   0022C8  B4D8               	btfsc	status,2,c
  8794   0022CA  D00D               	goto	i2l6299
  8795   0022CC  2835               	incf	i2___fladd@aexp^0,w,c
  8796   0022CE  A4D8               	btfss	status,2,c
  8797   0022D0  D008               	goto	i2l6295
  8798   0022D2  0E00               	movlw	0
  8799   0022D4  6E2C               	movwf	i2___fladd@a^0,c
  8800   0022D6  0E00               	movlw	0
  8801   0022D8  6E2D               	movwf	(i2___fladd@a+1)^0,c
  8802   0022DA  0E00               	movlw	0
  8803   0022DC  6E2E               	movwf	(i2___fladd@a+2)^0,c
  8804   0022DE  0E00               	movlw	0
  8805   0022E0  6E2F               	movwf	(i2___fladd@a+3)^0,c
  8806   0022E2                     i2l6295:
  8807   0022E2  8E2E               	bsf	(i2___fladd@a+2)^0,7,c
  8808   0022E4  D006               	goto	L12
  8809   0022E6                     i2l6299:
  8810   0022E6  0E00               	movlw	0
  8811   0022E8  6E2C               	movwf	i2___fladd@a^0,c
  8812   0022EA  0E00               	movlw	0
  8813   0022EC  6E2D               	movwf	(i2___fladd@a+1)^0,c
  8814   0022EE  0E00               	movlw	0
  8815   0022F0  6E2E               	movwf	(i2___fladd@a+2)^0,c
  8816   0022F2                     L12:
  8817   0022F2  0E00               	movlw	0
  8818   0022F4  6E2F               	movwf	(i2___fladd@a+3)^0,c
  8819   0022F6  5036               	movf	i2___fladd@bexp^0,w,c
  8820   0022F8  5C35               	subwf	i2___fladd@aexp^0,w,c
  8821   0022FA  B0D8               	btfsc	status,0,c
  8822   0022FC  D022               	goto	i2l6337
  8823   0022FE  AC34               	btfss	i2___fladd@signs^0,6,c
  8824   002300  D002               	goto	i2l6307
  8825   002302  0E80               	movlw	128
  8826   002304  1A34               	xorwf	i2___fladd@signs^0,f,c
  8827   002306                     i2l6307:
  8828   002306  C036  F037         	movff	i2___fladd@bexp,i2___fladd@grs
  8829   00230A  C035  F036         	movff	i2___fladd@aexp,i2___fladd@bexp
  8830   00230E  C037  F035         	movff	i2___fladd@grs,i2___fladd@aexp
  8831   002312  C028  F037         	movff	i2___fladd@b,i2___fladd@grs
  8832   002316  C02C  F028         	movff	i2___fladd@a,i2___fladd@b
  8833   00231A  C037  F02C         	movff	i2___fladd@grs,i2___fladd@a
  8834   00231E  C029  F037         	movff	i2___fladd@b+1,i2___fladd@grs
  8835   002322  C02D  F029         	movff	i2___fladd@a+1,i2___fladd@b+1
  8836   002326  C037  F02D         	movff	i2___fladd@grs,i2___fladd@a+1
  8837   00232A  C02A  F037         	movff	i2___fladd@b+2,i2___fladd@grs
  8838   00232E  C02E  F02A         	movff	i2___fladd@a+2,i2___fladd@b+2
  8839   002332  C037  F02E         	movff	i2___fladd@grs,i2___fladd@a+2
  8840   002336  C02B  F037         	movff	i2___fladd@b+3,i2___fladd@grs
  8841   00233A  C02F  F02B         	movff	i2___fladd@a+3,i2___fladd@b+3
  8842   00233E  C037  F02F         	movff	i2___fladd@grs,i2___fladd@a+3
  8843   002342                     i2l6337:
  8844   002342  0E00               	movlw	0
  8845   002344  6E37               	movwf	i2___fladd@grs^0,c
  8846   002346  5036               	movf	i2___fladd@bexp^0,w,c
  8847   002348  C035  F030         	movff	i2___fladd@aexp,??i2___fladd
  8848   00234C  6A31               	clrf	(??i2___fladd+1)^0,c
  8849   00234E  5E30               	subwf	??i2___fladd^0,f,c
  8850   002350  0E00               	movlw	0
  8851   002352  5A31               	subwfb	(??i2___fladd+1)^0,f,c
  8852   002354  BE31               	btfsc	(??i2___fladd+1)^0,7,c
  8853   002356  D02C               	goto	i2l2383
  8854   002358  5031               	movf	(??i2___fladd+1)^0,w,c
  8855   00235A  E104               	bnz	i2u519_40
  8856   00235C  0E1A               	movlw	26
  8857   00235E  5C30               	subwf	??i2___fladd^0,w,c
  8858   002360  A0D8               	btfss	status,0,c
  8859   002362  D026               	goto	i2l2383
  8860   002364                     i2u519_40:
  8861   002364  5028               	movf	i2___fladd@b^0,w,c
  8862   002366  1029               	iorwf	(i2___fladd@b+1)^0,w,c
  8863   002368  102A               	iorwf	(i2___fladd@b+2)^0,w,c
  8864   00236A  102B               	iorwf	(i2___fladd@b+3)^0,w,c
  8865   00236C  B4D8               	btfsc	status,2,c
  8866   00236E  D002               	goto	i2u520_40
  8867   002370  0E01               	movlw	1
  8868   002372  D001               	goto	i2u521_40
  8869   002374                     i2u520_40:
  8870   002374  0E00               	movlw	0
  8871   002376                     i2u521_40:
  8872   002376  6E37               	movwf	i2___fladd@grs^0,c
  8873   002378  0E00               	movlw	0
  8874   00237A  6E28               	movwf	i2___fladd@b^0,c
  8875   00237C  0E00               	movlw	0
  8876   00237E  6E29               	movwf	(i2___fladd@b+1)^0,c
  8877   002380  0E00               	movlw	0
  8878   002382  6E2A               	movwf	(i2___fladd@b+2)^0,c
  8879   002384  0E00               	movlw	0
  8880   002386  6E2B               	movwf	(i2___fladd@b+3)^0,c
  8881   002388  C035  F036         	movff	i2___fladd@aexp,i2___fladd@bexp
  8882   00238C  D015               	goto	i2u524_40
  8883   00238E                     i2l2384:
  8884   00238E  A037               	btfss	i2___fladd@grs^0,0,c
  8885   002390  D005               	goto	i2l6349
  8886   002392  90D8               	bcf	status,0,c
  8887   002394  3037               	rrcf	i2___fladd@grs^0,w,c
  8888   002396  0901               	iorlw	1
  8889   002398  6E37               	movwf	i2___fladd@grs^0,c
  8890   00239A  D002               	goto	i2l6351
  8891   00239C                     i2l6349:
  8892   00239C  90D8               	bcf	status,0,c
  8893   00239E  3237               	rrcf	i2___fladd@grs^0,f,c
  8894   0023A0                     i2l6351:
  8895   0023A0  B028               	btfsc	i2___fladd@b^0,0,c
  8896   0023A2  8E37               	bsf	i2___fladd@grs^0,7,c
  8897   0023A4  342B               	rlcf	(i2___fladd@b+3)^0,w,c
  8898   0023A6  322B               	rrcf	(i2___fladd@b+3)^0,f,c
  8899   0023A8  322A               	rrcf	(i2___fladd@b+2)^0,f,c
  8900   0023AA  3229               	rrcf	(i2___fladd@b+1)^0,f,c
  8901   0023AC  3228               	rrcf	i2___fladd@b^0,f,c
  8902   0023AE  2A36               	incf	i2___fladd@bexp^0,f,c
  8903   0023B0                     i2l2383:
  8904   0023B0  5035               	movf	i2___fladd@aexp^0,w,c
  8905   0023B2  5C36               	subwf	i2___fladd@bexp^0,w,c
  8906   0023B4  A0D8               	btfss	status,0,c
  8907   0023B6  D7EB               	goto	i2l2384
  8908   0023B8                     i2u524_40:
  8909   0023B8  BC34               	btfsc	i2___fladd@signs^0,6,c
  8910   0023BA  D028               	goto	i2l6383
  8911   0023BC  5036               	movf	i2___fladd@bexp^0,w,c
  8912   0023BE  A4D8               	btfss	status,2,c
  8913   0023C0  D009               	goto	i2l6365
  8914   0023C2  0E00               	movlw	0
  8915   0023C4  6E28               	movwf	?i2___fladd^0,c
  8916   0023C6  0E00               	movlw	0
  8917   0023C8  6E29               	movwf	(?i2___fladd+1)^0,c
  8918   0023CA  0E00               	movlw	0
  8919   0023CC  6E2A               	movwf	(?i2___fladd+2)^0,c
  8920   0023CE  0E00               	movlw	0
  8921   0023D0  6E2B               	movwf	(?i2___fladd+3)^0,c
  8922   0023D2  0012               	return	
  8923   0023D4                     i2l6365:
  8924   0023D4  502C               	movf	i2___fladd@a^0,w,c
  8925   0023D6  2628               	addwf	i2___fladd@b^0,f,c
  8926   0023D8  502D               	movf	(i2___fladd@a+1)^0,w,c
  8927   0023DA  2229               	addwfc	(i2___fladd@b+1)^0,f,c
  8928   0023DC  502E               	movf	(i2___fladd@a+2)^0,w,c
  8929   0023DE  222A               	addwfc	(i2___fladd@b+2)^0,f,c
  8930   0023E0  502F               	movf	(i2___fladd@a+3)^0,w,c
  8931   0023E2  222B               	addwfc	(i2___fladd@b+3)^0,f,c
  8932   0023E4  A02B               	btfss	(i2___fladd@b+3)^0,0,c
  8933   0023E6  D071               	goto	i2u537_40
  8934   0023E8  A037               	btfss	i2___fladd@grs^0,0,c
  8935   0023EA  D005               	goto	i2l6373
  8936   0023EC  90D8               	bcf	status,0,c
  8937   0023EE  3037               	rrcf	i2___fladd@grs^0,w,c
  8938   0023F0  0901               	iorlw	1
  8939   0023F2  6E37               	movwf	i2___fladd@grs^0,c
  8940   0023F4  D002               	goto	i2l6375
  8941   0023F6                     i2l6373:
  8942   0023F6  90D8               	bcf	status,0,c
  8943   0023F8  3237               	rrcf	i2___fladd@grs^0,f,c
  8944   0023FA                     i2l6375:
  8945   0023FA  B028               	btfsc	i2___fladd@b^0,0,c
  8946   0023FC  8E37               	bsf	i2___fladd@grs^0,7,c
  8947   0023FE  342B               	rlcf	(i2___fladd@b+3)^0,w,c
  8948   002400  322B               	rrcf	(i2___fladd@b+3)^0,f,c
  8949   002402  322A               	rrcf	(i2___fladd@b+2)^0,f,c
  8950   002404  3229               	rrcf	(i2___fladd@b+1)^0,f,c
  8951   002406  3228               	rrcf	i2___fladd@b^0,f,c
  8952   002408  2A36               	incf	i2___fladd@bexp^0,f,c
  8953   00240A  D05F               	goto	i2u537_40
  8954   00240C                     i2l6383:
  8955   00240C  502C               	movf	i2___fladd@a^0,w,c
  8956   00240E  5C28               	subwf	i2___fladd@b^0,w,c
  8957   002410  502D               	movf	(i2___fladd@a+1)^0,w,c
  8958   002412  5829               	subwfb	(i2___fladd@b+1)^0,w,c
  8959   002414  502E               	movf	(i2___fladd@a+2)^0,w,c
  8960   002416  582A               	subwfb	(i2___fladd@b+2)^0,w,c
  8961   002418  502B               	movf	(i2___fladd@b+3)^0,w,c
  8962   00241A  0A80               	xorlw	128
  8963   00241C  6E30               	movwf	??i2___fladd^0,c
  8964   00241E  502F               	movf	(i2___fladd@a+3)^0,w,c
  8965   002420  0A80               	xorlw	128
  8966   002422  5830               	subwfb	??i2___fladd^0,w,c
  8967   002424  B0D8               	btfsc	status,0,c
  8968   002426  D025               	goto	i2l6393
  8969   002428  5028               	movf	i2___fladd@b^0,w,c
  8970   00242A  5C2C               	subwf	i2___fladd@a^0,w,c
  8971   00242C  6E30               	movwf	??i2___fladd^0,c
  8972   00242E  5029               	movf	(i2___fladd@b+1)^0,w,c
  8973   002430  582D               	subwfb	(i2___fladd@a+1)^0,w,c
  8974   002432  6E31               	movwf	(??i2___fladd+1)^0,c
  8975   002434  502A               	movf	(i2___fladd@b+2)^0,w,c
  8976   002436  582E               	subwfb	(i2___fladd@a+2)^0,w,c
  8977   002438  6E32               	movwf	(??i2___fladd+2)^0,c
  8978   00243A  502B               	movf	(i2___fladd@b+3)^0,w,c
  8979   00243C  582F               	subwfb	(i2___fladd@a+3)^0,w,c
  8980   00243E  6E33               	movwf	(??i2___fladd+3)^0,c
  8981   002440  0EFF               	movlw	255
  8982   002442  2430               	addwf	??i2___fladd^0,w,c
  8983   002444  6E28               	movwf	i2___fladd@b^0,c
  8984   002446  0EFF               	movlw	255
  8985   002448  2031               	addwfc	(??i2___fladd+1)^0,w,c
  8986   00244A  6E29               	movwf	(i2___fladd@b+1)^0,c
  8987   00244C  0EFF               	movlw	255
  8988   00244E  2032               	addwfc	(??i2___fladd+2)^0,w,c
  8989   002450  6E2A               	movwf	(i2___fladd@b+2)^0,c
  8990   002452  0EFF               	movlw	255
  8991   002454  2033               	addwfc	(??i2___fladd+3)^0,w,c
  8992   002456  6E2B               	movwf	(i2___fladd@b+3)^0,c
  8993   002458  0E80               	movlw	128
  8994   00245A  1A34               	xorwf	i2___fladd@signs^0,f,c
  8995   00245C  6C37               	negf	i2___fladd@grs^0,c
  8996   00245E  5037               	movf	i2___fladd@grs^0,w,c
  8997   002460  A4D8               	btfss	status,2,c
  8998   002462  D00F               	goto	i2l2399
  8999   002464  0E01               	movlw	1
  9000   002466  2628               	addwf	i2___fladd@b^0,f,c
  9001   002468  0E00               	movlw	0
  9002   00246A  2229               	addwfc	(i2___fladd@b+1)^0,f,c
  9003   00246C  222A               	addwfc	(i2___fladd@b+2)^0,f,c
  9004   00246E  222B               	addwfc	(i2___fladd@b+3)^0,f,c
  9005   002470  D008               	goto	i2l2399
  9006   002472                     i2l6393:
  9007   002472  502C               	movf	i2___fladd@a^0,w,c
  9008   002474  5E28               	subwf	i2___fladd@b^0,f,c
  9009   002476  502D               	movf	(i2___fladd@a+1)^0,w,c
  9010   002478  5A29               	subwfb	(i2___fladd@b+1)^0,f,c
  9011   00247A  502E               	movf	(i2___fladd@a+2)^0,w,c
  9012   00247C  5A2A               	subwfb	(i2___fladd@b+2)^0,f,c
  9013   00247E  502F               	movf	(i2___fladd@a+3)^0,w,c
  9014   002480  5A2B               	subwfb	(i2___fladd@b+3)^0,f,c
  9015   002482                     i2l2399:
  9016   002482  5028               	movf	i2___fladd@b^0,w,c
  9017   002484  1029               	iorwf	(i2___fladd@b+1)^0,w,c
  9018   002486  102A               	iorwf	(i2___fladd@b+2)^0,w,c
  9019   002488  102B               	iorwf	(i2___fladd@b+3)^0,w,c
  9020   00248A  A4D8               	btfss	status,2,c
  9021   00248C  D01C               	goto	i2l6417
  9022   00248E  5037               	movf	i2___fladd@grs^0,w,c
  9023   002490  A4D8               	btfss	status,2,c
  9024   002492  D019               	goto	i2l6417
  9025   002494  0E00               	movlw	0
  9026   002496  6E28               	movwf	?i2___fladd^0,c
  9027   002498  0E00               	movlw	0
  9028   00249A  6E29               	movwf	(?i2___fladd+1)^0,c
  9029   00249C  0E00               	movlw	0
  9030   00249E  6E2A               	movwf	(?i2___fladd+2)^0,c
  9031   0024A0  0E00               	movlw	0
  9032   0024A2  6E2B               	movwf	(?i2___fladd+3)^0,c
  9033   0024A4  0012               	return	
  9034   0024A6                     i2l6401:
  9035   0024A6  90D8               	bcf	status,0,c
  9036   0024A8  3628               	rlcf	i2___fladd@b^0,f,c
  9037   0024AA  3629               	rlcf	(i2___fladd@b+1)^0,f,c
  9038   0024AC  362A               	rlcf	(i2___fladd@b+2)^0,f,c
  9039   0024AE  362B               	rlcf	(i2___fladd@b+3)^0,f,c
  9040   0024B0  BE37               	btfsc	i2___fladd@grs^0,7,c
  9041   0024B2  8028               	bsf	i2___fladd@b^0,0,c
  9042   0024B4  A037               	btfss	i2___fladd@grs^0,0,c
  9043   0024B6  D002               	goto	i2l6411
  9044   0024B8  80D8               	bsf	status,0,c
  9045   0024BA  D001               	goto	L13
  9046   0024BC                     i2l6411:
  9047   0024BC  90D8               	bcf	status,0,c
  9048   0024BE                     L13:
  9049   0024BE  3637               	rlcf	i2___fladd@grs^0,f,c
  9050   0024C0  5036               	movf	i2___fladd@bexp^0,w,c
  9051   0024C2  A4D8               	btfss	status,2,c
  9052   0024C4  0636               	decf	i2___fladd@bexp^0,f,c
  9053   0024C6                     i2l6417:
  9054   0024C6  AE2A               	btfss	(i2___fladd@b+2)^0,7,c
  9055   0024C8  D7EE               	goto	i2l6401
  9056   0024CA                     i2u537_40:
  9057   0024CA  0E00               	movlw	0
  9058   0024CC  6E35               	movwf	i2___fladd@aexp^0,c
  9059   0024CE  AE37               	btfss	i2___fladd@grs^0,7,c
  9060   0024D0  D00B               	goto	i2l2408
  9061   0024D2  C037  F030         	movff	i2___fladd@grs,??i2___fladd
  9062   0024D6  0E7F               	movlw	127
  9063   0024D8  1630               	andwf	??i2___fladd^0,f,c
  9064   0024DA  B4D8               	btfsc	status,2,c
  9065   0024DC  D003               	goto	i2l2409
  9066   0024DE                     i2u539_40:
  9067   0024DE  0E01               	movlw	1
  9068   0024E0  6E35               	movwf	i2___fladd@aexp^0,c
  9069   0024E2  D002               	goto	i2l2408
  9070   0024E4                     i2l2409:
  9071   0024E4  B028               	btfsc	i2___fladd@b^0,0,c
  9072   0024E6  D7FB               	goto	i2u539_40
  9073   0024E8                     i2l2408:
  9074   0024E8  5035               	movf	i2___fladd@aexp^0,w,c
  9075   0024EA  B4D8               	btfsc	status,2,c
  9076   0024EC  D020               	goto	i2l6437
  9077   0024EE  0E01               	movlw	1
  9078   0024F0  2628               	addwf	i2___fladd@b^0,f,c
  9079   0024F2  0E00               	movlw	0
  9080   0024F4  2229               	addwfc	(i2___fladd@b+1)^0,f,c
  9081   0024F6  222A               	addwfc	(i2___fladd@b+2)^0,f,c
  9082   0024F8  222B               	addwfc	(i2___fladd@b+3)^0,f,c
  9083   0024FA  A02B               	btfss	(i2___fladd@b+3)^0,0,c
  9084   0024FC  D018               	goto	i2l6437
  9085   0024FE  C028  F030         	movff	i2___fladd@b,??i2___fladd
  9086   002502  C029  F031         	movff	i2___fladd@b+1,??i2___fladd+1
  9087   002506  C02A  F032         	movff	i2___fladd@b+2,??i2___fladd+2
  9088   00250A  C02B  F033         	movff	i2___fladd@b+3,??i2___fladd+3
  9089   00250E  3433               	rlcf	(??i2___fladd+3)^0,w,c
  9090   002510  3233               	rrcf	(??i2___fladd+3)^0,f,c
  9091   002512  3232               	rrcf	(??i2___fladd+2)^0,f,c
  9092   002514  3231               	rrcf	(??i2___fladd+1)^0,f,c
  9093   002516  3230               	rrcf	??i2___fladd^0,f,c
  9094   002518  C030  F028         	movff	??i2___fladd,i2___fladd@b
  9095   00251C  C031  F029         	movff	??i2___fladd+1,i2___fladd@b+1
  9096   002520  C032  F02A         	movff	??i2___fladd+2,i2___fladd@b+2
  9097   002524  C033  F02B         	movff	??i2___fladd+3,i2___fladd@b+3
  9098   002528  2836               	incf	i2___fladd@bexp^0,w,c
  9099   00252A  A4D8               	btfss	status,2,c
  9100   00252C  2A36               	incf	i2___fladd@bexp^0,f,c
  9101   00252E                     i2l6437:
  9102   00252E  2836               	incf	i2___fladd@bexp^0,w,c
  9103   002530  B4D8               	btfsc	status,2,c
  9104   002532  D003               	goto	i2u545_40
  9105   002534  5036               	movf	i2___fladd@bexp^0,w,c
  9106   002536  A4D8               	btfss	status,2,c
  9107   002538  D00D               	goto	i2l6445
  9108   00253A                     i2u545_40:
  9109   00253A  0E00               	movlw	0
  9110   00253C  6E28               	movwf	i2___fladd@b^0,c
  9111   00253E  0E00               	movlw	0
  9112   002540  6E29               	movwf	(i2___fladd@b+1)^0,c
  9113   002542  0E00               	movlw	0
  9114   002544  6E2A               	movwf	(i2___fladd@b+2)^0,c
  9115   002546  0E00               	movlw	0
  9116   002548  6E2B               	movwf	(i2___fladd@b+3)^0,c
  9117   00254A  5036               	movf	i2___fladd@bexp^0,w,c
  9118   00254C  A4D8               	btfss	status,2,c
  9119   00254E  D002               	goto	i2l6445
  9120   002550  0E00               	movlw	0
  9121   002552  6E34               	movwf	i2___fladd@signs^0,c
  9122   002554                     i2l6445:
  9123   002554  A036               	btfss	i2___fladd@bexp^0,0,c
  9124   002556  D002               	goto	i2l6449
  9125   002558  8E2A               	bsf	(i2___fladd@b+2)^0,7,c
  9126   00255A  D001               	goto	i2l6451
  9127   00255C                     i2l6449:
  9128   00255C  9E2A               	bcf	(i2___fladd@b+2)^0,7,c
  9129   00255E                     i2l6451:
  9130   00255E  90D8               	bcf	status,0,c
  9131   002560  3036               	rrcf	i2___fladd@bexp^0,w,c
  9132   002562  6E2B               	movwf	(i2___fladd@b+3)^0,c
  9133   002564  BE34               	btfsc	i2___fladd@signs^0,7,c
  9134   002566  8E2B               	bsf	(i2___fladd@b+3)^0,7,c
  9135   002568  C028  F028         	movff	i2___fladd@b,?i2___fladd
  9136   00256C  C029  F029         	movff	i2___fladd@b+1,?i2___fladd+1
  9137   002570  C02A  F02A         	movff	i2___fladd@b+2,?i2___fladd+2
  9138   002574  C02B  F02B         	movff	i2___fladd@b+3,?i2___fladd+3
  9139   002578  0012               	return		;funcret
  9140   00257A                     __end_ofi2___fladd:
  9141                           	callstack 0
  9142                           
  9143 ;; *************** function _PWM2_LoadDutyValue *****************
  9144 ;; Defined at:
  9145 ;;		line 82 in file "mcc_generated_files/pwm2.c"
  9146 ;; Parameters:    Size  Location     Type
  9147 ;;  dutyValue       2    0[COMRAM] unsigned short 
  9148 ;; Auto vars:     Size  Location     Type
  9149 ;;		None
  9150 ;; Return value:  Size  Location     Type
  9151 ;;                  1    wreg      void 
  9152 ;; Registers used:
  9153 ;;		wreg, status,2, status,0
  9154 ;; Tracked objects:
  9155 ;;		On entry : 0/0
  9156 ;;		On exit  : 0/0
  9157 ;;		Unchanged: 0/0
  9158 ;; Data sizes:     COMRAM   BANK0   BANK1   BANK2   BANK3   BANK4   BANK5   BANK6   BANK7   BANK8   BANK9  BANK10  BANK1
      +1  BANK12  BANK13  BANK14
  9159 ;;      Params:         2       0       0       0       0       0       0       0       0       0       0       0       
      +0       0       0       0
  9160 ;;      Locals:         0       0       0       0       0       0       0       0       0       0       0       0       
      +0       0       0       0
  9161 ;;      Temps:          0       0       0       0       0       0       0       0       0       0       0       0       
      +0       0       0       0
  9162 ;;      Totals:         2       0       0       0       0       0       0       0       0       0       0       0       
      +0       0       0       0
  9163 ;;Total ram usage:        2 bytes
  9164 ;; Hardware stack levels used: 1
  9165 ;; This function calls:
  9166 ;;		Nothing
  9167 ;; This function is called by:
  9168 ;;		_TMR4_DefaultInterruptHandler
  9169 ;; This function uses a non-reentrant model
  9170 ;;
  9171                           
  9172                           	psect	text52
  9173   0038EE                     __ptext52:
  9174                           	callstack 0
  9175   0038EE                     _PWM2_LoadDutyValue:
  9176                           	callstack 23
  9177                           
  9178                           ;mcc_generated_files/pwm2.c: 82: void PWM2_LoadDutyValue(uint16_t dutyValue);mcc_generat
      +                          ed_files/pwm2.c: 83: {;mcc_generated_files/pwm2.c: 84:     dutyValue &= 0x03FF;
  9179                           
  9180                           ;incstack = 0
  9181   0038EE  0EFF               	movlw	255
  9182   0038F0  1601               	andwf	PWM2_LoadDutyValue@dutyValue^0,f,c
  9183   0038F2  0E03               	movlw	3
  9184   0038F4  1602               	andwf	(PWM2_LoadDutyValue@dutyValue+1)^0,f,c
  9185                           
  9186                           ;mcc_generated_files/pwm2.c: 87:     if(CCP2CONbits.FMT)
  9187   0038F6  A8A8               	btfss	168,4,c	;volatile
  9188   0038F8  D006               	goto	i2l6189
  9189                           
  9190                           ;mcc_generated_files/pwm2.c: 88:     {;mcc_generated_files/pwm2.c: 89:         dutyValue
      +                           <<= 6;
  9191   0038FA  0E06               	movlw	6
  9192   0038FC                     i2u500_45:
  9193   0038FC  90D8               	bcf	status,0,c
  9194   0038FE  3601               	rlcf	PWM2_LoadDutyValue@dutyValue^0,f,c
  9195   003900  3602               	rlcf	(PWM2_LoadDutyValue@dutyValue+1)^0,f,c
  9196   003902  2EE8               	decfsz	wreg,f,c
  9197   003904  D7FB               	goto	i2u500_45
  9198   003906                     i2l6189:
  9199                           
  9200                           ;mcc_generated_files/pwm2.c: 90:         CCPR2H = dutyValue >> 8;
  9201   003906  5002               	movf	(PWM2_LoadDutyValue@dutyValue+1)^0,w,c
  9202   003908  6EA7               	movwf	167,c	;volatile
  9203                           
  9204                           ;mcc_generated_files/pwm2.c: 91:         CCPR2L = dutyValue;
  9205   00390A  C001  FFA6         	movff	PWM2_LoadDutyValue@dutyValue,4006	;volatile
  9206                           
  9207                           ;mcc_generated_files/pwm2.c: 92:     }
  9208   00390E  0012               	return		;funcret
  9209   003910                     __end_of_PWM2_LoadDutyValue:
  9210                           	callstack 0
  9211                           
  9212 ;; *************** function _PWM1_LoadDutyValue *****************
  9213 ;; Defined at:
  9214 ;;		line 82 in file "mcc_generated_files/pwm1.c"
  9215 ;; Parameters:    Size  Location     Type
  9216 ;;  dutyValue       2    0[COMRAM] unsigned short 
  9217 ;; Auto vars:     Size  Location     Type
  9218 ;;		None
  9219 ;; Return value:  Size  Location     Type
  9220 ;;                  1    wreg      void 
  9221 ;; Registers used:
  9222 ;;		wreg, status,2, status,0
  9223 ;; Tracked objects:
  9224 ;;		On entry : 0/0
  9225 ;;		On exit  : 0/0
  9226 ;;		Unchanged: 0/0
  9227 ;; Data sizes:     COMRAM   BANK0   BANK1   BANK2   BANK3   BANK4   BANK5   BANK6   BANK7   BANK8   BANK9  BANK10  BANK1
      +1  BANK12  BANK13  BANK14
  9228 ;;      Params:         2       0       0       0       0       0       0       0       0       0       0       0       
      +0       0       0       0
  9229 ;;      Locals:         0       0       0       0       0       0       0       0       0       0       0       0       
      +0       0       0       0
  9230 ;;      Temps:          0       0       0       0       0       0       0       0       0       0       0       0       
      +0       0       0       0
  9231 ;;      Totals:         2       0       0       0       0       0       0       0       0       0       0       0       
      +0       0       0       0
  9232 ;;Total ram usage:        2 bytes
  9233 ;; Hardware stack levels used: 1
  9234 ;; This function calls:
  9235 ;;		Nothing
  9236 ;; This function is called by:
  9237 ;;		_TMR4_DefaultInterruptHandler
  9238 ;; This function uses a non-reentrant model
  9239 ;;
  9240                           
  9241                           	psect	text53
  9242   003910                     __ptext53:
  9243                           	callstack 0
  9244   003910                     _PWM1_LoadDutyValue:
  9245                           	callstack 23
  9246                           
  9247                           ;mcc_generated_files/pwm1.c: 82: void PWM1_LoadDutyValue(uint16_t dutyValue);mcc_generat
      +                          ed_files/pwm1.c: 83: {;mcc_generated_files/pwm1.c: 84:     dutyValue &= 0x03FF;
  9248                           
  9249                           ;incstack = 0
  9250   003910  0EFF               	movlw	255
  9251   003912  1601               	andwf	PWM1_LoadDutyValue@dutyValue^0,f,c
  9252   003914  0E03               	movlw	3
  9253   003916  1602               	andwf	(PWM1_LoadDutyValue@dutyValue+1)^0,f,c
  9254                           
  9255                           ;mcc_generated_files/pwm1.c: 87:     if(CCP1CONbits.FMT)
  9256   003918  A8AC               	btfss	172,4,c	;volatile
  9257   00391A  D006               	goto	i2l6203
  9258                           
  9259                           ;mcc_generated_files/pwm1.c: 88:     {;mcc_generated_files/pwm1.c: 89:         dutyValue
      +                           <<= 6;
  9260   00391C  0E06               	movlw	6
  9261   00391E                     i2u502_45:
  9262   00391E  90D8               	bcf	status,0,c
  9263   003920  3601               	rlcf	PWM1_LoadDutyValue@dutyValue^0,f,c
  9264   003922  3602               	rlcf	(PWM1_LoadDutyValue@dutyValue+1)^0,f,c
  9265   003924  2EE8               	decfsz	wreg,f,c
  9266   003926  D7FB               	goto	i2u502_45
  9267   003928                     i2l6203:
  9268                           
  9269                           ;mcc_generated_files/pwm1.c: 90:         CCPR1H = dutyValue >> 8;
  9270   003928  5002               	movf	(PWM1_LoadDutyValue@dutyValue+1)^0,w,c
  9271   00392A  6EAB               	movwf	171,c	;volatile
  9272                           
  9273                           ;mcc_generated_files/pwm1.c: 91:         CCPR1L = dutyValue;
  9274   00392C  C001  FFAA         	movff	PWM1_LoadDutyValue@dutyValue,4010	;volatile
  9275                           
  9276                           ;mcc_generated_files/pwm1.c: 92:     }
  9277   003930  0012               	return		;funcret
  9278   003932                     __end_of_PWM1_LoadDutyValue:
  9279                           	callstack 0
  9280                           
  9281 ;; *************** function _TMR3_ISR *****************
  9282 ;; Defined at:
  9283 ;;		line 166 in file "mcc_generated_files/tmr3.c"
  9284 ;; Parameters:    Size  Location     Type
  9285 ;;		None
  9286 ;; Auto vars:     Size  Location     Type
  9287 ;;		None
  9288 ;; Return value:  Size  Location     Type
  9289 ;;                  1    wreg      void 
  9290 ;; Registers used:
  9291 ;;		wreg, status,2, status,0, pcl, pclath, pclatu, tosl, cstack
  9292 ;; Tracked objects:
  9293 ;;		On entry : 0/0
  9294 ;;		On exit  : 0/0
  9295 ;;		Unchanged: 0/0
  9296 ;; Data sizes:     COMRAM   BANK0   BANK1   BANK2   BANK3   BANK4   BANK5   BANK6   BANK7   BANK8   BANK9  BANK10  BANK1
      +1  BANK12  BANK13  BANK14
  9297 ;;      Params:         0       0       0       0       0       0       0       0       0       0       0       0       
      +0       0       0       0
  9298 ;;      Locals:         0       0       0       0       0       0       0       0       0       0       0       0       
      +0       0       0       0
  9299 ;;      Temps:          0       0       0       0       0       0       0       0       0       0       0       0       
      +0       0       0       0
  9300 ;;      Totals:         0       0       0       0       0       0       0       0       0       0       0       0       
      +0       0       0       0
  9301 ;;Total ram usage:        0 bytes
  9302 ;; Hardware stack levels used: 1
  9303 ;; Hardware stack levels required when called: 2
  9304 ;; This function calls:
  9305 ;;		NULL
  9306 ;;		_TMR3_DefaultInterruptHandler
  9307 ;;		_TMR3_WriteTimer
  9308 ;; This function is called by:
  9309 ;;		_INTERRUPT_InterruptManager
  9310 ;; This function uses a non-reentrant model
  9311 ;;
  9312                           
  9313                           	psect	text54
  9314   0036D8                     __ptext54:
  9315                           	callstack 0
  9316   0036D8                     _TMR3_ISR:
  9317                           	callstack 23
  9318                           
  9319                           ;mcc_generated_files/tmr3.c: 170:     PIR4bits.TMR3IF = 0;
  9320                           
  9321                           ;incstack = 0
  9322   0036D8  010E               	movlb	14	; () banked
  9323   0036DA  95CE               	bcf	206,2,b	;volatile
  9324                           
  9325                           ; BSR set to: 14
  9326                           ;mcc_generated_files/tmr3.c: 171:     TMR3_WriteTimer(timer3ReloadVal);
  9327   0036DC  C0F2  F001         	movff	_timer3ReloadVal,TMR3_WriteTimer@timerVal	;volatile
  9328   0036E0  C0F3  F002         	movff	_timer3ReloadVal+1,TMR3_WriteTimer@timerVal+1	;volatile
  9329   0036E4  EC13  F01D         	call	_TMR3_WriteTimer	;wreg free
  9330                           
  9331                           ;mcc_generated_files/tmr3.c: 173:     if(TMR3_InterruptHandler)
  9332   0036E8  0101               	movlb	1	; () banked
  9333   0036EA  514F               	movf	_TMR3_InterruptHandler& (0+255),w,b
  9334   0036EC  1150               	iorwf	(_TMR3_InterruptHandler+1)& (0+255),w,b
  9335   0036EE  1151               	iorwf	(_TMR3_InterruptHandler+2)& (0+255),w,b
  9336   0036F0  B4D8               	btfsc	status,2,c
  9337   0036F2  0012               	return	
  9338                           
  9339                           ; BSR set to: 1
  9340                           ;mcc_generated_files/tmr3.c: 174:     {;mcc_generated_files/tmr3.c: 175:         TMR3_In
      +                          terruptHandler();
  9341   0036F4  D801               	call	i2u640_48
  9342   0036F6  0012               	return	
  9343   0036F8                     i2u640_48:
  9344   0036F8  0005               	push	
  9345   0036FA  6EFA               	movwf	pclath,c
  9346   0036FC  514F               	movf	_TMR3_InterruptHandler& (0+255),w,b
  9347   0036FE  6EFD               	movwf	tosl,c
  9348   003700  5150               	movf	(_TMR3_InterruptHandler+1)& (0+255),w,b
  9349   003702  6EFE               	movwf	tosh,c
  9350   003704  5151               	movf	(_TMR3_InterruptHandler+2)& (0+255),w,b
  9351   003706  6EFF               	movwf	tosu,c
  9352   003708  50FA               	movf	pclath,w,c
  9353   00370A  0012               	return		;indir
  9354   00370C                     __end_of_TMR3_ISR:
  9355                           	callstack 0
  9356                           
  9357 ;; *************** function _TMR3_DefaultInterruptHandler *****************
  9358 ;; Defined at:
  9359 ;;		line 184 in file "mcc_generated_files/tmr3.c"
  9360 ;; Parameters:    Size  Location     Type
  9361 ;;		None
  9362 ;; Auto vars:     Size  Location     Type
  9363 ;;		None
  9364 ;; Return value:  Size  Location     Type
  9365 ;;                  1    wreg      void 
  9366 ;; Registers used:
  9367 ;;		wreg, status,2, cstack
  9368 ;; Tracked objects:
  9369 ;;		On entry : 0/0
  9370 ;;		On exit  : 0/0
  9371 ;;		Unchanged: 0/0
  9372 ;; Data sizes:     COMRAM   BANK0   BANK1   BANK2   BANK3   BANK4   BANK5   BANK6   BANK7   BANK8   BANK9  BANK10  BANK1
      +1  BANK12  BANK13  BANK14
  9373 ;;      Params:         0       0       0       0       0       0       0       0       0       0       0       0       
      +0       0       0       0
  9374 ;;      Locals:         0       0       0       0       0       0       0       0       0       0       0       0       
      +0       0       0       0
  9375 ;;      Temps:          0       0       0       0       0       0       0       0       0       0       0       0       
      +0       0       0       0
  9376 ;;      Totals:         0       0       0       0       0       0       0       0       0       0       0       0       
      +0       0       0       0
  9377 ;;Total ram usage:        0 bytes
  9378 ;; Hardware stack levels used: 1
  9379 ;; Hardware stack levels required when called: 1
  9380 ;; This function calls:
  9381 ;;		_TMR3_StopTimer
  9382 ;;		_TMR3_WriteTimer
  9383 ;; This function is called by:
  9384 ;;		_TMR3_Initialize
  9385 ;;		_TMR3_ISR
  9386 ;; This function uses a non-reentrant model
  9387 ;;
  9388                           
  9389                           	psect	text55
  9390   0039EE                     __ptext55:
  9391                           	callstack 0
  9392   0039EE                     _TMR3_DefaultInterruptHandler:
  9393                           	callstack 23
  9394                           
  9395                           ;mcc_generated_files/tmr3.c: 188:     TMR3_StopTimer();
  9396                           
  9397                           ;incstack = 0
  9398   0039EE  EC09  F01E         	call	_TMR3_StopTimer	;wreg free
  9399                           
  9400                           ;mcc_generated_files/tmr3.c: 189:     Vitesse_Moteur_D = 0;
  9401   0039F2  0E00               	movlw	0
  9402   0039F4  0101               	movlb	1	; () banked
  9403   0039F6  6F3D               	movwf	(_Vitesse_Moteur_D+1)& (0+255),b
  9404   0039F8  0E00               	movlw	0
  9405   0039FA  6F3C               	movwf	_Vitesse_Moteur_D& (0+255),b
  9406                           
  9407                           ;mcc_generated_files/tmr3.c: 190:     TMR3_WriteTimer(0);
  9408   0039FC  0E00               	movlw	0
  9409   0039FE  6E02               	movwf	(TMR3_WriteTimer@timerVal+1)^0,c
  9410   003A00  0E00               	movlw	0
  9411   003A02  6E01               	movwf	TMR3_WriteTimer@timerVal^0,c
  9412   003A04  EC13  F01D         	call	_TMR3_WriteTimer	;wreg free
  9413   003A08  0012               	return		;funcret
  9414   003A0A                     __end_of_TMR3_DefaultInterruptHandler:
  9415                           	callstack 0
  9416                           
  9417 ;; *************** function _TMR1_ISR *****************
  9418 ;; Defined at:
  9419 ;;		line 166 in file "mcc_generated_files/tmr1.c"
  9420 ;; Parameters:    Size  Location     Type
  9421 ;;		None
  9422 ;; Auto vars:     Size  Location     Type
  9423 ;;		None
  9424 ;; Return value:  Size  Location     Type
  9425 ;;                  1    wreg      void 
  9426 ;; Registers used:
  9427 ;;		wreg, status,2, status,0, pcl, pclath, pclatu, tosl, cstack
  9428 ;; Tracked objects:
  9429 ;;		On entry : 0/0
  9430 ;;		On exit  : 0/0
  9431 ;;		Unchanged: 0/0
  9432 ;; Data sizes:     COMRAM   BANK0   BANK1   BANK2   BANK3   BANK4   BANK5   BANK6   BANK7   BANK8   BANK9  BANK10  BANK1
      +1  BANK12  BANK13  BANK14
  9433 ;;      Params:         0       0       0       0       0       0       0       0       0       0       0       0       
      +0       0       0       0
  9434 ;;      Locals:         0       0       0       0       0       0       0       0       0       0       0       0       
      +0       0       0       0
  9435 ;;      Temps:          0       0       0       0       0       0       0       0       0       0       0       0       
      +0       0       0       0
  9436 ;;      Totals:         0       0       0       0       0       0       0       0       0       0       0       0       
      +0       0       0       0
  9437 ;;Total ram usage:        0 bytes
  9438 ;; Hardware stack levels used: 1
  9439 ;; Hardware stack levels required when called: 2
  9440 ;; This function calls:
  9441 ;;		NULL
  9442 ;;		_TMR1_DefaultInterruptHandler
  9443 ;;		_TMR1_WriteTimer
  9444 ;; This function is called by:
  9445 ;;		_INTERRUPT_InterruptManager
  9446 ;; This function uses a non-reentrant model
  9447 ;;
  9448                           
  9449                           	psect	text56
  9450   00370C                     __ptext56:
  9451                           	callstack 0
  9452   00370C                     _TMR1_ISR:
  9453                           	callstack 23
  9454                           
  9455                           ;mcc_generated_files/tmr1.c: 170:     PIR4bits.TMR1IF = 0;
  9456                           
  9457                           ;incstack = 0
  9458   00370C  010E               	movlb	14	; () banked
  9459   00370E  91CE               	bcf	206,0,b	;volatile
  9460                           
  9461                           ; BSR set to: 14
  9462                           ;mcc_generated_files/tmr1.c: 171:     TMR1_WriteTimer(timer1ReloadVal);
  9463   003710  C0F4  F001         	movff	_timer1ReloadVal,TMR1_WriteTimer@timerVal	;volatile
  9464   003714  C0F5  F002         	movff	_timer1ReloadVal+1,TMR1_WriteTimer@timerVal+1	;volatile
  9465   003718  EC21  F01D         	call	_TMR1_WriteTimer	;wreg free
  9466                           
  9467                           ;mcc_generated_files/tmr1.c: 173:     if(TMR1_InterruptHandler)
  9468   00371C  0101               	movlb	1	; () banked
  9469   00371E  5152               	movf	_TMR1_InterruptHandler& (0+255),w,b
  9470   003720  1153               	iorwf	(_TMR1_InterruptHandler+1)& (0+255),w,b
  9471   003722  1154               	iorwf	(_TMR1_InterruptHandler+2)& (0+255),w,b
  9472   003724  B4D8               	btfsc	status,2,c
  9473   003726  0012               	return	
  9474                           
  9475                           ; BSR set to: 1
  9476                           ;mcc_generated_files/tmr1.c: 174:     {;mcc_generated_files/tmr1.c: 175:         TMR1_In
      +                          terruptHandler();
  9477   003728  D801               	call	i2u642_48
  9478   00372A  0012               	return	
  9479   00372C                     i2u642_48:
  9480   00372C  0005               	push	
  9481   00372E  6EFA               	movwf	pclath,c
  9482   003730  5152               	movf	_TMR1_InterruptHandler& (0+255),w,b
  9483   003732  6EFD               	movwf	tosl,c
  9484   003734  5153               	movf	(_TMR1_InterruptHandler+1)& (0+255),w,b
  9485   003736  6EFE               	movwf	tosh,c
  9486   003738  5154               	movf	(_TMR1_InterruptHandler+2)& (0+255),w,b
  9487   00373A  6EFF               	movwf	tosu,c
  9488   00373C  50FA               	movf	pclath,w,c
  9489   00373E  0012               	return		;indir
  9490   003740                     __end_of_TMR1_ISR:
  9491                           	callstack 0
  9492                           
  9493 ;; *************** function _TMR1_DefaultInterruptHandler *****************
  9494 ;; Defined at:
  9495 ;;		line 184 in file "mcc_generated_files/tmr1.c"
  9496 ;; Parameters:    Size  Location     Type
  9497 ;;		None
  9498 ;; Auto vars:     Size  Location     Type
  9499 ;;		None
  9500 ;; Return value:  Size  Location     Type
  9501 ;;                  1    wreg      void 
  9502 ;; Registers used:
  9503 ;;		wreg, status,2, cstack
  9504 ;; Tracked objects:
  9505 ;;		On entry : 0/0
  9506 ;;		On exit  : 0/0
  9507 ;;		Unchanged: 0/0
  9508 ;; Data sizes:     COMRAM   BANK0   BANK1   BANK2   BANK3   BANK4   BANK5   BANK6   BANK7   BANK8   BANK9  BANK10  BANK1
      +1  BANK12  BANK13  BANK14
  9509 ;;      Params:         0       0       0       0       0       0       0       0       0       0       0       0       
      +0       0       0       0
  9510 ;;      Locals:         0       0       0       0       0       0       0       0       0       0       0       0       
      +0       0       0       0
  9511 ;;      Temps:          0       0       0       0       0       0       0       0       0       0       0       0       
      +0       0       0       0
  9512 ;;      Totals:         0       0       0       0       0       0       0       0       0       0       0       0       
      +0       0       0       0
  9513 ;;Total ram usage:        0 bytes
  9514 ;; Hardware stack levels used: 1
  9515 ;; Hardware stack levels required when called: 1
  9516 ;; This function calls:
  9517 ;;		_TMR1_StopTimer
  9518 ;;		_TMR1_WriteTimer
  9519 ;; This function is called by:
  9520 ;;		_TMR1_Initialize
  9521 ;;		_TMR1_ISR
  9522 ;; This function uses a non-reentrant model
  9523 ;;
  9524                           
  9525                           	psect	text57
  9526   003A0A                     __ptext57:
  9527                           	callstack 0
  9528   003A0A                     _TMR1_DefaultInterruptHandler:
  9529                           	callstack 23
  9530                           
  9531                           ;mcc_generated_files/tmr1.c: 188:     TMR1_StopTimer();
  9532                           
  9533                           ;incstack = 0
  9534   003A0A  EC0D  F01E         	call	_TMR1_StopTimer	;wreg free
  9535                           
  9536                           ;mcc_generated_files/tmr1.c: 189:     Vitesse_Moteur_G = 0;
  9537   003A0E  0E00               	movlw	0
  9538   003A10  0101               	movlb	1	; () banked
  9539   003A12  6F3F               	movwf	(_Vitesse_Moteur_G+1)& (0+255),b
  9540   003A14  0E00               	movlw	0
  9541   003A16  6F3E               	movwf	_Vitesse_Moteur_G& (0+255),b
  9542                           
  9543                           ;mcc_generated_files/tmr1.c: 190:     TMR1_WriteTimer(0);
  9544   003A18  0E00               	movlw	0
  9545   003A1A  6E02               	movwf	(TMR1_WriteTimer@timerVal+1)^0,c
  9546   003A1C  0E00               	movlw	0
  9547   003A1E  6E01               	movwf	TMR1_WriteTimer@timerVal^0,c
  9548   003A20  EC21  F01D         	call	_TMR1_WriteTimer	;wreg free
  9549   003A24  0012               	return		;funcret
  9550   003A26                     __end_of_TMR1_DefaultInterruptHandler:
  9551                           	callstack 0
  9552                           
  9553 ;; *************** function _TMR0_ISR *****************
  9554 ;; Defined at:
  9555 ;;		line 135 in file "mcc_generated_files/tmr0.c"
  9556 ;; Parameters:    Size  Location     Type
  9557 ;;		None
  9558 ;; Auto vars:     Size  Location     Type
  9559 ;;		None
  9560 ;; Return value:  Size  Location     Type
  9561 ;;                  1    wreg      void 
  9562 ;; Registers used:
  9563 ;;		wreg, status,2, status,0, pcl, pclath, pclatu, tosl, cstack
  9564 ;; Tracked objects:
  9565 ;;		On entry : 0/0
  9566 ;;		On exit  : 0/0
  9567 ;;		Unchanged: 0/0
  9568 ;; Data sizes:     COMRAM   BANK0   BANK1   BANK2   BANK3   BANK4   BANK5   BANK6   BANK7   BANK8   BANK9  BANK10  BANK1
      +1  BANK12  BANK13  BANK14
  9569 ;;      Params:         0       0       0       0       0       0       0       0       0       0       0       0       
      +0       0       0       0
  9570 ;;      Locals:         0       0       0       0       0       0       0       0       0       0       0       0       
      +0       0       0       0
  9571 ;;      Temps:          0       0       0       0       0       0       0       0       0       0       0       0       
      +0       0       0       0
  9572 ;;      Totals:         0       0       0       0       0       0       0       0       0       0       0       0       
      +0       0       0       0
  9573 ;;Total ram usage:        0 bytes
  9574 ;; Hardware stack levels used: 1
  9575 ;; Hardware stack levels required when called: 1
  9576 ;; This function calls:
  9577 ;;		NULL
  9578 ;;		_TMR0_DefaultInterruptHandler
  9579 ;; This function is called by:
  9580 ;;		_INTERRUPT_InterruptManager
  9581 ;; This function uses a non-reentrant model
  9582 ;;
  9583                           
  9584                           	psect	text58
  9585   003772                     __ptext58:
  9586                           	callstack 0
  9587   003772                     _TMR0_ISR:
  9588                           	callstack 24
  9589                           
  9590                           ;mcc_generated_files/tmr0.c: 138:     PIR0bits.TMR0IF = 0;
  9591                           
  9592                           ;incstack = 0
  9593   003772  010E               	movlb	14	; () banked
  9594   003774  9BCA               	bcf	202,5,b	;volatile
  9595                           
  9596                           ; BSR set to: 14
  9597                           ;mcc_generated_files/tmr0.c: 140:     TMR0H = timer0ReloadVal16bit >> 8;
  9598   003776  0100               	movlb	0	; () banked
  9599   003778  51F7               	movf	(_timer0ReloadVal16bit+1)& (0+255),w,b	;volatile
  9600   00377A  6ED4               	movwf	212,c	;volatile
  9601                           
  9602                           ; BSR set to: 0
  9603                           ;mcc_generated_files/tmr0.c: 141:     TMR0L = (uint8_t) timer0ReloadVal16bit;
  9604   00377C  C0F6  FFD3         	movff	_timer0ReloadVal16bit,4051	;volatile
  9605                           
  9606                           ; BSR set to: 0
  9607                           ;mcc_generated_files/tmr0.c: 143:     if(TMR0_InterruptHandler)
  9608   003780  0101               	movlb	1	; () banked
  9609   003782  5161               	movf	_TMR0_InterruptHandler& (0+255),w,b
  9610   003784  1162               	iorwf	(_TMR0_InterruptHandler+1)& (0+255),w,b
  9611   003786  1163               	iorwf	(_TMR0_InterruptHandler+2)& (0+255),w,b
  9612   003788  B4D8               	btfsc	status,2,c
  9613   00378A  0012               	return	
  9614                           
  9615                           ; BSR set to: 1
  9616                           ;mcc_generated_files/tmr0.c: 144:     {;mcc_generated_files/tmr0.c: 145:         TMR0_In
      +                          terruptHandler();
  9617   00378C  D801               	call	i2u636_48
  9618   00378E  0012               	return	
  9619   003790                     i2u636_48:
  9620   003790  0005               	push	
  9621   003792  6EFA               	movwf	pclath,c
  9622   003794  5161               	movf	_TMR0_InterruptHandler& (0+255),w,b
  9623   003796  6EFD               	movwf	tosl,c
  9624   003798  5162               	movf	(_TMR0_InterruptHandler+1)& (0+255),w,b
  9625   00379A  6EFE               	movwf	tosh,c
  9626   00379C  5163               	movf	(_TMR0_InterruptHandler+2)& (0+255),w,b
  9627   00379E  6EFF               	movwf	tosu,c
  9628   0037A0  50FA               	movf	pclath,w,c
  9629   0037A2  0012               	return		;indir
  9630   0037A4                     __end_of_TMR0_ISR:
  9631                           	callstack 0
  9632                           
  9633 ;; *************** function _TMR0_DefaultInterruptHandler *****************
  9634 ;; Defined at:
  9635 ;;		line 156 in file "mcc_generated_files/tmr0.c"
  9636 ;; Parameters:    Size  Location     Type
  9637 ;;		None
  9638 ;; Auto vars:     Size  Location     Type
  9639 ;;		None
  9640 ;; Return value:  Size  Location     Type
  9641 ;;                  1    wreg      void 
  9642 ;; Registers used:
  9643 ;;		wreg, status,2, status,0
  9644 ;; Tracked objects:
  9645 ;;		On entry : 0/0
  9646 ;;		On exit  : 0/0
  9647 ;;		Unchanged: 0/0
  9648 ;; Data sizes:     COMRAM   BANK0   BANK1   BANK2   BANK3   BANK4   BANK5   BANK6   BANK7   BANK8   BANK9  BANK10  BANK1
      +1  BANK12  BANK13  BANK14
  9649 ;;      Params:         0       0       0       0       0       0       0       0       0       0       0       0       
      +0       0       0       0
  9650 ;;      Locals:         0       0       0       0       0       0       0       0       0       0       0       0       
      +0       0       0       0
  9651 ;;      Temps:          0       0       0       0       0       0       0       0       0       0       0       0       
      +0       0       0       0
  9652 ;;      Totals:         0       0       0       0       0       0       0       0       0       0       0       0       
      +0       0       0       0
  9653 ;;Total ram usage:        0 bytes
  9654 ;; Hardware stack levels used: 1
  9655 ;; This function calls:
  9656 ;;		Nothing
  9657 ;; This function is called by:
  9658 ;;		_TMR0_Initialize
  9659 ;;		_TMR0_ISR
  9660 ;; This function uses a non-reentrant model
  9661 ;;
  9662                           
  9663                           	psect	text59
  9664   003B0E                     __ptext59:
  9665                           	callstack 0
  9666   003B0E                     _TMR0_DefaultInterruptHandler:
  9667                           	callstack 24
  9668                           
  9669                           ;mcc_generated_files/tmr0.c: 159:     millisec += 1;
  9670                           
  9671                           ;incstack = 0
  9672   003B0E  4A50               	infsnz	_millisec^0,f,c
  9673   003B10  2A51               	incf	(_millisec+1)^0,f,c
  9674                           
  9675                           ;mcc_generated_files/tmr0.c: 160:     millisec_32bits += 1;
  9676   003B12  0E01               	movlw	1
  9677   003B14  0101               	movlb	1	; () banked
  9678   003B16  2728               	addwf	_millisec_32bits& (0+255),f,b
  9679   003B18  0E00               	movlw	0
  9680   003B1A  2329               	addwfc	(_millisec_32bits+1)& (0+255),f,b
  9681   003B1C  232A               	addwfc	(_millisec_32bits+2)& (0+255),f,b
  9682   003B1E  232B               	addwfc	(_millisec_32bits+3)& (0+255),f,b
  9683                           
  9684                           ; BSR set to: 1
  9685   003B20  0012               	return		;funcret
  9686   003B22                     __end_of_TMR0_DefaultInterruptHandler:
  9687                           	callstack 0
  9688                           
  9689 ;; *************** function _PIN_MANAGER_IOC *****************
  9690 ;; Defined at:
  9691 ;;		line 182 in file "mcc_generated_files/pin_manager.c"
  9692 ;; Parameters:    Size  Location     Type
  9693 ;;		None
  9694 ;; Auto vars:     Size  Location     Type
  9695 ;;		None
  9696 ;; Return value:  Size  Location     Type
  9697 ;;                  1    wreg      void 
  9698 ;; Registers used:
  9699 ;;		wreg, status,2, status,0, pcl, pclath, pclatu, tosl, cstack
  9700 ;; Tracked objects:
  9701 ;;		On entry : 0/0
  9702 ;;		On exit  : 0/0
  9703 ;;		Unchanged: 0/0
  9704 ;; Data sizes:     COMRAM   BANK0   BANK1   BANK2   BANK3   BANK4   BANK5   BANK6   BANK7   BANK8   BANK9  BANK10  BANK1
      +1  BANK12  BANK13  BANK14
  9705 ;;      Params:         0       0       0       0       0       0       0       0       0       0       0       0       
      +0       0       0       0
  9706 ;;      Locals:         0       0       0       0       0       0       0       0       0       0       0       0       
      +0       0       0       0
  9707 ;;      Temps:          0       0       0       0       0       0       0       0       0       0       0       0       
      +0       0       0       0
  9708 ;;      Totals:         0       0       0       0       0       0       0       0       0       0       0       0       
      +0       0       0       0
  9709 ;;Total ram usage:        0 bytes
  9710 ;; Hardware stack levels used: 1
  9711 ;; Hardware stack levels required when called: 3
  9712 ;; This function calls:
  9713 ;;		_IOCAF5_ISR
  9714 ;;		_IOCAF6_ISR
  9715 ;;		_IOCAF7_ISR
  9716 ;;		_IOCCF0_ISR
  9717 ;; This function is called by:
  9718 ;;		_INTERRUPT_InterruptManager
  9719 ;; This function uses a non-reentrant model
  9720 ;;
  9721                           
  9722                           	psect	text60
  9723   0038CA                     __ptext60:
  9724                           	callstack 0
  9725   0038CA                     _PIN_MANAGER_IOC:
  9726                           	callstack 22
  9727                           
  9728                           ;mcc_generated_files/pin_manager.c: 185:     if(IOCAFbits.IOCAF5 == 1)
  9729                           
  9730                           ; BSR set to: 1
  9731                           ;incstack = 0
  9732   0038CA  010F               	movlb	15	; () banked
  9733   0038CC  BB0A               	btfsc	10,5,b	;volatile
  9734                           
  9735                           ; BSR set to: 15
  9736                           ;mcc_generated_files/pin_manager.c: 186:     {;mcc_generated_files/pin_manager.c: 187:  
      +                                 IOCAF5_ISR();
  9737   0038CE  EC28  F01C         	call	_IOCAF5_ISR	;wreg free
  9738                           
  9739                           ;mcc_generated_files/pin_manager.c: 190:     if(IOCAFbits.IOCAF6 == 1)
  9740   0038D2  010F               	movlb	15	; () banked
  9741   0038D4  BD0A               	btfsc	10,6,b	;volatile
  9742                           
  9743                           ; BSR set to: 15
  9744                           ;mcc_generated_files/pin_manager.c: 191:     {;mcc_generated_files/pin_manager.c: 192:  
      +                                 IOCAF6_ISR();
  9745   0038D6  EC13  F01C         	call	_IOCAF6_ISR	;wreg free
  9746                           
  9747                           ;mcc_generated_files/pin_manager.c: 195:     if(IOCAFbits.IOCAF7 == 1)
  9748   0038DA  010F               	movlb	15	; () banked
  9749   0038DC  BF0A               	btfsc	10,7,b	;volatile
  9750                           
  9751                           ; BSR set to: 15
  9752                           ;mcc_generated_files/pin_manager.c: 196:     {;mcc_generated_files/pin_manager.c: 197:  
      +                                 IOCAF7_ISR();
  9753   0038DE  ECFE  F01B         	call	_IOCAF7_ISR	;wreg free
  9754                           
  9755                           ;mcc_generated_files/pin_manager.c: 200:     if(IOCCFbits.IOCCF0 == 1)
  9756   0038E2  010F               	movlb	15	; () banked
  9757   0038E4  A11A               	btfss	26,0,b	;volatile
  9758   0038E6  0012               	return	
  9759                           
  9760                           ; BSR set to: 15
  9761                           ;mcc_generated_files/pin_manager.c: 201:     {;mcc_generated_files/pin_manager.c: 202:  
      +                                 IOCCF0_ISR();
  9762   0038E8  ECE9  F01B         	call	_IOCCF0_ISR	;wreg free
  9763   0038EC  0012               	return		;funcret
  9764   0038EE                     __end_of_PIN_MANAGER_IOC:
  9765                           	callstack 0
  9766                           
  9767 ;; *************** function _IOCCF0_ISR *****************
  9768 ;; Defined at:
  9769 ;;		line 338 in file "mcc_generated_files/pin_manager.c"
  9770 ;; Parameters:    Size  Location     Type
  9771 ;;		None
  9772 ;; Auto vars:     Size  Location     Type
  9773 ;;		None
  9774 ;; Return value:  Size  Location     Type
  9775 ;;                  1    wreg      void 
  9776 ;; Registers used:
  9777 ;;		wreg, status,2, status,0, pcl, pclath, pclatu, tosl, cstack
  9778 ;; Tracked objects:
  9779 ;;		On entry : 0/0
  9780 ;;		On exit  : 0/0
  9781 ;;		Unchanged: 0/0
  9782 ;; Data sizes:     COMRAM   BANK0   BANK1   BANK2   BANK3   BANK4   BANK5   BANK6   BANK7   BANK8   BANK9  BANK10  BANK1
      +1  BANK12  BANK13  BANK14
  9783 ;;      Params:         0       0       0       0       0       0       0       0       0       0       0       0       
      +0       0       0       0
  9784 ;;      Locals:         0       0       0       0       0       0       0       0       0       0       0       0       
      +0       0       0       0
  9785 ;;      Temps:          0       0       0       0       0       0       0       0       0       0       0       0       
      +0       0       0       0
  9786 ;;      Totals:         0       0       0       0       0       0       0       0       0       0       0       0       
      +0       0       0       0
  9787 ;;Total ram usage:        0 bytes
  9788 ;; Hardware stack levels used: 1
  9789 ;; Hardware stack levels required when called: 2
  9790 ;; This function calls:
  9791 ;;		NULL
  9792 ;;		_IOCCF0_DefaultInterruptHandler
  9793 ;; This function is called by:
  9794 ;;		_PIN_MANAGER_IOC
  9795 ;; This function uses a non-reentrant model
  9796 ;;
  9797                           
  9798                           	psect	text61
  9799   0037D2                     __ptext61:
  9800                           	callstack 0
  9801   0037D2                     _IOCCF0_ISR:
  9802                           	callstack 22
  9803                           
  9804                           ;mcc_generated_files/pin_manager.c: 343:     if(IOCCF0_InterruptHandler)
  9805                           
  9806                           ;incstack = 0
  9807   0037D2  0101               	movlb	1	; () banked
  9808   0037D4  5164               	movf	_IOCCF0_InterruptHandler& (0+255),w,b
  9809   0037D6  1165               	iorwf	(_IOCCF0_InterruptHandler+1)& (0+255),w,b
  9810   0037D8  1166               	iorwf	(_IOCCF0_InterruptHandler+2)& (0+255),w,b
  9811   0037DA  B4D8               	btfsc	status,2,c
  9812   0037DC  D00C               	goto	i2u604_49
  9813                           
  9814                           ; BSR set to: 1
  9815                           ;mcc_generated_files/pin_manager.c: 344:     {;mcc_generated_files/pin_manager.c: 345:  
      +                                 IOCCF0_InterruptHandler();
  9816   0037DE  D801               	call	i2u604_48
  9817   0037E0  D00A               	goto	i2u604_49
  9818   0037E2                     i2u604_48:
  9819   0037E2  0005               	push	
  9820   0037E4  6EFA               	movwf	pclath,c
  9821   0037E6  5164               	movf	_IOCCF0_InterruptHandler& (0+255),w,b
  9822   0037E8  6EFD               	movwf	tosl,c
  9823   0037EA  5165               	movf	(_IOCCF0_InterruptHandler+1)& (0+255),w,b
  9824   0037EC  6EFE               	movwf	tosh,c
  9825   0037EE  5166               	movf	(_IOCCF0_InterruptHandler+2)& (0+255),w,b
  9826   0037F0  6EFF               	movwf	tosu,c
  9827   0037F2  50FA               	movf	pclath,w,c
  9828   0037F4  0012               	return		;indir
  9829   0037F6                     i2u604_49:
  9830                           
  9831                           ;mcc_generated_files/pin_manager.c: 347:     IOCCFbits.IOCCF0 = 0;
  9832   0037F6  010F               	movlb	15	; () banked
  9833   0037F8  911A               	bcf	26,0,b	;volatile
  9834                           
  9835                           ; BSR set to: 15
  9836   0037FA  0012               	return		;funcret
  9837   0037FC                     __end_of_IOCCF0_ISR:
  9838                           	callstack 0
  9839                           
  9840 ;; *************** function _IOCCF0_DefaultInterruptHandler *****************
  9841 ;; Defined at:
  9842 ;;		line 360 in file "mcc_generated_files/pin_manager.c"
  9843 ;; Parameters:    Size  Location     Type
  9844 ;;		None
  9845 ;; Auto vars:     Size  Location     Type
  9846 ;;		None
  9847 ;; Return value:  Size  Location     Type
  9848 ;;                  1    wreg      void 
  9849 ;; Registers used:
  9850 ;;		wreg, status,2, status,0, cstack
  9851 ;; Tracked objects:
  9852 ;;		On entry : 0/0
  9853 ;;		On exit  : 0/0
  9854 ;;		Unchanged: 0/0
  9855 ;; Data sizes:     COMRAM   BANK0   BANK1   BANK2   BANK3   BANK4   BANK5   BANK6   BANK7   BANK8   BANK9  BANK10  BANK1
      +1  BANK12  BANK13  BANK14
  9856 ;;      Params:         0       0       0       0       0       0       0       0       0       0       0       0       
      +0       0       0       0
  9857 ;;      Locals:         0       0       0       0       0       0       0       0       0       0       0       0       
      +0       0       0       0
  9858 ;;      Temps:          0       0       0       0       0       0       0       0       0       0       0       0       
      +0       0       0       0
  9859 ;;      Totals:         0       0       0       0       0       0       0       0       0       0       0       0       
      +0       0       0       0
  9860 ;;Total ram usage:        0 bytes
  9861 ;; Hardware stack levels used: 1
  9862 ;; Hardware stack levels required when called: 1
  9863 ;; This function calls:
  9864 ;;		_TMR3_ReadTimer
  9865 ;;		_TMR3_StartTimer
  9866 ;;		_TMR3_StopTimer
  9867 ;;		_TMR3_WriteTimer
  9868 ;;		___aldiv
  9869 ;; This function is called by:
  9870 ;;		_PIN_MANAGER_Initialize
  9871 ;;		_IOCCF0_ISR
  9872 ;; This function uses a non-reentrant model
  9873 ;;
  9874                           
  9875                           	psect	text62
  9876   0033A4                     __ptext62:
  9877                           	callstack 0
  9878   0033A4                     _IOCCF0_DefaultInterruptHandler:
  9879                           	callstack 22
  9880                           
  9881                           ;mcc_generated_files/pin_manager.c: 363:     TMR3_StopTimer();
  9882                           
  9883                           ; BSR set to: 15
  9884                           ;incstack = 0
  9885   0033A4  EC09  F01E         	call	_TMR3_StopTimer	;wreg free
  9886                           
  9887                           ;mcc_generated_files/pin_manager.c: 365:     Vitesse_Moteur_D = 87000 /TMR3_ReadTimer();
  9888   0033A8  0ED8               	movlw	216
  9889   0033AA  6E09               	movwf	___aldiv@dividend^0,c
  9890   0033AC  0E53               	movlw	83
  9891   0033AE  6E0A               	movwf	(___aldiv@dividend+1)^0,c
  9892   0033B0  0E01               	movlw	1
  9893   0033B2  6E0B               	movwf	(___aldiv@dividend+2)^0,c
  9894   0033B4  0E00               	movlw	0
  9895   0033B6  6E0C               	movwf	(___aldiv@dividend+3)^0,c
  9896   0033B8  ECBA  F01C         	call	_TMR3_ReadTimer	;wreg free
  9897   0033BC  C001  F00D         	movff	?_TMR3_ReadTimer,___aldiv@divisor
  9898   0033C0  C002  F00E         	movff	?_TMR3_ReadTimer+1,___aldiv@divisor+1
  9899   0033C4  6A0F               	clrf	(___aldiv@divisor+2)^0,c
  9900   0033C6  6A10               	clrf	(___aldiv@divisor+3)^0,c
  9901   0033C8  EC76  F017         	call	___aldiv	;wreg free
  9902   0033CC  C009  F13C         	movff	?___aldiv,_Vitesse_Moteur_D
  9903   0033D0  C00A  F13D         	movff	?___aldiv+1,_Vitesse_Moteur_D+1
  9904                           
  9905                           ;mcc_generated_files/pin_manager.c: 366:     if (PORTDbits.RD0 == 1)
  9906   0033D4  A090               	btfss	144,0,c	;volatile
  9907   0033D6  D005               	goto	i2l6155
  9908                           
  9909                           ;mcc_generated_files/pin_manager.c: 367:     {;mcc_generated_files/pin_manager.c: 368:  
      +                                 Vitesse_Moteur_D = -Vitesse_Moteur_D;
  9910   0033D8  0101               	movlb	1	; () banked
  9911   0033DA  6D3C               	negf	_Vitesse_Moteur_D& (0+255),b
  9912   0033DC  1F3D               	comf	(_Vitesse_Moteur_D+1)& (0+255),f,b
  9913   0033DE  B0D8               	btfsc	status,0,c
  9914   0033E0  2B3D               	incf	(_Vitesse_Moteur_D+1)& (0+255),f,b
  9915   0033E2                     i2l6155:
  9916                           
  9917                           ;mcc_generated_files/pin_manager.c: 374:     TMR3_WriteTimer(0);
  9918   0033E2  0E00               	movlw	0
  9919   0033E4  6E02               	movwf	(TMR3_WriteTimer@timerVal+1)^0,c
  9920   0033E6  0E00               	movlw	0
  9921   0033E8  6E01               	movwf	TMR3_WriteTimer@timerVal^0,c
  9922   0033EA  EC13  F01D         	call	_TMR3_WriteTimer	;wreg free
  9923                           
  9924                           ;mcc_generated_files/pin_manager.c: 375:     TMR3_StartTimer();
  9925   0033EE  EC0B  F01E         	call	_TMR3_StartTimer	;wreg free
  9926   0033F2  0012               	return		;funcret
  9927   0033F4                     __end_of_IOCCF0_DefaultInterruptHandler:
  9928                           	callstack 0
  9929                           
  9930 ;; *************** function _TMR3_WriteTimer *****************
  9931 ;; Defined at:
  9932 ;;		line 129 in file "mcc_generated_files/tmr3.c"
  9933 ;; Parameters:    Size  Location     Type
  9934 ;;  timerVal        2    0[COMRAM] unsigned short 
  9935 ;; Auto vars:     Size  Location     Type
  9936 ;;		None
  9937 ;; Return value:  Size  Location     Type
  9938 ;;                  1    wreg      void 
  9939 ;; Registers used:
  9940 ;;		wreg, status,2
  9941 ;; Tracked objects:
  9942 ;;		On entry : 0/0
  9943 ;;		On exit  : 0/0
  9944 ;;		Unchanged: 0/0
  9945 ;; Data sizes:     COMRAM   BANK0   BANK1   BANK2   BANK3   BANK4   BANK5   BANK6   BANK7   BANK8   BANK9  BANK10  BANK1
      +1  BANK12  BANK13  BANK14
  9946 ;;      Params:         2       0       0       0       0       0       0       0       0       0       0       0       
      +0       0       0       0
  9947 ;;      Locals:         0       0       0       0       0       0       0       0       0       0       0       0       
      +0       0       0       0
  9948 ;;      Temps:          0       0       0       0       0       0       0       0       0       0       0       0       
      +0       0       0       0
  9949 ;;      Totals:         2       0       0       0       0       0       0       0       0       0       0       0       
      +0       0       0       0
  9950 ;;Total ram usage:        2 bytes
  9951 ;; Hardware stack levels used: 1
  9952 ;; This function calls:
  9953 ;;		Nothing
  9954 ;; This function is called by:
  9955 ;;		_IOCCF0_DefaultInterruptHandler
  9956 ;;		_TMR3_ISR
  9957 ;;		_TMR3_DefaultInterruptHandler
  9958 ;;		_TMR3_Reload
  9959 ;; This function uses a non-reentrant model
  9960 ;;
  9961                           
  9962                           	psect	text63
  9963   003A26                     __ptext63:
  9964                           	callstack 0
  9965   003A26                     _TMR3_WriteTimer:
  9966                           	callstack 24
  9967                           
  9968                           ;mcc_generated_files/tmr3.c: 129: void TMR3_WriteTimer(uint16_t timerVal);mcc_generated_
      +                          files/tmr3.c: 130: {;mcc_generated_files/tmr3.c: 131:     if (T3CONbits.nT3SYNC == 1)
  9969                           
  9970                           ;incstack = 0
  9971   003A26  A4C9               	btfss	201,2,c	;volatile
  9972   003A28  D007               	goto	i2l5849
  9973                           
  9974                           ;mcc_generated_files/tmr3.c: 132:     {;mcc_generated_files/tmr3.c: 134:         T3CONbi
      +                          ts.TMR3ON = 0;
  9975   003A2A  90C9               	bcf	201,0,c	;volatile
  9976                           
  9977                           ;mcc_generated_files/tmr3.c: 137:         TMR3H = (timerVal >> 8);
  9978   003A2C  5002               	movf	(TMR3_WriteTimer@timerVal+1)^0,w,c
  9979   003A2E  6EC8               	movwf	200,c	;volatile
  9980                           
  9981                           ;mcc_generated_files/tmr3.c: 138:         TMR3L = timerVal;
  9982   003A30  C001  FFC7         	movff	TMR3_WriteTimer@timerVal,4039	;volatile
  9983                           
  9984                           ;mcc_generated_files/tmr3.c: 141:         T3CONbits.TMR3ON =1;
  9985   003A34  80C9               	bsf	201,0,c	;volatile
  9986                           
  9987                           ;mcc_generated_files/tmr3.c: 142:     }
  9988   003A36  0012               	return	
  9989   003A38                     i2l5849:
  9990                           
  9991                           ;mcc_generated_files/tmr3.c: 144:     {;mcc_generated_files/tmr3.c: 146:         TMR3H =
      +                           (timerVal >> 8);
  9992   003A38  5002               	movf	(TMR3_WriteTimer@timerVal+1)^0,w,c
  9993   003A3A  6EC8               	movwf	200,c	;volatile
  9994                           
  9995                           ;mcc_generated_files/tmr3.c: 147:         TMR3L = timerVal;
  9996   003A3C  C001  FFC7         	movff	TMR3_WriteTimer@timerVal,4039	;volatile
  9997   003A40  0012               	return		;funcret
  9998   003A42                     __end_of_TMR3_WriteTimer:
  9999                           	callstack 0
 10000                           
 10001 ;; *************** function _TMR3_StopTimer *****************
 10002 ;; Defined at:
 10003 ;;		line 107 in file "mcc_generated_files/tmr3.c"
 10004 ;; Parameters:    Size  Location     Type
 10005 ;;		None
 10006 ;; Auto vars:     Size  Location     Type
 10007 ;;		None
 10008 ;; Return value:  Size  Location     Type
 10009 ;;                  1    wreg      void 
 10010 ;; Registers used:
 10011 ;;		None
 10012 ;; Tracked objects:
 10013 ;;		On entry : 0/0
 10014 ;;		On exit  : 0/0
 10015 ;;		Unchanged: 0/0
 10016 ;; Data sizes:     COMRAM   BANK0   BANK1   BANK2   BANK3   BANK4   BANK5   BANK6   BANK7   BANK8   BANK9  BANK10  BANK1
      +1  BANK12  BANK13  BANK14
 10017 ;;      Params:         0       0       0       0       0       0       0       0       0       0       0       0       
      +0       0       0       0
 10018 ;;      Locals:         0       0       0       0       0       0       0       0       0       0       0       0       
      +0       0       0       0
 10019 ;;      Temps:          0       0       0       0       0       0       0       0       0       0       0       0       
      +0       0       0       0
 10020 ;;      Totals:         0       0       0       0       0       0       0       0       0       0       0       0       
      +0       0       0       0
 10021 ;;Total ram usage:        0 bytes
 10022 ;; Hardware stack levels used: 1
 10023 ;; This function calls:
 10024 ;;		Nothing
 10025 ;; This function is called by:
 10026 ;;		_IOCCF0_DefaultInterruptHandler
 10027 ;;		_TMR3_DefaultInterruptHandler
 10028 ;; This function uses a non-reentrant model
 10029 ;;
 10030                           
 10031                           	psect	text64
 10032   003C12                     __ptext64:
 10033                           	callstack 0
 10034   003C12                     _TMR3_StopTimer:
 10035                           	callstack 23
 10036                           
 10037                           ;mcc_generated_files/tmr3.c: 110:     T3CONbits.TMR3ON = 0;
 10038                           
 10039                           ;incstack = 0
 10040   003C12  90C9               	bcf	201,0,c	;volatile
 10041   003C14  0012               	return		;funcret
 10042   003C16                     __end_of_TMR3_StopTimer:
 10043                           	callstack 0
 10044                           
 10045 ;; *************** function _TMR3_StartTimer *****************
 10046 ;; Defined at:
 10047 ;;		line 101 in file "mcc_generated_files/tmr3.c"
 10048 ;; Parameters:    Size  Location     Type
 10049 ;;		None
 10050 ;; Auto vars:     Size  Location     Type
 10051 ;;		None
 10052 ;; Return value:  Size  Location     Type
 10053 ;;                  1    wreg      void 
 10054 ;; Registers used:
 10055 ;;		None
 10056 ;; Tracked objects:
 10057 ;;		On entry : 0/0
 10058 ;;		On exit  : 0/0
 10059 ;;		Unchanged: 0/0
 10060 ;; Data sizes:     COMRAM   BANK0   BANK1   BANK2   BANK3   BANK4   BANK5   BANK6   BANK7   BANK8   BANK9  BANK10  BANK1
      +1  BANK12  BANK13  BANK14
 10061 ;;      Params:         0       0       0       0       0       0       0       0       0       0       0       0       
      +0       0       0       0
 10062 ;;      Locals:         0       0       0       0       0       0       0       0       0       0       0       0       
      +0       0       0       0
 10063 ;;      Temps:          0       0       0       0       0       0       0       0       0       0       0       0       
      +0       0       0       0
 10064 ;;      Totals:         0       0       0       0       0       0       0       0       0       0       0       0       
      +0       0       0       0
 10065 ;;Total ram usage:        0 bytes
 10066 ;; Hardware stack levels used: 1
 10067 ;; This function calls:
 10068 ;;		Nothing
 10069 ;; This function is called by:
 10070 ;;		_IOCCF0_DefaultInterruptHandler
 10071 ;; This function uses a non-reentrant model
 10072 ;;
 10073                           
 10074                           	psect	text65
 10075   003C16                     __ptext65:
 10076                           	callstack 0
 10077   003C16                     _TMR3_StartTimer:
 10078                           	callstack 22
 10079                           
 10080                           ;mcc_generated_files/tmr3.c: 104:     T3CONbits.TMR3ON = 1;
 10081                           
 10082                           ;incstack = 0
 10083   003C16  80C9               	bsf	201,0,c	;volatile
 10084   003C18  0012               	return		;funcret
 10085   003C1A                     __end_of_TMR3_StartTimer:
 10086                           	callstack 0
 10087                           
 10088 ;; *************** function _TMR3_ReadTimer *****************
 10089 ;; Defined at:
 10090 ;;		line 113 in file "mcc_generated_files/tmr3.c"
 10091 ;; Parameters:    Size  Location     Type
 10092 ;;		None
 10093 ;; Auto vars:     Size  Location     Type
 10094 ;;  readVal         2    4[COMRAM] unsigned short 
 10095 ;;  readValLow      1    7[COMRAM] unsigned char 
 10096 ;;  readValHigh     1    6[COMRAM] unsigned char 
 10097 ;; Return value:  Size  Location     Type
 10098 ;;                  2    0[COMRAM] unsigned short 
 10099 ;; Registers used:
 10100 ;;		wreg, status,2
 10101 ;; Tracked objects:
 10102 ;;		On entry : 0/0
 10103 ;;		On exit  : 0/0
 10104 ;;		Unchanged: 0/0
 10105 ;; Data sizes:     COMRAM   BANK0   BANK1   BANK2   BANK3   BANK4   BANK5   BANK6   BANK7   BANK8   BANK9  BANK10  BANK1
      +1  BANK12  BANK13  BANK14
 10106 ;;      Params:         2       0       0       0       0       0       0       0       0       0       0       0       
      +0       0       0       0
 10107 ;;      Locals:         4       0       0       0       0       0       0       0       0       0       0       0       
      +0       0       0       0
 10108 ;;      Temps:          2       0       0       0       0       0       0       0       0       0       0       0       
      +0       0       0       0
 10109 ;;      Totals:         8       0       0       0       0       0       0       0       0       0       0       0       
      +0       0       0       0
 10110 ;;Total ram usage:        8 bytes
 10111 ;; Hardware stack levels used: 1
 10112 ;; This function calls:
 10113 ;;		Nothing
 10114 ;; This function is called by:
 10115 ;;		_IOCCF0_DefaultInterruptHandler
 10116 ;; This function uses a non-reentrant model
 10117 ;;
 10118                           
 10119                           	psect	text66
 10120   003974                     __ptext66:
 10121                           	callstack 0
 10122   003974                     _TMR3_ReadTimer:
 10123                           	callstack 22
 10124                           
 10125                           ;mcc_generated_files/tmr3.c: 115:     uint16_t readVal;;mcc_generated_files/tmr3.c: 116:
      +                               uint8_t readValHigh;;mcc_generated_files/tmr3.c: 117:     uint8_t readValLow;;mcc_g
      +                          enerated_files/tmr3.c: 119:     T3CONbits.T3RD16 = 1;
 10126                           
 10127                           ;incstack = 0
 10128   003974  82C9               	bsf	201,1,c	;volatile
 10129                           
 10130                           ;mcc_generated_files/tmr3.c: 121:     readValLow = TMR3L;
 10131   003976  CFC7 F008          	movff	4039,TMR3_ReadTimer@readValLow	;volatile
 10132                           
 10133                           ;mcc_generated_files/tmr3.c: 122:     readValHigh = TMR3H;
 10134   00397A  CFC8 F007          	movff	4040,TMR3_ReadTimer@readValHigh	;volatile
 10135                           
 10136                           ;mcc_generated_files/tmr3.c: 124:     readVal = ((uint16_t)readValHigh << 8) | readValLo
      +                          w;
 10137   00397E  5007               	movf	TMR3_ReadTimer@readValHigh^0,w,c
 10138   003980  6E03               	movwf	??_TMR3_ReadTimer^0,c
 10139   003982  5008               	movf	TMR3_ReadTimer@readValLow^0,w,c
 10140   003984  6E05               	movwf	TMR3_ReadTimer@readVal^0,c
 10141   003986  C003  F006         	movff	??_TMR3_ReadTimer,TMR3_ReadTimer@readVal+1
 10142                           
 10143                           ;mcc_generated_files/tmr3.c: 126:     return readVal;
 10144   00398A  C005  F001         	movff	TMR3_ReadTimer@readVal,?_TMR3_ReadTimer
 10145   00398E  C006  F002         	movff	TMR3_ReadTimer@readVal+1,?_TMR3_ReadTimer+1
 10146   003992  0012               	return		;funcret
 10147   003994                     __end_of_TMR3_ReadTimer:
 10148                           	callstack 0
 10149                           
 10150 ;; *************** function _IOCAF7_ISR *****************
 10151 ;; Defined at:
 10152 ;;		line 308 in file "mcc_generated_files/pin_manager.c"
 10153 ;; Parameters:    Size  Location     Type
 10154 ;;		None
 10155 ;; Auto vars:     Size  Location     Type
 10156 ;;		None
 10157 ;; Return value:  Size  Location     Type
 10158 ;;                  1    wreg      void 
 10159 ;; Registers used:
 10160 ;;		wreg, status,2, status,0, pcl, pclath, pclatu, tosl, cstack
 10161 ;; Tracked objects:
 10162 ;;		On entry : 0/0
 10163 ;;		On exit  : 0/0
 10164 ;;		Unchanged: 0/0
 10165 ;; Data sizes:     COMRAM   BANK0   BANK1   BANK2   BANK3   BANK4   BANK5   BANK6   BANK7   BANK8   BANK9  BANK10  BANK1
      +1  BANK12  BANK13  BANK14
 10166 ;;      Params:         0       0       0       0       0       0       0       0       0       0       0       0       
      +0       0       0       0
 10167 ;;      Locals:         0       0       0       0       0       0       0       0       0       0       0       0       
      +0       0       0       0
 10168 ;;      Temps:          0       0       0       0       0       0       0       0       0       0       0       0       
      +0       0       0       0
 10169 ;;      Totals:         0       0       0       0       0       0       0       0       0       0       0       0       
      +0       0       0       0
 10170 ;;Total ram usage:        0 bytes
 10171 ;; Hardware stack levels used: 1
 10172 ;; Hardware stack levels required when called: 1
 10173 ;; This function calls:
 10174 ;;		NULL
 10175 ;;		_IOCAF7_DefaultInterruptHandler
 10176 ;; This function is called by:
 10177 ;;		_PIN_MANAGER_IOC
 10178 ;; This function uses a non-reentrant model
 10179 ;;
 10180                           
 10181                           	psect	text67
 10182   0037FC                     __ptext67:
 10183                           	callstack 0
 10184   0037FC                     _IOCAF7_ISR:
 10185                           	callstack 23
 10186                           
 10187                           ;mcc_generated_files/pin_manager.c: 313:     if(IOCAF7_InterruptHandler)
 10188                           
 10189                           ;incstack = 0
 10190   0037FC  0101               	movlb	1	; () banked
 10191   0037FE  5167               	movf	_IOCAF7_InterruptHandler& (0+255),w,b
 10192   003800  1168               	iorwf	(_IOCAF7_InterruptHandler+1)& (0+255),w,b
 10193   003802  1169               	iorwf	(_IOCAF7_InterruptHandler+2)& (0+255),w,b
 10194   003804  B4D8               	btfsc	status,2,c
 10195   003806  D00C               	goto	i2u602_49
 10196                           
 10197                           ; BSR set to: 1
 10198                           ;mcc_generated_files/pin_manager.c: 314:     {;mcc_generated_files/pin_manager.c: 315:  
      +                                 IOCAF7_InterruptHandler();
 10199   003808  D801               	call	i2u602_48
 10200   00380A  D00A               	goto	i2u602_49
 10201   00380C                     i2u602_48:
 10202   00380C  0005               	push	
 10203   00380E  6EFA               	movwf	pclath,c
 10204   003810  5167               	movf	_IOCAF7_InterruptHandler& (0+255),w,b
 10205   003812  6EFD               	movwf	tosl,c
 10206   003814  5168               	movf	(_IOCAF7_InterruptHandler+1)& (0+255),w,b
 10207   003816  6EFE               	movwf	tosh,c
 10208   003818  5169               	movf	(_IOCAF7_InterruptHandler+2)& (0+255),w,b
 10209   00381A  6EFF               	movwf	tosu,c
 10210   00381C  50FA               	movf	pclath,w,c
 10211   00381E  0012               	return		;indir
 10212   003820                     i2u602_49:
 10213                           
 10214                           ;mcc_generated_files/pin_manager.c: 317:     IOCAFbits.IOCAF7 = 0;
 10215   003820  010F               	movlb	15	; () banked
 10216   003822  9F0A               	bcf	10,7,b	;volatile
 10217                           
 10218                           ; BSR set to: 15
 10219   003824  0012               	return		;funcret
 10220   003826                     __end_of_IOCAF7_ISR:
 10221                           	callstack 0
 10222                           
 10223 ;; *************** function _IOCAF7_DefaultInterruptHandler *****************
 10224 ;; Defined at:
 10225 ;;		line 330 in file "mcc_generated_files/pin_manager.c"
 10226 ;; Parameters:    Size  Location     Type
 10227 ;;		None
 10228 ;; Auto vars:     Size  Location     Type
 10229 ;;		None
 10230 ;; Return value:  Size  Location     Type
 10231 ;;                  1    wreg      void 
 10232 ;; Registers used:
 10233 ;;		None
 10234 ;; Tracked objects:
 10235 ;;		On entry : 0/0
 10236 ;;		On exit  : 0/0
 10237 ;;		Unchanged: 0/0
 10238 ;; Data sizes:     COMRAM   BANK0   BANK1   BANK2   BANK3   BANK4   BANK5   BANK6   BANK7   BANK8   BANK9  BANK10  BANK1
      +1  BANK12  BANK13  BANK14
 10239 ;;      Params:         0       0       0       0       0       0       0       0       0       0       0       0       
      +0       0       0       0
 10240 ;;      Locals:         0       0       0       0       0       0       0       0       0       0       0       0       
      +0       0       0       0
 10241 ;;      Temps:          0       0       0       0       0       0       0       0       0       0       0       0       
      +0       0       0       0
 10242 ;;      Totals:         0       0       0       0       0       0       0       0       0       0       0       0       
      +0       0       0       0
 10243 ;;Total ram usage:        0 bytes
 10244 ;; Hardware stack levels used: 1
 10245 ;; This function calls:
 10246 ;;		Nothing
 10247 ;; This function is called by:
 10248 ;;		_PIN_MANAGER_Initialize
 10249 ;;		_IOCAF7_ISR
 10250 ;; This function uses a non-reentrant model
 10251 ;;
 10252                           
 10253                           	psect	text68
 10254   003C22                     __ptext68:
 10255                           	callstack 0
 10256   003C22                     _IOCAF7_DefaultInterruptHandler:
 10257                           	callstack 23
 10258                           
 10259                           ; BSR set to: 15
 10260                           ;incstack = 0
 10261   003C22  0012               	return		;funcret
 10262   003C24                     __end_of_IOCAF7_DefaultInterruptHandler:
 10263                           	callstack 0
 10264                           
 10265 ;; *************** function _IOCAF6_ISR *****************
 10266 ;; Defined at:
 10267 ;;		line 253 in file "mcc_generated_files/pin_manager.c"
 10268 ;; Parameters:    Size  Location     Type
 10269 ;;		None
 10270 ;; Auto vars:     Size  Location     Type
 10271 ;;		None
 10272 ;; Return value:  Size  Location     Type
 10273 ;;                  1    wreg      void 
 10274 ;; Registers used:
 10275 ;;		wreg, status,2, status,0, pcl, pclath, pclatu, tosl, cstack
 10276 ;; Tracked objects:
 10277 ;;		On entry : 0/0
 10278 ;;		On exit  : 0/0
 10279 ;;		Unchanged: 0/0
 10280 ;; Data sizes:     COMRAM   BANK0   BANK1   BANK2   BANK3   BANK4   BANK5   BANK6   BANK7   BANK8   BANK9  BANK10  BANK1
      +1  BANK12  BANK13  BANK14
 10281 ;;      Params:         0       0       0       0       0       0       0       0       0       0       0       0       
      +0       0       0       0
 10282 ;;      Locals:         0       0       0       0       0       0       0       0       0       0       0       0       
      +0       0       0       0
 10283 ;;      Temps:          0       0       0       0       0       0       0       0       0       0       0       0       
      +0       0       0       0
 10284 ;;      Totals:         0       0       0       0       0       0       0       0       0       0       0       0       
      +0       0       0       0
 10285 ;;Total ram usage:        0 bytes
 10286 ;; Hardware stack levels used: 1
 10287 ;; Hardware stack levels required when called: 1
 10288 ;; This function calls:
 10289 ;;		NULL
 10290 ;;		_IOCAF6_DefaultInterruptHandler
 10291 ;; This function is called by:
 10292 ;;		_PIN_MANAGER_IOC
 10293 ;; This function uses a non-reentrant model
 10294 ;;
 10295                           
 10296                           	psect	text69
 10297   003826                     __ptext69:
 10298                           	callstack 0
 10299   003826                     _IOCAF6_ISR:
 10300                           	callstack 23
 10301                           
 10302                           ;mcc_generated_files/pin_manager.c: 258:     if(IOCAF6_InterruptHandler)
 10303                           
 10304                           ;incstack = 0
 10305   003826  0101               	movlb	1	; () banked
 10306   003828  516A               	movf	_IOCAF6_InterruptHandler& (0+255),w,b
 10307   00382A  116B               	iorwf	(_IOCAF6_InterruptHandler+1)& (0+255),w,b
 10308   00382C  116C               	iorwf	(_IOCAF6_InterruptHandler+2)& (0+255),w,b
 10309   00382E  B4D8               	btfsc	status,2,c
 10310   003830  D00C               	goto	i2u600_49
 10311                           
 10312                           ; BSR set to: 1
 10313                           ;mcc_generated_files/pin_manager.c: 259:     {;mcc_generated_files/pin_manager.c: 260:  
      +                                 IOCAF6_InterruptHandler();
 10314   003832  D801               	call	i2u600_48
 10315   003834  D00A               	goto	i2u600_49
 10316   003836                     i2u600_48:
 10317   003836  0005               	push	
 10318   003838  6EFA               	movwf	pclath,c
 10319   00383A  516A               	movf	_IOCAF6_InterruptHandler& (0+255),w,b
 10320   00383C  6EFD               	movwf	tosl,c
 10321   00383E  516B               	movf	(_IOCAF6_InterruptHandler+1)& (0+255),w,b
 10322   003840  6EFE               	movwf	tosh,c
 10323   003842  516C               	movf	(_IOCAF6_InterruptHandler+2)& (0+255),w,b
 10324   003844  6EFF               	movwf	tosu,c
 10325   003846  50FA               	movf	pclath,w,c
 10326   003848  0012               	return		;indir
 10327   00384A                     i2u600_49:
 10328                           
 10329                           ;mcc_generated_files/pin_manager.c: 262:     IOCAFbits.IOCAF6 = 0;
 10330   00384A  010F               	movlb	15	; () banked
 10331   00384C  9D0A               	bcf	10,6,b	;volatile
 10332                           
 10333                           ; BSR set to: 15
 10334   00384E  0012               	return		;funcret
 10335   003850                     __end_of_IOCAF6_ISR:
 10336                           	callstack 0
 10337                           
 10338 ;; *************** function _IOCAF6_DefaultInterruptHandler *****************
 10339 ;; Defined at:
 10340 ;;		line 275 in file "mcc_generated_files/pin_manager.c"
 10341 ;; Parameters:    Size  Location     Type
 10342 ;;		None
 10343 ;; Auto vars:     Size  Location     Type
 10344 ;;		None
 10345 ;; Return value:  Size  Location     Type
 10346 ;;                  1    wreg      void 
 10347 ;; Registers used:
 10348 ;;		wreg, status,2, status,0
 10349 ;; Tracked objects:
 10350 ;;		On entry : 0/0
 10351 ;;		On exit  : 0/0
 10352 ;;		Unchanged: 0/0
 10353 ;; Data sizes:     COMRAM   BANK0   BANK1   BANK2   BANK3   BANK4   BANK5   BANK6   BANK7   BANK8   BANK9  BANK10  BANK1
      +1  BANK12  BANK13  BANK14
 10354 ;;      Params:         0       0       0       0       0       0       0       0       0       0       0       0       
      +0       0       0       0
 10355 ;;      Locals:         0       0       0       0       0       0       0       0       0       0       0       0       
      +0       0       0       0
 10356 ;;      Temps:          2       0       0       0       0       0       0       0       0       0       0       0       
      +0       0       0       0
 10357 ;;      Totals:         2       0       0       0       0       0       0       0       0       0       0       0       
      +0       0       0       0
 10358 ;;Total ram usage:        2 bytes
 10359 ;; Hardware stack levels used: 1
 10360 ;; This function calls:
 10361 ;;		Nothing
 10362 ;; This function is called by:
 10363 ;;		_PIN_MANAGER_Initialize
 10364 ;;		_IOCAF6_ISR
 10365 ;; This function uses a non-reentrant model
 10366 ;;
 10367                           
 10368                           	psect	text70
 10369   003524                     __ptext70:
 10370                           	callstack 0
 10371   003524                     _IOCAF6_DefaultInterruptHandler:
 10372                           	callstack 23
 10373                           
 10374                           ;mcc_generated_files/pin_manager.c: 279:     _delay((unsigned long)((3)*(64000000/4000.0
      +                          )));
 10375                           
 10376                           ; BSR set to: 15
 10377                           ;incstack = 0
 10378   003524  0E3F               	movlw	63
 10379   003526  6E01               	movwf	??_IOCAF6_DefaultInterruptHandler^0,c
 10380   003528  0E55               	movlw	85
 10381   00352A                     i2u851_47:
 10382   00352A  2EE8               	decfsz	wreg,f,c
 10383   00352C  D7FE               	bra	i2u851_47
 10384   00352E  2E01               	decfsz	??_IOCAF6_DefaultInterruptHandler^0,f,c
 10385   003530  D7FC               	bra	i2u851_47
 10386   003532  F000               	nop	
 10387                           
 10388                           ;mcc_generated_files/pin_manager.c: 280:     if (!PORTAbits.RA6)
 10389   003534  BC8D               	btfsc	141,6,c	;volatile
 10390   003536  D00B               	goto	i2l607
 10391                           
 10392                           ;mcc_generated_files/pin_manager.c: 281:     {;mcc_generated_files/pin_manager.c: 282:  
      +                                 if (PORTDbits.RD1 == 1)
 10393   003538  A290               	btfss	144,1,c	;volatile
 10394   00353A  D004               	goto	i2l6139
 10395   00353C                     i2u495_40:
 10396                           
 10397                           ;mcc_generated_files/pin_manager.c: 283:         {;mcc_generated_files/pin_manager.c: 28
      +                          4:             selection ++;
 10398   00353C  0101               	movlb	1	; () banked
 10399   00353E  4B3A               	infsnz	_selection& (0+255),f,b
 10400   003540  2B3B               	incf	(_selection+1)& (0+255),f,b
 10401                           
 10402                           ;mcc_generated_files/pin_manager.c: 285:         }
 10403   003542  D008               	goto	i2l6145
 10404   003544                     i2l6139:
 10405                           
 10406                           ;mcc_generated_files/pin_manager.c: 287:         {;mcc_generated_files/pin_manager.c: 28
      +                          8:             selection --;
 10407   003544  0101               	movlb	1	; () banked
 10408   003546  073A               	decf	_selection& (0+255),f,b
 10409   003548  A0D8               	btfss	status,0,c
 10410   00354A  073B               	decf	(_selection+1)& (0+255),f,b
 10411   00354C  D003               	goto	i2l6145
 10412   00354E                     i2l607:
 10413                           
 10414                           ;mcc_generated_files/pin_manager.c: 292:     {;mcc_generated_files/pin_manager.c: 293:  
      +                                 if (PORTDbits.RD1 == 1)
 10415   00354E  B290               	btfsc	144,1,c	;volatile
 10416   003550  D7F9               	goto	i2l6139
 10417   003552  D7F4               	goto	i2u495_40
 10418   003554                     i2l6145:
 10419                           
 10420                           ; BSR set to: 1
 10421                           ;mcc_generated_files/pin_manager.c: 302:     _delay((unsigned long)((75)*(64000000/4000.
      +                          0)));
 10422   003554  0E07               	movlw	7
 10423   003556  6E02               	movwf	(??_IOCAF6_DefaultInterruptHandler+1)^0,c
 10424   003558  0E17               	movlw	23
 10425   00355A  6E01               	movwf	??_IOCAF6_DefaultInterruptHandler^0,c
 10426   00355C  0E6A               	movlw	106
 10427   00355E                     i2u852_47:
 10428   00355E  2EE8               	decfsz	wreg,f,c
 10429   003560  D7FE               	bra	i2u852_47
 10430   003562  2E01               	decfsz	??_IOCAF6_DefaultInterruptHandler^0,f,c
 10431   003564  D7FC               	bra	i2u852_47
 10432   003566  2E02               	decfsz	(??_IOCAF6_DefaultInterruptHandler+1)^0,f,c
 10433   003568  D7FA               	bra	i2u852_47
 10434   00356A  D000               	nop2	
 10435   00356C  0012               	return		;funcret
 10436   00356E                     __end_of_IOCAF6_DefaultInterruptHandler:
 10437                           	callstack 0
 10438                           
 10439 ;; *************** function _IOCAF5_ISR *****************
 10440 ;; Defined at:
 10441 ;;		line 209 in file "mcc_generated_files/pin_manager.c"
 10442 ;; Parameters:    Size  Location     Type
 10443 ;;		None
 10444 ;; Auto vars:     Size  Location     Type
 10445 ;;		None
 10446 ;; Return value:  Size  Location     Type
 10447 ;;                  1    wreg      void 
 10448 ;; Registers used:
 10449 ;;		wreg, status,2, status,0, pcl, pclath, pclatu, tosl, cstack
 10450 ;; Tracked objects:
 10451 ;;		On entry : 0/0
 10452 ;;		On exit  : 0/0
 10453 ;;		Unchanged: 0/0
 10454 ;; Data sizes:     COMRAM   BANK0   BANK1   BANK2   BANK3   BANK4   BANK5   BANK6   BANK7   BANK8   BANK9  BANK10  BANK1
      +1  BANK12  BANK13  BANK14
 10455 ;;      Params:         0       0       0       0       0       0       0       0       0       0       0       0       
      +0       0       0       0
 10456 ;;      Locals:         0       0       0       0       0       0       0       0       0       0       0       0       
      +0       0       0       0
 10457 ;;      Temps:          0       0       0       0       0       0       0       0       0       0       0       0       
      +0       0       0       0
 10458 ;;      Totals:         0       0       0       0       0       0       0       0       0       0       0       0       
      +0       0       0       0
 10459 ;;Total ram usage:        0 bytes
 10460 ;; Hardware stack levels used: 1
 10461 ;; Hardware stack levels required when called: 2
 10462 ;; This function calls:
 10463 ;;		NULL
 10464 ;;		_IOCAF5_DefaultInterruptHandler
 10465 ;; This function is called by:
 10466 ;;		_PIN_MANAGER_IOC
 10467 ;; This function uses a non-reentrant model
 10468 ;;
 10469                           
 10470                           	psect	text71
 10471   003850                     __ptext71:
 10472                           	callstack 0
 10473   003850                     _IOCAF5_ISR:
 10474                           	callstack 22
 10475                           
 10476                           ;mcc_generated_files/pin_manager.c: 214:     if(IOCAF5_InterruptHandler)
 10477                           
 10478                           ;incstack = 0
 10479   003850  0101               	movlb	1	; () banked
 10480   003852  516D               	movf	_IOCAF5_InterruptHandler& (0+255),w,b
 10481   003854  116E               	iorwf	(_IOCAF5_InterruptHandler+1)& (0+255),w,b
 10482   003856  116F               	iorwf	(_IOCAF5_InterruptHandler+2)& (0+255),w,b
 10483   003858  B4D8               	btfsc	status,2,c
 10484   00385A  D00C               	goto	i2u598_49
 10485                           
 10486                           ; BSR set to: 1
 10487                           ;mcc_generated_files/pin_manager.c: 215:     {;mcc_generated_files/pin_manager.c: 216:  
      +                                 IOCAF5_InterruptHandler();
 10488   00385C  D801               	call	i2u598_48
 10489   00385E  D00A               	goto	i2u598_49
 10490   003860                     i2u598_48:
 10491   003860  0005               	push	
 10492   003862  6EFA               	movwf	pclath,c
 10493   003864  516D               	movf	_IOCAF5_InterruptHandler& (0+255),w,b
 10494   003866  6EFD               	movwf	tosl,c
 10495   003868  516E               	movf	(_IOCAF5_InterruptHandler+1)& (0+255),w,b
 10496   00386A  6EFE               	movwf	tosh,c
 10497   00386C  516F               	movf	(_IOCAF5_InterruptHandler+2)& (0+255),w,b
 10498   00386E  6EFF               	movwf	tosu,c
 10499   003870  50FA               	movf	pclath,w,c
 10500   003872  0012               	return		;indir
 10501   003874                     i2u598_49:
 10502                           
 10503                           ;mcc_generated_files/pin_manager.c: 218:     IOCAFbits.IOCAF5 = 0;
 10504   003874  010F               	movlb	15	; () banked
 10505   003876  9B0A               	bcf	10,5,b	;volatile
 10506                           
 10507                           ; BSR set to: 15
 10508   003878  0012               	return		;funcret
 10509   00387A                     __end_of_IOCAF5_ISR:
 10510                           	callstack 0
 10511                           
 10512 ;; *************** function _IOCAF5_DefaultInterruptHandler *****************
 10513 ;; Defined at:
 10514 ;;		line 231 in file "mcc_generated_files/pin_manager.c"
 10515 ;; Parameters:    Size  Location     Type
 10516 ;;		None
 10517 ;; Auto vars:     Size  Location     Type
 10518 ;;		None
 10519 ;; Return value:  Size  Location     Type
 10520 ;;                  1    wreg      void 
 10521 ;; Registers used:
 10522 ;;		wreg, status,2, status,0, cstack
 10523 ;; Tracked objects:
 10524 ;;		On entry : 0/0
 10525 ;;		On exit  : 0/0
 10526 ;;		Unchanged: 0/0
 10527 ;; Data sizes:     COMRAM   BANK0   BANK1   BANK2   BANK3   BANK4   BANK5   BANK6   BANK7   BANK8   BANK9  BANK10  BANK1
      +1  BANK12  BANK13  BANK14
 10528 ;;      Params:         0       0       0       0       0       0       0       0       0       0       0       0       
      +0       0       0       0
 10529 ;;      Locals:         0       0       0       0       0       0       0       0       0       0       0       0       
      +0       0       0       0
 10530 ;;      Temps:          0       0       0       0       0       0       0       0       0       0       0       0       
      +0       0       0       0
 10531 ;;      Totals:         0       0       0       0       0       0       0       0       0       0       0       0       
      +0       0       0       0
 10532 ;;Total ram usage:        0 bytes
 10533 ;; Hardware stack levels used: 1
 10534 ;; Hardware stack levels required when called: 1
 10535 ;; This function calls:
 10536 ;;		_TMR1_ReadTimer
 10537 ;;		_TMR1_StartTimer
 10538 ;;		_TMR1_StopTimer
 10539 ;;		_TMR1_WriteTimer
 10540 ;;		___aldiv
 10541 ;; This function is called by:
 10542 ;;		_PIN_MANAGER_Initialize
 10543 ;;		_IOCAF5_ISR
 10544 ;; This function uses a non-reentrant model
 10545 ;;
 10546                           
 10547                           	psect	text72
 10548   0033F4                     __ptext72:
 10549                           	callstack 0
 10550   0033F4                     _IOCAF5_DefaultInterruptHandler:
 10551                           	callstack 22
 10552                           
 10553                           ;mcc_generated_files/pin_manager.c: 234:     TMR1_StopTimer();
 10554                           
 10555                           ; BSR set to: 15
 10556                           ;incstack = 0
 10557   0033F4  EC0D  F01E         	call	_TMR1_StopTimer	;wreg free
 10558                           
 10559                           ;mcc_generated_files/pin_manager.c: 236:     Vitesse_Moteur_G = 87000 /TMR1_ReadTimer();
 10560   0033F8  0ED8               	movlw	216
 10561   0033FA  6E09               	movwf	___aldiv@dividend^0,c
 10562   0033FC  0E53               	movlw	83
 10563   0033FE  6E0A               	movwf	(___aldiv@dividend+1)^0,c
 10564   003400  0E01               	movlw	1
 10565   003402  6E0B               	movwf	(___aldiv@dividend+2)^0,c
 10566   003404  0E00               	movlw	0
 10567   003406  6E0C               	movwf	(___aldiv@dividend+3)^0,c
 10568   003408  ECCA  F01C         	call	_TMR1_ReadTimer	;wreg free
 10569   00340C  C001  F00D         	movff	?_TMR1_ReadTimer,___aldiv@divisor
 10570   003410  C002  F00E         	movff	?_TMR1_ReadTimer+1,___aldiv@divisor+1
 10571   003414  6A0F               	clrf	(___aldiv@divisor+2)^0,c
 10572   003416  6A10               	clrf	(___aldiv@divisor+3)^0,c
 10573   003418  EC76  F017         	call	___aldiv	;wreg free
 10574   00341C  C009  F13E         	movff	?___aldiv,_Vitesse_Moteur_G
 10575   003420  C00A  F13F         	movff	?___aldiv+1,_Vitesse_Moteur_G+1
 10576                           
 10577                           ;mcc_generated_files/pin_manager.c: 237:     if (PORTEbits.RE1 == 1)
 10578   003424  B291               	btfsc	145,1,c	;volatile
 10579   003426  D005               	goto	i2l6127
 10580                           
 10581                           ;mcc_generated_files/pin_manager.c: 241:     {;mcc_generated_files/pin_manager.c: 242:  
      +                                 Vitesse_Moteur_G = -Vitesse_Moteur_G;
 10582   003428  0101               	movlb	1	; () banked
 10583   00342A  6D3E               	negf	_Vitesse_Moteur_G& (0+255),b
 10584   00342C  1F3F               	comf	(_Vitesse_Moteur_G+1)& (0+255),f,b
 10585   00342E  B0D8               	btfsc	status,0,c
 10586   003430  2B3F               	incf	(_Vitesse_Moteur_G+1)& (0+255),f,b
 10587   003432                     i2l6127:
 10588                           
 10589                           ;mcc_generated_files/pin_manager.c: 244:     TMR1_WriteTimer(0);
 10590   003432  0E00               	movlw	0
 10591   003434  6E02               	movwf	(TMR1_WriteTimer@timerVal+1)^0,c
 10592   003436  0E00               	movlw	0
 10593   003438  6E01               	movwf	TMR1_WriteTimer@timerVal^0,c
 10594   00343A  EC21  F01D         	call	_TMR1_WriteTimer	;wreg free
 10595                           
 10596                           ;mcc_generated_files/pin_manager.c: 245:     TMR1_StartTimer();
 10597   00343E  EC0F  F01E         	call	_TMR1_StartTimer	;wreg free
 10598   003442  0012               	return		;funcret
 10599   003444                     __end_of_IOCAF5_DefaultInterruptHandler:
 10600                           	callstack 0
 10601                           
 10602 ;; *************** function ___aldiv *****************
 10603 ;; Defined at:
 10604 ;;		line 7 in file "C:\Program Files\Microchip\xc8\v2.41\pic\sources\c99\common\aldiv.c"
 10605 ;; Parameters:    Size  Location     Type
 10606 ;;  dividend        4    8[COMRAM] long 
 10607 ;;  divisor         4   12[COMRAM] long 
 10608 ;; Auto vars:     Size  Location     Type
 10609 ;;  quotient        4   18[COMRAM] long 
 10610 ;;  sign            1   17[COMRAM] unsigned char 
 10611 ;;  counter         1   16[COMRAM] unsigned char 
 10612 ;; Return value:  Size  Location     Type
 10613 ;;                  4    8[COMRAM] long 
 10614 ;; Registers used:
 10615 ;;		wreg, status,2, status,0
 10616 ;; Tracked objects:
 10617 ;;		On entry : 0/0
 10618 ;;		On exit  : 0/0
 10619 ;;		Unchanged: 0/0
 10620 ;; Data sizes:     COMRAM   BANK0   BANK1   BANK2   BANK3   BANK4   BANK5   BANK6   BANK7   BANK8   BANK9  BANK10  BANK1
      +1  BANK12  BANK13  BANK14
 10621 ;;      Params:         8       0       0       0       0       0       0       0       0       0       0       0       
      +0       0       0       0
 10622 ;;      Locals:         6       0       0       0       0       0       0       0       0       0       0       0       
      +0       0       0       0
 10623 ;;      Temps:          0       0       0       0       0       0       0       0       0       0       0       0       
      +0       0       0       0
 10624 ;;      Totals:        14       0       0       0       0       0       0       0       0       0       0       0       
      +0       0       0       0
 10625 ;;Total ram usage:       14 bytes
 10626 ;; Hardware stack levels used: 1
 10627 ;; This function calls:
 10628 ;;		Nothing
 10629 ;; This function is called by:
 10630 ;;		_IOCAF5_DefaultInterruptHandler
 10631 ;;		_IOCCF0_DefaultInterruptHandler
 10632 ;; This function uses a non-reentrant model
 10633 ;;
 10634                           
 10635                           	psect	text73
 10636   002EEC                     __ptext73:
 10637                           	callstack 0
 10638   002EEC                     ___aldiv:
 10639                           	callstack 22
 10640                           
 10641                           ;incstack = 0
 10642   002EEC  0E00               	movlw	0
 10643   002EEE  6E12               	movwf	___aldiv@sign^0,c
 10644   002EF0  AE10               	btfss	(___aldiv@divisor+3)^0,7,c
 10645   002EF2  D00A               	goto	i2l5863
 10646   002EF4  1E10               	comf	(___aldiv@divisor+3)^0,f,c
 10647   002EF6  1E0F               	comf	(___aldiv@divisor+2)^0,f,c
 10648   002EF8  1E0E               	comf	(___aldiv@divisor+1)^0,f,c
 10649   002EFA  6C0D               	negf	___aldiv@divisor^0,c
 10650   002EFC  0E00               	movlw	0
 10651   002EFE  220E               	addwfc	(___aldiv@divisor+1)^0,f,c
 10652   002F00  220F               	addwfc	(___aldiv@divisor+2)^0,f,c
 10653   002F02  2210               	addwfc	(___aldiv@divisor+3)^0,f,c
 10654   002F04  0E01               	movlw	1
 10655   002F06  6E12               	movwf	___aldiv@sign^0,c
 10656   002F08                     i2l5863:
 10657   002F08  AE0C               	btfss	(___aldiv@dividend+3)^0,7,c
 10658   002F0A  D00A               	goto	i2l5869
 10659   002F0C  1E0C               	comf	(___aldiv@dividend+3)^0,f,c
 10660   002F0E  1E0B               	comf	(___aldiv@dividend+2)^0,f,c
 10661   002F10  1E0A               	comf	(___aldiv@dividend+1)^0,f,c
 10662   002F12  6C09               	negf	___aldiv@dividend^0,c
 10663   002F14  0E00               	movlw	0
 10664   002F16  220A               	addwfc	(___aldiv@dividend+1)^0,f,c
 10665   002F18  220B               	addwfc	(___aldiv@dividend+2)^0,f,c
 10666   002F1A  220C               	addwfc	(___aldiv@dividend+3)^0,f,c
 10667   002F1C  0E01               	movlw	1
 10668   002F1E  1A12               	xorwf	___aldiv@sign^0,f,c
 10669   002F20                     i2l5869:
 10670   002F20  0E00               	movlw	0
 10671   002F22  6E13               	movwf	___aldiv@quotient^0,c
 10672   002F24  0E00               	movlw	0
 10673   002F26  6E14               	movwf	(___aldiv@quotient+1)^0,c
 10674   002F28  0E00               	movlw	0
 10675   002F2A  6E15               	movwf	(___aldiv@quotient+2)^0,c
 10676   002F2C  0E00               	movlw	0
 10677   002F2E  6E16               	movwf	(___aldiv@quotient+3)^0,c
 10678   002F30  500D               	movf	___aldiv@divisor^0,w,c
 10679   002F32  100E               	iorwf	(___aldiv@divisor+1)^0,w,c
 10680   002F34  100F               	iorwf	(___aldiv@divisor+2)^0,w,c
 10681   002F36  1010               	iorwf	(___aldiv@divisor+3)^0,w,c
 10682   002F38  B4D8               	btfsc	status,2,c
 10683   002F3A  D02A               	goto	i2l5891
 10684   002F3C  0E01               	movlw	1
 10685   002F3E  6E11               	movwf	___aldiv@counter^0,c
 10686   002F40  D006               	goto	i2l5877
 10687   002F42                     i2l5875:
 10688   002F42  90D8               	bcf	status,0,c
 10689   002F44  360D               	rlcf	___aldiv@divisor^0,f,c
 10690   002F46  360E               	rlcf	(___aldiv@divisor+1)^0,f,c
 10691   002F48  360F               	rlcf	(___aldiv@divisor+2)^0,f,c
 10692   002F4A  3610               	rlcf	(___aldiv@divisor+3)^0,f,c
 10693   002F4C  2A11               	incf	___aldiv@counter^0,f,c
 10694   002F4E                     i2l5877:
 10695   002F4E  AE10               	btfss	(___aldiv@divisor+3)^0,7,c
 10696   002F50  D7F8               	goto	i2l5875
 10697   002F52                     i2u453_40:
 10698   002F52  90D8               	bcf	status,0,c
 10699   002F54  3613               	rlcf	___aldiv@quotient^0,f,c
 10700   002F56  3614               	rlcf	(___aldiv@quotient+1)^0,f,c
 10701   002F58  3615               	rlcf	(___aldiv@quotient+2)^0,f,c
 10702   002F5A  3616               	rlcf	(___aldiv@quotient+3)^0,f,c
 10703   002F5C  500D               	movf	___aldiv@divisor^0,w,c
 10704   002F5E  5C09               	subwf	___aldiv@dividend^0,w,c
 10705   002F60  500E               	movf	(___aldiv@divisor+1)^0,w,c
 10706   002F62  580A               	subwfb	(___aldiv@dividend+1)^0,w,c
 10707   002F64  500F               	movf	(___aldiv@divisor+2)^0,w,c
 10708   002F66  580B               	subwfb	(___aldiv@dividend+2)^0,w,c
 10709   002F68  5010               	movf	(___aldiv@divisor+3)^0,w,c
 10710   002F6A  580C               	subwfb	(___aldiv@dividend+3)^0,w,c
 10711   002F6C  A0D8               	btfss	status,0,c
 10712   002F6E  D009               	goto	i2l5887
 10713   002F70  500D               	movf	___aldiv@divisor^0,w,c
 10714   002F72  5E09               	subwf	___aldiv@dividend^0,f,c
 10715   002F74  500E               	movf	(___aldiv@divisor+1)^0,w,c
 10716   002F76  5A0A               	subwfb	(___aldiv@dividend+1)^0,f,c
 10717   002F78  500F               	movf	(___aldiv@divisor+2)^0,w,c
 10718   002F7A  5A0B               	subwfb	(___aldiv@dividend+2)^0,f,c
 10719   002F7C  5010               	movf	(___aldiv@divisor+3)^0,w,c
 10720   002F7E  5A0C               	subwfb	(___aldiv@dividend+3)^0,f,c
 10721   002F80  8013               	bsf	___aldiv@quotient^0,0,c
 10722   002F82                     i2l5887:
 10723   002F82  90D8               	bcf	status,0,c
 10724   002F84  3210               	rrcf	(___aldiv@divisor+3)^0,f,c
 10725   002F86  320F               	rrcf	(___aldiv@divisor+2)^0,f,c
 10726   002F88  320E               	rrcf	(___aldiv@divisor+1)^0,f,c
 10727   002F8A  320D               	rrcf	___aldiv@divisor^0,f,c
 10728   002F8C  2E11               	decfsz	___aldiv@counter^0,f,c
 10729   002F8E  D7E1               	goto	i2u453_40
 10730   002F90                     i2l5891:
 10731   002F90  5012               	movf	___aldiv@sign^0,w,c
 10732   002F92  B4D8               	btfsc	status,2,c
 10733   002F94  D008               	goto	i2l5895
 10734   002F96  1E16               	comf	(___aldiv@quotient+3)^0,f,c
 10735   002F98  1E15               	comf	(___aldiv@quotient+2)^0,f,c
 10736   002F9A  1E14               	comf	(___aldiv@quotient+1)^0,f,c
 10737   002F9C  6C13               	negf	___aldiv@quotient^0,c
 10738   002F9E  0E00               	movlw	0
 10739   002FA0  2214               	addwfc	(___aldiv@quotient+1)^0,f,c
 10740   002FA2  2215               	addwfc	(___aldiv@quotient+2)^0,f,c
 10741   002FA4  2216               	addwfc	(___aldiv@quotient+3)^0,f,c
 10742   002FA6                     i2l5895:
 10743   002FA6  C013  F009         	movff	___aldiv@quotient,?___aldiv
 10744   002FAA  C014  F00A         	movff	___aldiv@quotient+1,?___aldiv+1
 10745   002FAE  C015  F00B         	movff	___aldiv@quotient+2,?___aldiv+2
 10746   002FB2  C016  F00C         	movff	___aldiv@quotient+3,?___aldiv+3
 10747   002FB6  0012               	return		;funcret
 10748   002FB8                     __end_of___aldiv:
 10749                           	callstack 0
 10750                           
 10751 ;; *************** function _TMR1_WriteTimer *****************
 10752 ;; Defined at:
 10753 ;;		line 129 in file "mcc_generated_files/tmr1.c"
 10754 ;; Parameters:    Size  Location     Type
 10755 ;;  timerVal        2    0[COMRAM] unsigned short 
 10756 ;; Auto vars:     Size  Location     Type
 10757 ;;		None
 10758 ;; Return value:  Size  Location     Type
 10759 ;;                  1    wreg      void 
 10760 ;; Registers used:
 10761 ;;		wreg, status,2
 10762 ;; Tracked objects:
 10763 ;;		On entry : 0/0
 10764 ;;		On exit  : 0/0
 10765 ;;		Unchanged: 0/0
 10766 ;; Data sizes:     COMRAM   BANK0   BANK1   BANK2   BANK3   BANK4   BANK5   BANK6   BANK7   BANK8   BANK9  BANK10  BANK1
      +1  BANK12  BANK13  BANK14
 10767 ;;      Params:         2       0       0       0       0       0       0       0       0       0       0       0       
      +0       0       0       0
 10768 ;;      Locals:         0       0       0       0       0       0       0       0       0       0       0       0       
      +0       0       0       0
 10769 ;;      Temps:          0       0       0       0       0       0       0       0       0       0       0       0       
      +0       0       0       0
 10770 ;;      Totals:         2       0       0       0       0       0       0       0       0       0       0       0       
      +0       0       0       0
 10771 ;;Total ram usage:        2 bytes
 10772 ;; Hardware stack levels used: 1
 10773 ;; This function calls:
 10774 ;;		Nothing
 10775 ;; This function is called by:
 10776 ;;		_IOCAF5_DefaultInterruptHandler
 10777 ;;		_TMR1_ISR
 10778 ;;		_TMR1_DefaultInterruptHandler
 10779 ;;		_TMR1_Reload
 10780 ;; This function uses a non-reentrant model
 10781 ;;
 10782                           
 10783                           	psect	text74
 10784   003A42                     __ptext74:
 10785                           	callstack 0
 10786   003A42                     _TMR1_WriteTimer:
 10787                           	callstack 24
 10788                           
 10789                           ;mcc_generated_files/tmr1.c: 129: void TMR1_WriteTimer(uint16_t timerVal);mcc_generated_
      +                          files/tmr1.c: 130: {;mcc_generated_files/tmr1.c: 131:     if (T1CONbits.nT1SYNC == 1)
 10790                           
 10791                           ;incstack = 0
 10792   003A42  A4CF               	btfss	207,2,c	;volatile
 10793   003A44  D007               	goto	i2l5823
 10794                           
 10795                           ;mcc_generated_files/tmr1.c: 132:     {;mcc_generated_files/tmr1.c: 134:         T1CONbi
      +                          ts.TMR1ON = 0;
 10796   003A46  90CF               	bcf	207,0,c	;volatile
 10797                           
 10798                           ;mcc_generated_files/tmr1.c: 137:         TMR1H = (timerVal >> 8);
 10799   003A48  5002               	movf	(TMR1_WriteTimer@timerVal+1)^0,w,c
 10800   003A4A  6ECE               	movwf	206,c	;volatile
 10801                           
 10802                           ;mcc_generated_files/tmr1.c: 138:         TMR1L = timerVal;
 10803   003A4C  C001  FFCD         	movff	TMR1_WriteTimer@timerVal,4045	;volatile
 10804                           
 10805                           ;mcc_generated_files/tmr1.c: 141:         T1CONbits.TMR1ON =1;
 10806   003A50  80CF               	bsf	207,0,c	;volatile
 10807                           
 10808                           ;mcc_generated_files/tmr1.c: 142:     }
 10809   003A52  0012               	return	
 10810   003A54                     i2l5823:
 10811                           
 10812                           ;mcc_generated_files/tmr1.c: 144:     {;mcc_generated_files/tmr1.c: 146:         TMR1H =
      +                           (timerVal >> 8);
 10813   003A54  5002               	movf	(TMR1_WriteTimer@timerVal+1)^0,w,c
 10814   003A56  6ECE               	movwf	206,c	;volatile
 10815                           
 10816                           ;mcc_generated_files/tmr1.c: 147:         TMR1L = timerVal;
 10817   003A58  C001  FFCD         	movff	TMR1_WriteTimer@timerVal,4045	;volatile
 10818   003A5C  0012               	return		;funcret
 10819   003A5E                     __end_of_TMR1_WriteTimer:
 10820                           	callstack 0
 10821                           
 10822 ;; *************** function _TMR1_StopTimer *****************
 10823 ;; Defined at:
 10824 ;;		line 107 in file "mcc_generated_files/tmr1.c"
 10825 ;; Parameters:    Size  Location     Type
 10826 ;;		None
 10827 ;; Auto vars:     Size  Location     Type
 10828 ;;		None
 10829 ;; Return value:  Size  Location     Type
 10830 ;;                  1    wreg      void 
 10831 ;; Registers used:
 10832 ;;		None
 10833 ;; Tracked objects:
 10834 ;;		On entry : 0/0
 10835 ;;		On exit  : 0/0
 10836 ;;		Unchanged: 0/0
 10837 ;; Data sizes:     COMRAM   BANK0   BANK1   BANK2   BANK3   BANK4   BANK5   BANK6   BANK7   BANK8   BANK9  BANK10  BANK1
      +1  BANK12  BANK13  BANK14
 10838 ;;      Params:         0       0       0       0       0       0       0       0       0       0       0       0       
      +0       0       0       0
 10839 ;;      Locals:         0       0       0       0       0       0       0       0       0       0       0       0       
      +0       0       0       0
 10840 ;;      Temps:          0       0       0       0       0       0       0       0       0       0       0       0       
      +0       0       0       0
 10841 ;;      Totals:         0       0       0       0       0       0       0       0       0       0       0       0       
      +0       0       0       0
 10842 ;;Total ram usage:        0 bytes
 10843 ;; Hardware stack levels used: 1
 10844 ;; This function calls:
 10845 ;;		Nothing
 10846 ;; This function is called by:
 10847 ;;		_IOCAF5_DefaultInterruptHandler
 10848 ;;		_TMR1_DefaultInterruptHandler
 10849 ;; This function uses a non-reentrant model
 10850 ;;
 10851                           
 10852                           	psect	text75
 10853   003C1A                     __ptext75:
 10854                           	callstack 0
 10855   003C1A                     _TMR1_StopTimer:
 10856                           	callstack 23
 10857                           
 10858                           ;mcc_generated_files/tmr1.c: 110:     T1CONbits.TMR1ON = 0;
 10859                           
 10860                           ;incstack = 0
 10861   003C1A  90CF               	bcf	207,0,c	;volatile
 10862   003C1C  0012               	return		;funcret
 10863   003C1E                     __end_of_TMR1_StopTimer:
 10864                           	callstack 0
 10865                           
 10866 ;; *************** function _TMR1_StartTimer *****************
 10867 ;; Defined at:
 10868 ;;		line 101 in file "mcc_generated_files/tmr1.c"
 10869 ;; Parameters:    Size  Location     Type
 10870 ;;		None
 10871 ;; Auto vars:     Size  Location     Type
 10872 ;;		None
 10873 ;; Return value:  Size  Location     Type
 10874 ;;                  1    wreg      void 
 10875 ;; Registers used:
 10876 ;;		None
 10877 ;; Tracked objects:
 10878 ;;		On entry : 0/0
 10879 ;;		On exit  : 0/0
 10880 ;;		Unchanged: 0/0
 10881 ;; Data sizes:     COMRAM   BANK0   BANK1   BANK2   BANK3   BANK4   BANK5   BANK6   BANK7   BANK8   BANK9  BANK10  BANK1
      +1  BANK12  BANK13  BANK14
 10882 ;;      Params:         0       0       0       0       0       0       0       0       0       0       0       0       
      +0       0       0       0
 10883 ;;      Locals:         0       0       0       0       0       0       0       0       0       0       0       0       
      +0       0       0       0
 10884 ;;      Temps:          0       0       0       0       0       0       0       0       0       0       0       0       
      +0       0       0       0
 10885 ;;      Totals:         0       0       0       0       0       0       0       0       0       0       0       0       
      +0       0       0       0
 10886 ;;Total ram usage:        0 bytes
 10887 ;; Hardware stack levels used: 1
 10888 ;; This function calls:
 10889 ;;		Nothing
 10890 ;; This function is called by:
 10891 ;;		_IOCAF5_DefaultInterruptHandler
 10892 ;; This function uses a non-reentrant model
 10893 ;;
 10894                           
 10895                           	psect	text76
 10896   003C1E                     __ptext76:
 10897                           	callstack 0
 10898   003C1E                     _TMR1_StartTimer:
 10899                           	callstack 22
 10900                           
 10901                           ;mcc_generated_files/tmr1.c: 104:     T1CONbits.TMR1ON = 1;
 10902                           
 10903                           ;incstack = 0
 10904   003C1E  80CF               	bsf	207,0,c	;volatile
 10905   003C20  0012               	return		;funcret
 10906   003C22                     __end_of_TMR1_StartTimer:
 10907                           	callstack 0
 10908                           
 10909 ;; *************** function _TMR1_ReadTimer *****************
 10910 ;; Defined at:
 10911 ;;		line 113 in file "mcc_generated_files/tmr1.c"
 10912 ;; Parameters:    Size  Location     Type
 10913 ;;		None
 10914 ;; Auto vars:     Size  Location     Type
 10915 ;;  readVal         2    4[COMRAM] unsigned short 
 10916 ;;  readValLow      1    7[COMRAM] unsigned char 
 10917 ;;  readValHigh     1    6[COMRAM] unsigned char 
 10918 ;; Return value:  Size  Location     Type
 10919 ;;                  2    0[COMRAM] unsigned short 
 10920 ;; Registers used:
 10921 ;;		wreg, status,2
 10922 ;; Tracked objects:
 10923 ;;		On entry : 0/0
 10924 ;;		On exit  : 0/0
 10925 ;;		Unchanged: 0/0
 10926 ;; Data sizes:     COMRAM   BANK0   BANK1   BANK2   BANK3   BANK4   BANK5   BANK6   BANK7   BANK8   BANK9  BANK10  BANK1
      +1  BANK12  BANK13  BANK14
 10927 ;;      Params:         2       0       0       0       0       0       0       0       0       0       0       0       
      +0       0       0       0
 10928 ;;      Locals:         4       0       0       0       0       0       0       0       0       0       0       0       
      +0       0       0       0
 10929 ;;      Temps:          2       0       0       0       0       0       0       0       0       0       0       0       
      +0       0       0       0
 10930 ;;      Totals:         8       0       0       0       0       0       0       0       0       0       0       0       
      +0       0       0       0
 10931 ;;Total ram usage:        8 bytes
 10932 ;; Hardware stack levels used: 1
 10933 ;; This function calls:
 10934 ;;		Nothing
 10935 ;; This function is called by:
 10936 ;;		_IOCAF5_DefaultInterruptHandler
 10937 ;; This function uses a non-reentrant model
 10938 ;;
 10939                           
 10940                           	psect	text77
 10941   003994                     __ptext77:
 10942                           	callstack 0
 10943   003994                     _TMR1_ReadTimer:
 10944                           	callstack 22
 10945                           
 10946                           ;mcc_generated_files/tmr1.c: 115:     uint16_t readVal;;mcc_generated_files/tmr1.c: 116:
      +                               uint8_t readValHigh;;mcc_generated_files/tmr1.c: 117:     uint8_t readValLow;;mcc_g
      +                          enerated_files/tmr1.c: 119:     T1CONbits.T1RD16 = 1;
 10947                           
 10948                           ;incstack = 0
 10949   003994  82CF               	bsf	207,1,c	;volatile
 10950                           
 10951                           ;mcc_generated_files/tmr1.c: 121:     readValLow = TMR1L;
 10952   003996  CFCD F008          	movff	4045,TMR1_ReadTimer@readValLow	;volatile
 10953                           
 10954                           ;mcc_generated_files/tmr1.c: 122:     readValHigh = TMR1H;
 10955   00399A  CFCE F007          	movff	4046,TMR1_ReadTimer@readValHigh	;volatile
 10956                           
 10957                           ;mcc_generated_files/tmr1.c: 124:     readVal = ((uint16_t)readValHigh << 8) | readValLo
      +                          w;
 10958   00399E  5007               	movf	TMR1_ReadTimer@readValHigh^0,w,c
 10959   0039A0  6E03               	movwf	??_TMR1_ReadTimer^0,c
 10960   0039A2  5008               	movf	TMR1_ReadTimer@readValLow^0,w,c
 10961   0039A4  6E05               	movwf	TMR1_ReadTimer@readVal^0,c
 10962   0039A6  C003  F006         	movff	??_TMR1_ReadTimer,TMR1_ReadTimer@readVal+1
 10963                           
 10964                           ;mcc_generated_files/tmr1.c: 126:     return readVal;
 10965   0039AA  C005  F001         	movff	TMR1_ReadTimer@readVal,?_TMR1_ReadTimer
 10966   0039AE  C006  F002         	movff	TMR1_ReadTimer@readVal+1,?_TMR1_ReadTimer+1
 10967   0039B2  0012               	return		;funcret
 10968   0039B4                     __end_of_TMR1_ReadTimer:
 10969                           	callstack 0
 10970                           
 10971 ;; *************** function _I2C1_ISR *****************
 10972 ;; Defined at:
 10973 ;;		line 235 in file "mcc_generated_files/i2c1.c"
 10974 ;; Parameters:    Size  Location     Type
 10975 ;;		None
 10976 ;; Auto vars:     Size  Location     Type
 10977 ;;		None
 10978 ;; Return value:  Size  Location     Type
 10979 ;;                  1    wreg      void 
 10980 ;; Registers used:
 10981 ;;		wreg, fsr2l, fsr2h, status,2, status,0, cstack
 10982 ;; Tracked objects:
 10983 ;;		On entry : 0/0
 10984 ;;		On exit  : 0/0
 10985 ;;		Unchanged: 0/0
 10986 ;; Data sizes:     COMRAM   BANK0   BANK1   BANK2   BANK3   BANK4   BANK5   BANK6   BANK7   BANK8   BANK9  BANK10  BANK1
      +1  BANK12  BANK13  BANK14
 10987 ;;      Params:         0       0       0       0       0       0       0       0       0       0       0       0       
      +0       0       0       0
 10988 ;;      Locals:         0       0       0       0       0       0       0       0       0       0       0       0       
      +0       0       0       0
 10989 ;;      Temps:          2       0       0       0       0       0       0       0       0       0       0       0       
      +0       0       0       0
 10990 ;;      Totals:         2       0       0       0       0       0       0       0       0       0       0       0       
      +0       0       0       0
 10991 ;;Total ram usage:        2 bytes
 10992 ;; Hardware stack levels used: 1
 10993 ;; Hardware stack levels required when called: 1
 10994 ;; This function calls:
 10995 ;;		_I2C1_FunctionComplete
 10996 ;;		_I2C1_Stop
 10997 ;; This function is called by:
 10998 ;;		_INTERRUPT_InterruptManager
 10999 ;; This function uses a non-reentrant model
 11000 ;;
 11001                           
 11002                           	psect	text78
 11003   002820                     __ptext78:
 11004                           	callstack 0
 11005   002820                     _I2C1_ISR:
 11006                           	callstack 24
 11007                           
 11008                           ;mcc_generated_files/i2c1.c: 238:     static uint8_t *pi2c_buf_ptr;;mcc_generated_files/
      +                          i2c1.c: 239:     static uint16_t i2c_address = 0;;mcc_generated_files/i2c1.c: 240:     s
      +                          tatic uint8_t i2c_bytes_left = 0;;mcc_generated_files/i2c1.c: 241:     static uint8_t i2
      +                          c_10bit_address_restart = 0;;mcc_generated_files/i2c1.c: 243:     PIR3bits.SSP1IF = 0;
 11009                           
 11010                           ;incstack = 0
 11011   002820  010E               	movlb	14	; () banked
 11012   002822  91CD               	bcf	205,0,b	;volatile
 11013                           
 11014                           ;mcc_generated_files/i2c1.c: 247:     if(SSP1CON1bits.WCOL)
 11015   002824  AE96               	btfss	150,7,c	;volatile
 11016   002826  D0F9               	goto	i2l7287
 11017                           
 11018                           ; BSR set to: 14
 11019                           ;mcc_generated_files/i2c1.c: 248:     {;mcc_generated_files/i2c1.c: 250:         SSP1CON
      +                          1bits.WCOL = 0;
 11020   002828  9E96               	bcf	150,7,c	;volatile
 11021                           
 11022                           ; BSR set to: 14
 11023                           ;mcc_generated_files/i2c1.c: 251:         i2c1_state = S_MASTER_IDLE;
 11024   00282A  0E00               	movlw	0
 11025   00282C  6E58               	movwf	_i2c1_state^0,c
 11026                           
 11027                           ; BSR set to: 14
 11028                           ;mcc_generated_files/i2c1.c: 252:         *(p_i2c1_current->pTrFlag) = I2C1_MESSAGE_FAIL
      +                          ;
 11029   00282E  0100               	movlb	0	; () banked
 11030   002830  EE20 F003          	lfsr	2,3
 11031   002834  51F8               	movf	_p_i2c1_current& (0+255),w,b
 11032   002836  26D9               	addwf	fsr2l,f,c
 11033   002838  51F9               	movf	(_p_i2c1_current+1)& (0+255),w,b
 11034   00283A  22DA               	addwfc	fsr2h,f,c
 11035   00283C  CFDE F004          	movff	postinc2,??_I2C1_ISR
 11036   002840  CFDD F005          	movff	postdec2,??_I2C1_ISR+1
 11037   002844  C004  FFD9         	movff	??_I2C1_ISR,fsr2l
 11038   002848  C005  FFDA         	movff	??_I2C1_ISR+1,fsr2h
 11039   00284C  0E01               	movlw	1
 11040   00284E  6EDF               	movwf	indf2,c
 11041                           
 11042                           ; BSR set to: 0
 11043                           ;mcc_generated_files/i2c1.c: 255:         p_i2c1_current = ((void*)0);
 11044   002850  0E00               	movlw	0
 11045   002852  6FF8               	movwf	_p_i2c1_current& (0+255),b
 11046   002854  0E00               	movlw	0
 11047   002856  6FF9               	movwf	(_p_i2c1_current+1)& (0+255),b
 11048   002858  0012               	return	
 11049   00285A                     i2l695:
 11050                           
 11051                           ; BSR set to: 14
 11052                           ;mcc_generated_files/i2c1.c: 265:             if(i2c1_object.trStatus.s.empty != 1)
 11053   00285A  0100               	movlb	0	; () banked
 11054   00285C  B3EF               	btfsc	(_i2c1_object+4)& (0+255),1,b
 11055   00285E  0012               	return	
 11056                           
 11057                           ; BSR set to: 0
 11058                           ;mcc_generated_files/i2c1.c: 266:             {;mcc_generated_files/i2c1.c: 268:        
      +                                   p_i2c1_current = i2c1_object.pTrHead;
 11059   002860  C0ED  F0F8         	movff	_i2c1_object+2,_p_i2c1_current
 11060   002864  C0EE  F0F9         	movff	_i2c1_object+3,_p_i2c1_current+1
 11061                           
 11062                           ; BSR set to: 0
 11063                           ;mcc_generated_files/i2c1.c: 269:                 i2c1_trb_count = i2c1_object.pTrHead->
      +                          count;
 11064   002868  C0ED  FFD9         	movff	_i2c1_object+2,fsr2l
 11065   00286C  C0EE  FFDA         	movff	_i2c1_object+3,fsr2h
 11066   002870  50DF               	movf	indf2,w,c
 11067   002872  6E57               	movwf	_i2c1_trb_count^0,c
 11068                           
 11069                           ; BSR set to: 0
 11070                           ;mcc_generated_files/i2c1.c: 270:                 p_i2c1_trb_current = i2c1_object.pTrHe
      +                          ad->ptrb_list;
 11071   002874  EE20 F001          	lfsr	2,1
 11072   002878  51ED               	movf	(_i2c1_object+2)& (0+255),w,b
 11073   00287A  26D9               	addwf	fsr2l,f,c
 11074   00287C  51EE               	movf	(_i2c1_object+3)& (0+255),w,b
 11075   00287E  22DA               	addwfc	fsr2h,f,c
 11076   002880  CFDE F0FA          	movff	postinc2,_p_i2c1_trb_current
 11077   002884  CFDD F0FB          	movff	postdec2,_p_i2c1_trb_current+1
 11078                           
 11079                           ; BSR set to: 0
 11080                           ;mcc_generated_files/i2c1.c: 272:                 i2c1_object.pTrHead++;
 11081   002888  0E05               	movlw	5
 11082   00288A  27ED               	addwf	(_i2c1_object+2)& (0+255),f,b
 11083   00288C  0E00               	movlw	0
 11084   00288E  23EE               	addwfc	(_i2c1_object+3)& (0+255),f,b
 11085                           
 11086                           ; BSR set to: 0
 11087                           ;mcc_generated_files/i2c1.c: 275:                 if(i2c1_object.pTrHead == (i2c1_tr_que
      +                          ue + 1))
 11088   002890  0E4F               	movlw	low (_i2c1_tr_queue+5)
 11089   002892  19ED               	xorwf	(_i2c1_object+2)& (0+255),w,b
 11090   002894  E108               	bnz	i2l7179
 11091   002896  0E01               	movlw	high (_i2c1_tr_queue+5)
 11092   002898  19EE               	xorwf	(_i2c1_object+3)& (0+255),w,b
 11093   00289A  A4D8               	btfss	status,2,c
 11094   00289C  D004               	goto	i2l7179
 11095                           
 11096                           ; BSR set to: 0
 11097                           ;mcc_generated_files/i2c1.c: 276:                 {;mcc_generated_files/i2c1.c: 278:    
      +                                           i2c1_object.pTrHead = i2c1_tr_queue;
 11098   00289E  0E4A               	movlw	low _i2c1_tr_queue
 11099   0028A0  6FED               	movwf	(_i2c1_object+2)& (0+255),b
 11100   0028A2  0E01               	movlw	high _i2c1_tr_queue
 11101   0028A4  6FEE               	movwf	(_i2c1_object+3)& (0+255),b
 11102   0028A6                     i2l7179:
 11103                           
 11104                           ; BSR set to: 0
 11105                           ;mcc_generated_files/i2c1.c: 283:                 i2c1_object.trStatus.s.full = 0;
 11106   0028A6  91EF               	bcf	(_i2c1_object+4)& (0+255),0,b
 11107                           
 11108                           ;mcc_generated_files/i2c1.c: 286:                 if(i2c1_object.pTrHead == i2c1_object.
      +                          pTrTail)
 11109   0028A8  51EB               	movf	_i2c1_object& (0+255),w,b
 11110   0028AA  19ED               	xorwf	(_i2c1_object+2)& (0+255),w,b
 11111   0028AC  E104               	bnz	i2l698
 11112   0028AE  51EC               	movf	(_i2c1_object+1)& (0+255),w,b
 11113   0028B0  19EE               	xorwf	(_i2c1_object+3)& (0+255),w,b
 11114   0028B2  B4D8               	btfsc	status,2,c
 11115                           
 11116                           ; BSR set to: 0
 11117                           ;mcc_generated_files/i2c1.c: 287:                 {;mcc_generated_files/i2c1.c: 289:    
      +                                           i2c1_object.trStatus.s.empty = 1;
 11118   0028B4  83EF               	bsf	(_i2c1_object+4)& (0+255),1,b
 11119   0028B6                     i2l698:
 11120                           
 11121                           ; BSR set to: 0
 11122                           ;mcc_generated_files/i2c1.c: 293:                 SSP1CON2bits.SEN = 1;
 11123   0028B6  8097               	bsf	151,0,c	;volatile
 11124   0028B8                     i2l7183:
 11125                           
 11126                           ;mcc_generated_files/i2c1.c: 296:                 i2c1_state = S_MASTER_SEND_ADDR;
 11127   0028B8  0E02               	movlw	2
 11128   0028BA  6E58               	movwf	_i2c1_state^0,c
 11129   0028BC  0012               	return	
 11130   0028BE                     i2l701:
 11131                           
 11132                           ; BSR set to: 14
 11133                           ;mcc_generated_files/i2c1.c: 315:             if(SSP1CON2bits.ACKSTAT)
 11134   0028BE  AC97               	btfss	151,6,c	;volatile
 11135   0028C0  D006               	goto	i2l7191
 11136                           
 11137                           ; BSR set to: 14
 11138                           ;mcc_generated_files/i2c1.c: 316:             {;mcc_generated_files/i2c1.c: 317:        
      +                                   i2c1_object.i2cErrors++;
 11139   0028C2  0100               	movlb	0	; () banked
 11140   0028C4  2BF1               	incf	(_i2c1_object+6)& (0+255),f,b
 11141                           
 11142                           ; BSR set to: 0
 11143                           ;mcc_generated_files/i2c1.c: 318:                 I2C1_Stop(I2C1_MESSAGE_ADDRESS_NO_ACK)
      +                          ;
 11144   0028C6  0E04               	movlw	4
 11145   0028C8  ECF9  F01A         	call	_I2C1_Stop
 11146                           
 11147                           ;mcc_generated_files/i2c1.c: 319:             }
 11148   0028CC  0012               	return	
 11149   0028CE                     i2l7191:
 11150                           
 11151                           ; BSR set to: 14
 11152                           ;mcc_generated_files/i2c1.c: 321:             {;mcc_generated_files/i2c1.c: 323:        
      +                                   SSP1BUF = (i2c_address >> 1) & 0x00FF;
 11153   0028CE  90D8               	bcf	status,0,c
 11154   0028D0  305A               	rrcf	(I2C1_ISR@i2c_address+1)^0,w,c
 11155   0028D2  6E05               	movwf	(??_I2C1_ISR+1)^0,c
 11156   0028D4  3059               	rrcf	I2C1_ISR@i2c_address^0,w,c
 11157   0028D6  6E04               	movwf	??_I2C1_ISR^0,c
 11158   0028D8  5004               	movf	??_I2C1_ISR^0,w,c
 11159   0028DA  6E92               	movwf	146,c	;volatile
 11160                           
 11161                           ; BSR set to: 14
 11162                           ;mcc_generated_files/i2c1.c: 326:                 if(i2c_address & 0x01)
 11163   0028DC  A059               	btfss	I2C1_ISR@i2c_address^0,0,c
 11164   0028DE  D003               	goto	i2l7197
 11165                           
 11166                           ; BSR set to: 14
 11167                           ;mcc_generated_files/i2c1.c: 327:                 {;mcc_generated_files/i2c1.c: 330:    
      +                                           i2c1_state = S_MASTER_10BIT_RESTART;
 11168   0028E0  0E0B               	movlw	11
 11169   0028E2  6E58               	movwf	_i2c1_state^0,c
 11170                           
 11171                           ;mcc_generated_files/i2c1.c: 331:                 }
 11172   0028E4  0012               	return	
 11173   0028E6                     i2l7197:
 11174                           
 11175                           ;mcc_generated_files/i2c1.c: 333:                 {;mcc_generated_files/i2c1.c: 335:    
      +                                           i2c1_state = S_MASTER_SEND_DATA;
 11176   0028E6  0E03               	movlw	3
 11177   0028E8  6E58               	movwf	_i2c1_state^0,c
 11178   0028EA  0012               	return	
 11179   0028EC                     i2l706:
 11180                           
 11181                           ; BSR set to: 14
 11182                           ;mcc_generated_files/i2c1.c: 343:             if(SSP1CON2bits.ACKSTAT)
 11183   0028EC  AC97               	btfss	151,6,c	;volatile
 11184   0028EE  D006               	goto	i2l707
 11185                           
 11186                           ; BSR set to: 14
 11187                           ;mcc_generated_files/i2c1.c: 344:             {;mcc_generated_files/i2c1.c: 345:        
      +                                   i2c1_object.i2cErrors++;
 11188   0028F0  0100               	movlb	0	; () banked
 11189   0028F2  2BF1               	incf	(_i2c1_object+6)& (0+255),f,b
 11190                           
 11191                           ; BSR set to: 0
 11192                           ;mcc_generated_files/i2c1.c: 346:                 I2C1_Stop(I2C1_MESSAGE_ADDRESS_NO_ACK)
      +                          ;
 11193   0028F4  0E04               	movlw	4
 11194   0028F6  ECF9  F01A         	call	_I2C1_Stop
 11195                           
 11196                           ;mcc_generated_files/i2c1.c: 347:             }
 11197   0028FA  0012               	return	
 11198   0028FC                     i2l707:
 11199                           
 11200                           ; BSR set to: 14
 11201                           ;mcc_generated_files/i2c1.c: 349:             {;mcc_generated_files/i2c1.c: 352:        
      +                                   SSP1CON2bits.RSEN = 1;
 11202   0028FC  8297               	bsf	151,1,c	;volatile
 11203                           
 11204                           ; BSR set to: 14
 11205                           ;mcc_generated_files/i2c1.c: 356:                 i2c_address = 0x00F0 | ((i2c_address >
      +                          > 8) & 0x0006);
 11206   0028FE  C059  F004         	movff	I2C1_ISR@i2c_address,??_I2C1_ISR
 11207   002902  C05A  F005         	movff	I2C1_ISR@i2c_address+1,??_I2C1_ISR+1
 11208   002906  C005  F004         	movff	??_I2C1_ISR+1,??_I2C1_ISR
 11209   00290A  6A05               	clrf	(??_I2C1_ISR+1)^0,c
 11210   00290C  0E06               	movlw	6
 11211   00290E  1604               	andwf	??_I2C1_ISR^0,f,c
 11212   002910  0E00               	movlw	0
 11213   002912  1605               	andwf	(??_I2C1_ISR+1)^0,f,c
 11214   002914  0EF0               	movlw	240
 11215   002916  1004               	iorwf	??_I2C1_ISR^0,w,c
 11216   002918  6E59               	movwf	I2C1_ISR@i2c_address^0,c
 11217   00291A  5005               	movf	(??_I2C1_ISR+1)^0,w,c
 11218   00291C  6E5A               	movwf	(I2C1_ISR@i2c_address+1)^0,c
 11219                           
 11220                           ; BSR set to: 14
 11221                           ;mcc_generated_files/i2c1.c: 359:                 i2c_address |= 0x0001;
 11222   00291E  8059               	bsf	I2C1_ISR@i2c_address^0,0,c
 11223                           
 11224                           ; BSR set to: 14
 11225                           ;mcc_generated_files/i2c1.c: 362:                 i2c_10bit_address_restart = 1;
 11226   002920  0E01               	movlw	1
 11227   002922  6E55               	movwf	I2C1_ISR@i2c_10bit_address_restart^0,c
 11228   002924  D7C9               	goto	i2l7183
 11229   002926                     i2l7211:
 11230                           
 11231                           ; BSR set to: 14
 11232                           ;mcc_generated_files/i2c1.c: 383:             if(i2c_10bit_address_restart != 1)
 11233   002926  0455               	decf	I2C1_ISR@i2c_10bit_address_restart^0,w,c
 11234   002928  B4D8               	btfsc	status,2,c
 11235   00292A  D01B               	goto	i2l711
 11236                           
 11237                           ; BSR set to: 14
 11238                           ;mcc_generated_files/i2c1.c: 384:             {;mcc_generated_files/i2c1.c: 386:        
      +                                   i2c_address = p_i2c1_trb_current->address;
 11239   00292C  C0FA  FFD9         	movff	_p_i2c1_trb_current,fsr2l
 11240   002930  C0FB  FFDA         	movff	_p_i2c1_trb_current+1,fsr2h
 11241   002934  CFDE F059          	movff	postinc2,I2C1_ISR@i2c_address
 11242   002938  CFDD F05A          	movff	postdec2,I2C1_ISR@i2c_address+1
 11243                           
 11244                           ; BSR set to: 14
 11245                           ;mcc_generated_files/i2c1.c: 387:                 pi2c_buf_ptr = p_i2c1_trb_current->pbu
      +                          ffer;
 11246   00293C  0100               	movlb	0	; () banked
 11247   00293E  EE20 F003          	lfsr	2,3
 11248   002942  51FA               	movf	_p_i2c1_trb_current& (0+255),w,b
 11249   002944  26D9               	addwf	fsr2l,f,c
 11250   002946  51FB               	movf	(_p_i2c1_trb_current+1)& (0+255),w,b
 11251   002948  22DA               	addwfc	fsr2h,f,c
 11252   00294A  CFDE F138          	movff	postinc2,I2C1_ISR@pi2c_buf_ptr
 11253   00294E  CFDD F139          	movff	postdec2,I2C1_ISR@pi2c_buf_ptr+1
 11254                           
 11255                           ; BSR set to: 0
 11256                           ;mcc_generated_files/i2c1.c: 388:                 i2c_bytes_left = p_i2c1_trb_current->l
      +                          ength;
 11257   002952  EE20 F002          	lfsr	2,2
 11258   002956  51FA               	movf	_p_i2c1_trb_current& (0+255),w,b
 11259   002958  26D9               	addwf	fsr2l,f,c
 11260   00295A  51FB               	movf	(_p_i2c1_trb_current+1)& (0+255),w,b
 11261   00295C  22DA               	addwfc	fsr2h,f,c
 11262   00295E  50DF               	movf	indf2,w,c
 11263   002960  6E56               	movwf	I2C1_ISR@i2c_bytes_left^0,c
 11264   002962                     i2l711:
 11265                           
 11266                           ;mcc_generated_files/i2c1.c: 412:             {;mcc_generated_files/i2c1.c: 414:        
      +                                   SSP1BUF = i2c_address;
 11267   002962  C059  FF92         	movff	I2C1_ISR@i2c_address,3986	;volatile
 11268                           
 11269                           ;mcc_generated_files/i2c1.c: 415:                 if(i2c_address & 0x01)
 11270   002966  A059               	btfss	I2C1_ISR@i2c_address^0,0,c
 11271   002968  D7BE               	goto	i2l7197
 11272                           
 11273                           ;mcc_generated_files/i2c1.c: 416:                 {;mcc_generated_files/i2c1.c: 418:    
      +                                           i2c1_state = S_MASTER_ACK_ADDR;
 11274   00296A  0E05               	movlw	5
 11275   00296C  6E58               	movwf	_i2c1_state^0,c
 11276                           
 11277                           ;mcc_generated_files/i2c1.c: 419:                 }
 11278   00296E  0012               	return	
 11279   002970                     i2l717:
 11280                           
 11281                           ; BSR set to: 14
 11282                           ;mcc_generated_files/i2c1.c: 431:             if(SSP1CON2bits.ACKSTAT)
 11283   002970  AC97               	btfss	151,6,c	;volatile
 11284   002972  D007               	goto	i2l7239
 11285                           
 11286                           ; BSR set to: 14
 11287                           ;mcc_generated_files/i2c1.c: 432:             {;mcc_generated_files/i2c1.c: 434:        
      +                                   i2c1_object.i2cErrors++;
 11288   002974  0100               	movlb	0	; () banked
 11289   002976  2BF1               	incf	(_i2c1_object+6)& (0+255),f,b
 11290                           
 11291                           ; BSR set to: 0
 11292                           ;mcc_generated_files/i2c1.c: 437:                 SSP1CON2bits.ACKSTAT = 0;
 11293   002978  9C97               	bcf	151,6,c	;volatile
 11294                           
 11295                           ; BSR set to: 0
 11296                           ;mcc_generated_files/i2c1.c: 440:                 I2C1_Stop(I2C1_DATA_NO_ACK);
 11297   00297A  0E05               	movlw	5
 11298   00297C  ECF9  F01A         	call	_I2C1_Stop
 11299                           
 11300                           ;mcc_generated_files/i2c1.c: 442:             }
 11301   002980  0012               	return	
 11302   002982                     i2l7239:
 11303                           
 11304                           ; BSR set to: 14
 11305                           ;mcc_generated_files/i2c1.c: 444:             {;mcc_generated_files/i2c1.c: 446:        
      +                                   if(i2c_bytes_left-- == 0U)
 11306   002982  0656               	decf	I2C1_ISR@i2c_bytes_left^0,f,c
 11307   002984  2856               	incf	I2C1_ISR@i2c_bytes_left^0,w,c
 11308   002986  A4D8               	btfss	status,2,c
 11309   002988  D00D               	goto	i2l7249
 11310                           
 11311                           ; BSR set to: 14
 11312                           ;mcc_generated_files/i2c1.c: 447:                 {;mcc_generated_files/i2c1.c: 451:    
      +                                           p_i2c1_trb_current++;
 11313   00298A  0E05               	movlw	5
 11314   00298C  0100               	movlb	0	; () banked
 11315   00298E  27FA               	addwf	_p_i2c1_trb_current& (0+255),f,b
 11316   002990  0E00               	movlw	0
 11317   002992  23FB               	addwfc	(_p_i2c1_trb_current+1)& (0+255),f,b
 11318                           
 11319                           ; BSR set to: 0
 11320                           ;mcc_generated_files/i2c1.c: 454:                     if(--i2c1_trb_count == 0)
 11321   002994  2E57               	decfsz	_i2c1_trb_count^0,f,c
 11322   002996  D004               	goto	i2l721
 11323                           
 11324                           ; BSR set to: 0
 11325                           ;mcc_generated_files/i2c1.c: 455:                     {;mcc_generated_files/i2c1.c: 456:
      +                                                   I2C1_Stop(I2C1_MESSAGE_COMPLETE);
 11326   002998  0E00               	movlw	0
 11327   00299A  ECF9  F01A         	call	_I2C1_Stop
 11328                           
 11329                           ;mcc_generated_files/i2c1.c: 457:                     }
 11330   00299E  0012               	return	
 11331   0029A0                     i2l721:
 11332                           
 11333                           ; BSR set to: 0
 11334                           ;mcc_generated_files/i2c1.c: 459:                     {;mcc_generated_files/i2c1.c: 466:
      +                                                   SSP1CON2bits.RSEN = 1;
 11335   0029A0  8297               	bsf	151,1,c	;volatile
 11336   0029A2  D78A               	goto	i2l7183
 11337   0029A4                     i2l7249:
 11338                           
 11339                           ; BSR set to: 14
 11340                           ;mcc_generated_files/i2c1.c: 474:                 {;mcc_generated_files/i2c1.c: 476:    
      +                                           SSP1BUF = *pi2c_buf_ptr++;
 11341   0029A4  C138  FFD9         	movff	I2C1_ISR@pi2c_buf_ptr,fsr2l
 11342   0029A8  C139  FFDA         	movff	I2C1_ISR@pi2c_buf_ptr+1,fsr2h
 11343   0029AC  50DF               	movf	indf2,w,c
 11344   0029AE  6E92               	movwf	146,c	;volatile
 11345                           
 11346                           ; BSR set to: 14
 11347   0029B0  0101               	movlb	1	; () banked
 11348   0029B2  4B38               	infsnz	I2C1_ISR@pi2c_buf_ptr& (0+255),f,b
 11349   0029B4  2B39               	incf	(I2C1_ISR@pi2c_buf_ptr+1)& (0+255),f,b
 11350   0029B6  0012               	return	
 11351   0029B8                     i2l724:
 11352                           
 11353                           ; BSR set to: 14
 11354                           ;mcc_generated_files/i2c1.c: 484:             if(SSP1CON2bits.ACKSTAT)
 11355   0029B8  AC97               	btfss	151,6,c	;volatile
 11356   0029BA  D007               	goto	i2l725
 11357                           
 11358                           ; BSR set to: 14
 11359                           ;mcc_generated_files/i2c1.c: 485:             {;mcc_generated_files/i2c1.c: 488:        
      +                                   i2c1_object.i2cErrors++;
 11360   0029BC  0100               	movlb	0	; () banked
 11361   0029BE  2BF1               	incf	(_i2c1_object+6)& (0+255),f,b
 11362                           
 11363                           ; BSR set to: 0
 11364                           ;mcc_generated_files/i2c1.c: 491:                 I2C1_Stop(I2C1_MESSAGE_ADDRESS_NO_ACK)
      +                          ;
 11365   0029C0  0E04               	movlw	4
 11366   0029C2  ECF9  F01A         	call	_I2C1_Stop
 11367                           
 11368                           ;mcc_generated_files/i2c1.c: 494:                 SSP1CON2bits.ACKSTAT = 0;
 11369   0029C6  9C97               	bcf	151,6,c	;volatile
 11370                           
 11371                           ;mcc_generated_files/i2c1.c: 495:             }
 11372   0029C8  0012               	return	
 11373   0029CA                     i2l725:
 11374                           
 11375                           ; BSR set to: 14
 11376                           ;mcc_generated_files/i2c1.c: 497:             {;mcc_generated_files/i2c1.c: 498:        
      +                                   SSP1CON2bits.RCEN = 1;
 11377   0029CA  8697               	bsf	151,3,c	;volatile
 11378                           
 11379                           ; BSR set to: 14
 11380                           ;mcc_generated_files/i2c1.c: 499:                 i2c1_state = S_MASTER_ACK_RCV_DATA;
 11381   0029CC  0E08               	movlw	8
 11382   0029CE  6E58               	movwf	_i2c1_state^0,c
 11383   0029D0  0012               	return	
 11384   0029D2                     i2l7261:
 11385                           
 11386                           ; BSR set to: 14
 11387                           ;mcc_generated_files/i2c1.c: 508:             i2c1_state = S_MASTER_ACK_RCV_DATA;
 11388   0029D2  0E08               	movlw	8
 11389   0029D4  6E58               	movwf	_i2c1_state^0,c
 11390                           
 11391                           ; BSR set to: 14
 11392                           ;mcc_generated_files/i2c1.c: 511:             SSP1CON2bits.RCEN = 1;
 11393   0029D6  8697               	bsf	151,3,c	;volatile
 11394                           
 11395                           ;mcc_generated_files/i2c1.c: 513:             break;
 11396   0029D8  0012               	return	
 11397   0029DA                     i2l7265:
 11398                           
 11399                           ; BSR set to: 14
 11400                           ;mcc_generated_files/i2c1.c: 518:             *pi2c_buf_ptr++ = SSP1BUF;
 11401   0029DA  C138  FFD9         	movff	I2C1_ISR@pi2c_buf_ptr,fsr2l
 11402   0029DE  C139  FFDA         	movff	I2C1_ISR@pi2c_buf_ptr+1,fsr2h
 11403   0029E2  CF92 FFDF          	movff	3986,indf2	;volatile
 11404                           
 11405                           ; BSR set to: 14
 11406   0029E6  0101               	movlb	1	; () banked
 11407   0029E8  4B38               	infsnz	I2C1_ISR@pi2c_buf_ptr& (0+255),f,b
 11408   0029EA  2B39               	incf	(I2C1_ISR@pi2c_buf_ptr+1)& (0+255),f,b
 11409                           
 11410                           ; BSR set to: 1
 11411                           ;mcc_generated_files/i2c1.c: 521:             if(--i2c_bytes_left)
 11412   0029EC  0E01               	movlw	1
 11413   0029EE  5E56               	subwf	I2C1_ISR@i2c_bytes_left^0,f,c
 11414   0029F0  B4D8               	btfsc	status,2,c
 11415   0029F2  D004               	goto	i2l729
 11416                           
 11417                           ; BSR set to: 1
 11418                           ;mcc_generated_files/i2c1.c: 522:             {;mcc_generated_files/i2c1.c: 528:        
      +                                   SSP1CON2bits.ACKDT = 0;
 11419   0029F4  9A97               	bcf	151,5,c	;volatile
 11420                           
 11421                           ; BSR set to: 1
 11422                           ;mcc_generated_files/i2c1.c: 531:                 i2c1_state = S_MASTER_RCV_DATA;
 11423   0029F6  0E06               	movlw	6
 11424   0029F8  6E58               	movwf	_i2c1_state^0,c
 11425                           
 11426                           ;mcc_generated_files/i2c1.c: 532:             }
 11427   0029FA  D003               	goto	i2l7277
 11428   0029FC                     i2l729:
 11429                           
 11430                           ; BSR set to: 1
 11431                           ;mcc_generated_files/i2c1.c: 534:             {;mcc_generated_files/i2c1.c: 538:        
      +                                   SSP1CON2bits.ACKDT = 1;
 11432   0029FC  8A97               	bsf	151,5,c	;volatile
 11433                           
 11434                           ; BSR set to: 1
 11435                           ;mcc_generated_files/i2c1.c: 540:                 I2C1_FunctionComplete();
 11436   0029FE  EC2F  F01D         	call	_I2C1_FunctionComplete	;wreg free
 11437   002A02                     i2l7277:
 11438                           
 11439                           ;mcc_generated_files/i2c1.c: 544:             SSP1CON2bits.ACKEN = 1;
 11440   002A02  8897               	bsf	151,4,c	;volatile
 11441                           
 11442                           ;mcc_generated_files/i2c1.c: 545:             break;
 11443   002A04  0012               	return	
 11444   002A06                     i2l7279:
 11445                           
 11446                           ; BSR set to: 14
 11447                           ;mcc_generated_files/i2c1.c: 551:             I2C1_Stop(I2C1_MESSAGE_COMPLETE);
 11448   002A06  0E00               	movlw	0
 11449   002A08  ECF9  F01A         	call	_I2C1_Stop
 11450                           
 11451                           ;mcc_generated_files/i2c1.c: 552:             break;
 11452   002A0C  0012               	return	
 11453   002A0E                     i2l7281:
 11454                           
 11455                           ; BSR set to: 14
 11456                           ;mcc_generated_files/i2c1.c: 558:             i2c1_object.i2cErrors++;
 11457   002A0E  0100               	movlb	0	; () banked
 11458   002A10  2BF1               	incf	(_i2c1_object+6)& (0+255),f,b
 11459                           
 11460                           ; BSR set to: 0
 11461                           ;mcc_generated_files/i2c1.c: 559:             I2C1_Stop(I2C1_LOST_STATE);
 11462   002A12  0E06               	movlw	6
 11463   002A14  ECF9  F01A         	call	_I2C1_Stop
 11464                           
 11465                           ;mcc_generated_files/i2c1.c: 560:             break;
 11466   002A18  0012               	return	
 11467   002A1A                     i2l7287:
 11468                           
 11469                           ; BSR set to: 14
 11470   002A1A  5058               	movf	_i2c1_state^0,w,c
 11471   002A1C  6E04               	movwf	??_I2C1_ISR^0,c
 11472   002A1E  6A05               	clrf	(??_I2C1_ISR+1)^0,c
 11473                           
 11474                           ; Switch on 2 bytes has been partitioned into a top level switch of size 1, and 1 sub-sw
      +                          itches
 11475                           ; Switch size 1, requested type "simple"
 11476                           ; Number of cases is 1, Range of values is 0 to 0
 11477                           ; switch strategies available:
 11478                           ; Name         Instructions Cycles
 11479                           ; simple_byte            4     3 (average)
 11480                           ;	Chosen strategy is simple_byte
 11481   002A20  5005               	movf	(??_I2C1_ISR+1)^0,w,c
 11482   002A22  0A00               	xorlw	0	; case 0
 11483   002A24  A4D8               	btfss	status,2,c
 11484   002A26  D7F3               	goto	i2l7281
 11485                           
 11486                           ; BSR set to: 14
 11487                           ; Switch size 1, requested type "simple"
 11488                           ; Number of cases is 11, Range of values is 0 to 11
 11489                           ; switch strategies available:
 11490                           ; Name         Instructions Cycles
 11491                           ; simple_byte           34    18 (average)
 11492                           ;	Chosen strategy is simple_byte
 11493   002A28  5004               	movf	??_I2C1_ISR^0,w,c
 11494   002A2A  0A00               	xorlw	0	; case 0
 11495   002A2C  B4D8               	btfsc	status,2,c
 11496   002A2E  D715               	goto	i2l695
 11497   002A30  0A01               	xorlw	1	; case 1
 11498   002A32  B4D8               	btfsc	status,2,c
 11499   002A34  D7B5               	goto	i2l721
 11500   002A36  0A03               	xorlw	3	; case 2
 11501   002A38  B4D8               	btfsc	status,2,c
 11502   002A3A  D775               	goto	i2l7211
 11503   002A3C  0A01               	xorlw	1	; case 3
 11504   002A3E  B4D8               	btfsc	status,2,c
 11505   002A40  D797               	goto	i2l717
 11506   002A42  0A07               	xorlw	7	; case 4
 11507   002A44  B4D8               	btfsc	status,2,c
 11508   002A46  D7DF               	goto	i2l7279
 11509   002A48  0A01               	xorlw	1	; case 5
 11510   002A4A  B4D8               	btfsc	status,2,c
 11511   002A4C  D7B5               	goto	i2l724
 11512   002A4E  0A03               	xorlw	3	; case 6
 11513   002A50  B4D8               	btfsc	status,2,c
 11514   002A52  D7BF               	goto	i2l7261
 11515   002A54  0A01               	xorlw	1	; case 7
 11516   002A56  B4D8               	btfsc	status,2,c
 11517   002A58  D7D6               	goto	i2l7279
 11518   002A5A  0A0F               	xorlw	15	; case 8
 11519   002A5C  B4D8               	btfsc	status,2,c
 11520   002A5E  D7BD               	goto	i2l7265
 11521   002A60  0A02               	xorlw	2	; case 10
 11522   002A62  B4D8               	btfsc	status,2,c
 11523   002A64  D72C               	goto	i2l701
 11524   002A66  0A01               	xorlw	1	; case 11
 11525   002A68  B4D8               	btfsc	status,2,c
 11526   002A6A  D740               	goto	i2l706
 11527   002A6C  D7D0               	goto	i2l7281
 11528   002A6E                     __end_of_I2C1_ISR:
 11529                           	callstack 0
 11530                           
 11531 ;; *************** function _I2C1_Stop *****************
 11532 ;; Defined at:
 11533 ;;		line 583 in file "mcc_generated_files/i2c1.c"
 11534 ;; Parameters:    Size  Location     Type
 11535 ;;  completion_c    1    wreg     enum E10053
 11536 ;; Auto vars:     Size  Location     Type
 11537 ;;  completion_c    1    2[COMRAM] enum E10053
 11538 ;; Return value:  Size  Location     Type
 11539 ;;                  1    wreg      void 
 11540 ;; Registers used:
 11541 ;;		wreg, fsr2l, fsr2h, status,2, status,0
 11542 ;; Tracked objects:
 11543 ;;		On entry : 0/0
 11544 ;;		On exit  : 0/0
 11545 ;;		Unchanged: 0/0
 11546 ;; Data sizes:     COMRAM   BANK0   BANK1   BANK2   BANK3   BANK4   BANK5   BANK6   BANK7   BANK8   BANK9  BANK10  BANK1
      +1  BANK12  BANK13  BANK14
 11547 ;;      Params:         0       0       0       0       0       0       0       0       0       0       0       0       
      +0       0       0       0
 11548 ;;      Locals:         1       0       0       0       0       0       0       0       0       0       0       0       
      +0       0       0       0
 11549 ;;      Temps:          2       0       0       0       0       0       0       0       0       0       0       0       
      +0       0       0       0
 11550 ;;      Totals:         3       0       0       0       0       0       0       0       0       0       0       0       
      +0       0       0       0
 11551 ;;Total ram usage:        3 bytes
 11552 ;; Hardware stack levels used: 1
 11553 ;; This function calls:
 11554 ;;		Nothing
 11555 ;; This function is called by:
 11556 ;;		_I2C1_ISR
 11557 ;; This function uses a non-reentrant model
 11558 ;;
 11559                           
 11560                           	psect	text79
 11561   0035F2                     __ptext79:
 11562                           	callstack 0
 11563   0035F2                     _I2C1_Stop:
 11564                           	callstack 24
 11565                           
 11566                           ;incstack = 0
 11567                           ;I2C1_Stop@completion_code stored from wreg
 11568   0035F2  6E03               	movwf	I2C1_Stop@completion_code^0,c
 11569                           
 11570                           ;mcc_generated_files/i2c1.c: 583: void I2C1_Stop(I2C1_MESSAGE_STATUS completion_code);mc
      +                          c_generated_files/i2c1.c: 584: {;mcc_generated_files/i2c1.c: 586:     SSP1CON2bits.PEN =
      +                           1;
 11571   0035F4  8497               	bsf	151,2,c	;volatile
 11572                           
 11573                           ;mcc_generated_files/i2c1.c: 589:     if (p_i2c1_current->pTrFlag != ((void*)0))
 11574   0035F6  0100               	movlb	0	; () banked
 11575   0035F8  EE20 F003          	lfsr	2,3
 11576   0035FC  51F8               	movf	_p_i2c1_current& (0+255),w,b
 11577   0035FE  26D9               	addwf	fsr2l,f,c
 11578   003600  51F9               	movf	(_p_i2c1_current+1)& (0+255),w,b
 11579   003602  22DA               	addwfc	fsr2h,f,c
 11580   003604  50DE               	movf	postinc2,w,c
 11581   003606  10DE               	iorwf	postinc2,w,c
 11582   003608  B4D8               	btfsc	status,2,c
 11583   00360A  D010               	goto	i2l6877
 11584                           
 11585                           ; BSR set to: 0
 11586                           ;mcc_generated_files/i2c1.c: 590:     {;mcc_generated_files/i2c1.c: 592:         *(p_i2c
      +                          1_current->pTrFlag) = completion_code;
 11587   00360C  EE20 F003          	lfsr	2,3
 11588   003610  51F8               	movf	_p_i2c1_current& (0+255),w,b
 11589   003612  26D9               	addwf	fsr2l,f,c
 11590   003614  51F9               	movf	(_p_i2c1_current+1)& (0+255),w,b
 11591   003616  22DA               	addwfc	fsr2h,f,c
 11592   003618  CFDE F001          	movff	postinc2,??_I2C1_Stop
 11593   00361C  CFDD F002          	movff	postdec2,??_I2C1_Stop+1
 11594   003620  C001  FFD9         	movff	??_I2C1_Stop,fsr2l
 11595   003624  C002  FFDA         	movff	??_I2C1_Stop+1,fsr2h
 11596   003628  C003  FFDF         	movff	I2C1_Stop@completion_code,indf2
 11597   00362C                     i2l6877:
 11598                           
 11599                           ; BSR set to: 0
 11600                           ;mcc_generated_files/i2c1.c: 596:     i2c1_state = S_MASTER_IDLE;
 11601   00362C  0E00               	movlw	0
 11602   00362E  6E58               	movwf	_i2c1_state^0,c
 11603                           
 11604                           ; BSR set to: 0
 11605   003630  0012               	return		;funcret
 11606   003632                     __end_of_I2C1_Stop:
 11607                           	callstack 0
 11608                           
 11609 ;; *************** function _I2C1_FunctionComplete *****************
 11610 ;; Defined at:
 11611 ;;		line 565 in file "mcc_generated_files/i2c1.c"
 11612 ;; Parameters:    Size  Location     Type
 11613 ;;		None
 11614 ;; Auto vars:     Size  Location     Type
 11615 ;;		None
 11616 ;; Return value:  Size  Location     Type
 11617 ;;                  1    wreg      void 
 11618 ;; Registers used:
 11619 ;;		wreg, status,2, status,0
 11620 ;; Tracked objects:
 11621 ;;		On entry : 0/0
 11622 ;;		On exit  : 0/0
 11623 ;;		Unchanged: 0/0
 11624 ;; Data sizes:     COMRAM   BANK0   BANK1   BANK2   BANK3   BANK4   BANK5   BANK6   BANK7   BANK8   BANK9  BANK10  BANK1
      +1  BANK12  BANK13  BANK14
 11625 ;;      Params:         0       0       0       0       0       0       0       0       0       0       0       0       
      +0       0       0       0
 11626 ;;      Locals:         0       0       0       0       0       0       0       0       0       0       0       0       
      +0       0       0       0
 11627 ;;      Temps:          0       0       0       0       0       0       0       0       0       0       0       0       
      +0       0       0       0
 11628 ;;      Totals:         0       0       0       0       0       0       0       0       0       0       0       0       
      +0       0       0       0
 11629 ;;Total ram usage:        0 bytes
 11630 ;; Hardware stack levels used: 1
 11631 ;; This function calls:
 11632 ;;		Nothing
 11633 ;; This function is called by:
 11634 ;;		_I2C1_ISR
 11635 ;; This function uses a non-reentrant model
 11636 ;;
 11637                           
 11638                           	psect	text80
 11639   003A5E                     __ptext80:
 11640                           	callstack 0
 11641   003A5E                     _I2C1_FunctionComplete:
 11642                           	callstack 24
 11643                           
 11644                           ;mcc_generated_files/i2c1.c: 569:     p_i2c1_trb_current++;
 11645                           
 11646                           ; BSR set to: 0
 11647                           ;incstack = 0
 11648   003A5E  0E05               	movlw	5
 11649   003A60  0100               	movlb	0	; () banked
 11650   003A62  27FA               	addwf	_p_i2c1_trb_current& (0+255),f,b
 11651   003A64  0E00               	movlw	0
 11652   003A66  23FB               	addwfc	(_p_i2c1_trb_current+1)& (0+255),f,b
 11653                           
 11654                           ; BSR set to: 0
 11655                           ;mcc_generated_files/i2c1.c: 572:     if(--i2c1_trb_count == 0)
 11656   003A68  2E57               	decfsz	_i2c1_trb_count^0,f,c
 11657   003A6A  D003               	goto	i2l6885
 11658                           
 11659                           ; BSR set to: 0
 11660                           ;mcc_generated_files/i2c1.c: 573:     {;mcc_generated_files/i2c1.c: 574:         i2c1_st
      +                          ate = S_MASTER_SEND_STOP;
 11661   003A6C  0E04               	movlw	4
 11662   003A6E  6E58               	movwf	_i2c1_state^0,c
 11663                           
 11664                           ;mcc_generated_files/i2c1.c: 575:     }
 11665   003A70  0012               	return	
 11666   003A72                     i2l6885:
 11667                           
 11668                           ; BSR set to: 0
 11669                           ;mcc_generated_files/i2c1.c: 577:     {;mcc_generated_files/i2c1.c: 578:         i2c1_st
      +                          ate = S_MASTER_RESTART;
 11670   003A72  0E01               	movlw	1
 11671   003A74  6E58               	movwf	_i2c1_state^0,c
 11672                           
 11673                           ; BSR set to: 0
 11674   003A76  0012               	return		;funcret
 11675   003A78                     __end_of_I2C1_FunctionComplete:
 11676                           	callstack 0
 11677                           
 11678 ;; *************** function _I2C1_BusCollisionISR *****************
 11679 ;; Defined at:
 11680 ;;		line 742 in file "mcc_generated_files/i2c1.c"
 11681 ;; Parameters:    Size  Location     Type
 11682 ;;		None
 11683 ;; Auto vars:     Size  Location     Type
 11684 ;;		None
 11685 ;; Return value:  Size  Location     Type
 11686 ;;                  1    wreg      void 
 11687 ;; Registers used:
 11688 ;;		None
 11689 ;; Tracked objects:
 11690 ;;		On entry : 0/0
 11691 ;;		On exit  : 0/0
 11692 ;;		Unchanged: 0/0
 11693 ;; Data sizes:     COMRAM   BANK0   BANK1   BANK2   BANK3   BANK4   BANK5   BANK6   BANK7   BANK8   BANK9  BANK10  BANK1
      +1  BANK12  BANK13  BANK14
 11694 ;;      Params:         0       0       0       0       0       0       0       0       0       0       0       0       
      +0       0       0       0
 11695 ;;      Locals:         0       0       0       0       0       0       0       0       0       0       0       0       
      +0       0       0       0
 11696 ;;      Temps:          0       0       0       0       0       0       0       0       0       0       0       0       
      +0       0       0       0
 11697 ;;      Totals:         0       0       0       0       0       0       0       0       0       0       0       0       
      +0       0       0       0
 11698 ;;Total ram usage:        0 bytes
 11699 ;; Hardware stack levels used: 1
 11700 ;; This function calls:
 11701 ;;		Nothing
 11702 ;; This function is called by:
 11703 ;;		_INTERRUPT_InterruptManager
 11704 ;; This function uses a non-reentrant model
 11705 ;;
 11706                           
 11707                           	psect	text81
 11708   003BFC                     __ptext81:
 11709                           	callstack 0
 11710   003BFC                     _I2C1_BusCollisionISR:
 11711                           	callstack 25
 11712                           
 11713                           ;mcc_generated_files/i2c1.c: 745:  PIR3bits.BCL1IF = 0;
 11714                           
 11715                           ; BSR set to: 0
 11716                           ;incstack = 0
 11717   003BFC  010E               	movlb	14	; () banked
 11718   003BFE  93CD               	bcf	205,1,b	;volatile
 11719                           
 11720                           ; BSR set to: 14
 11721   003C00  0012               	return		;funcret
 11722   003C02                     __end_of_I2C1_BusCollisionISR:
 11723                           	callstack 0
 11724                           
 11725 ;; *************** function _EUSART1_Transmit_ISR *****************
 11726 ;; Defined at:
 11727 ;;		line 194 in file "mcc_generated_files/eusart1.c"
 11728 ;; Parameters:    Size  Location     Type
 11729 ;;		None
 11730 ;; Auto vars:     Size  Location     Type
 11731 ;;		None
 11732 ;; Return value:  Size  Location     Type
 11733 ;;                  1    wreg      void 
 11734 ;; Registers used:
 11735 ;;		wreg, fsr2l, fsr2h, status,2, status,0
 11736 ;; Tracked objects:
 11737 ;;		On entry : 0/0
 11738 ;;		On exit  : 0/0
 11739 ;;		Unchanged: 0/0
 11740 ;; Data sizes:     COMRAM   BANK0   BANK1   BANK2   BANK3   BANK4   BANK5   BANK6   BANK7   BANK8   BANK9  BANK10  BANK1
      +1  BANK12  BANK13  BANK14
 11741 ;;      Params:         0       0       0       0       0       0       0       0       0       0       0       0       
      +0       0       0       0
 11742 ;;      Locals:         0       0       0       0       0       0       0       0       0       0       0       0       
      +0       0       0       0
 11743 ;;      Temps:          0       0       0       0       0       0       0       0       0       0       0       0       
      +0       0       0       0
 11744 ;;      Totals:         0       0       0       0       0       0       0       0       0       0       0       0       
      +0       0       0       0
 11745 ;;Total ram usage:        0 bytes
 11746 ;; Hardware stack levels used: 1
 11747 ;; This function calls:
 11748 ;;		Nothing
 11749 ;; This function is called by:
 11750 ;;		_EUSART1_Initialize
 11751 ;;		_INTERRUPT_InterruptManager
 11752 ;; This function uses a non-reentrant model
 11753 ;;
 11754                           
 11755                           	psect	text82
 11756   0037A4                     __ptext82:
 11757                           	callstack 0
 11758   0037A4                     _EUSART1_Transmit_ISR:
 11759                           	callstack 25
 11760                           
 11761                           ;mcc_generated_files/eusart1.c: 198:     if(sizeof(eusart1TxBuffer) > eusart1TxBufferRem
      +                          aining)
 11762                           
 11763                           ; BSR set to: 14
 11764                           ;incstack = 0
 11765   0037A4  0E08               	movlw	8
 11766   0037A6  0100               	movlb	0	; () banked
 11767   0037A8  61FD               	cpfslt	_eusart1TxBufferRemaining& (0+255),b	;volatile
 11768   0037AA  D010               	goto	i2l1242
 11769                           
 11770                           ; BSR set to: 0
 11771                           ;mcc_generated_files/eusart1.c: 199:     {;mcc_generated_files/eusart1.c: 200:         T
      +                          X1REG = eusart1TxBuffer[eusart1TxTail++];
 11772   0037AC  0E10               	movlw	low _eusart1TxBuffer
 11773   0037AE  25FE               	addwf	_eusart1TxTail& (0+255),w,b	;volatile
 11774   0037B0  6ED9               	movwf	fsr2l,c
 11775   0037B2  6ADA               	clrf	fsr2h,c
 11776   0037B4  0E01               	movlw	high _eusart1TxBuffer
 11777   0037B6  22DA               	addwfc	fsr2h,f,c
 11778   0037B8  50DF               	movf	indf2,w,c
 11779   0037BA  6E9A               	movwf	154,c	;volatile
 11780                           
 11781                           ; BSR set to: 0
 11782   0037BC  2BFE               	incf	_eusart1TxTail& (0+255),f,b	;volatile
 11783                           
 11784                           ; BSR set to: 0
 11785                           ;mcc_generated_files/eusart1.c: 201:         if(sizeof(eusart1TxBuffer) <= eusart1TxTail
      +                          )
 11786   0037BE  0E07               	movlw	7
 11787   0037C0  65FE               	cpfsgt	_eusart1TxTail& (0+255),b	;volatile
 11788   0037C2  D002               	goto	i2l7385
 11789                           
 11790                           ; BSR set to: 0
 11791                           ;mcc_generated_files/eusart1.c: 202:         {;mcc_generated_files/eusart1.c: 203:      
      +                                 eusart1TxTail = 0;
 11792   0037C4  0E00               	movlw	0
 11793   0037C6  6FFE               	movwf	_eusart1TxTail& (0+255),b	;volatile
 11794   0037C8                     i2l7385:
 11795                           
 11796                           ; BSR set to: 0
 11797                           ;mcc_generated_files/eusart1.c: 205:         eusart1TxBufferRemaining++;
 11798   0037C8  2BFD               	incf	_eusart1TxBufferRemaining& (0+255),f,b	;volatile
 11799                           
 11800                           ;mcc_generated_files/eusart1.c: 206:     }
 11801   0037CA  0012               	return	
 11802   0037CC                     i2l1242:
 11803                           
 11804                           ; BSR set to: 0
 11805                           ;mcc_generated_files/eusart1.c: 208:     {;mcc_generated_files/eusart1.c: 209:         P
      +                          IE3bits.TX1IE = 0;
 11806   0037CC  010E               	movlb	14	; () banked
 11807   0037CE  99C5               	bcf	197,4,b	;volatile
 11808   0037D0  0012               	return		;funcret
 11809   0037D2                     __end_of_EUSART1_Transmit_ISR:
 11810                           	callstack 0
 11811                           
 11812 ;; *************** function _EUSART1_Receive_ISR *****************
 11813 ;; Defined at:
 11814 ;;		line 213 in file "mcc_generated_files/eusart1.c"
 11815 ;; Parameters:    Size  Location     Type
 11816 ;;		None
 11817 ;; Auto vars:     Size  Location     Type
 11818 ;;		None
 11819 ;; Return value:  Size  Location     Type
 11820 ;;                  1    wreg      void 
 11821 ;; Registers used:
 11822 ;;		wreg, fsr2l, fsr2h, status,2, status,0, pcl, pclath, pclatu, tosl, cstack
 11823 ;; Tracked objects:
 11824 ;;		On entry : 0/0
 11825 ;;		On exit  : 0/0
 11826 ;;		Unchanged: 0/0
 11827 ;; Data sizes:     COMRAM   BANK0   BANK1   BANK2   BANK3   BANK4   BANK5   BANK6   BANK7   BANK8   BANK9  BANK10  BANK1
      +1  BANK12  BANK13  BANK14
 11828 ;;      Params:         0       0       0       0       0       0       0       0       0       0       0       0       
      +0       0       0       0
 11829 ;;      Locals:         0       0       0       0       0       0       0       0       0       0       0       0       
      +0       0       0       0
 11830 ;;      Temps:          0       0       0       0       0       0       0       0       0       0       0       0       
      +0       0       0       0
 11831 ;;      Totals:         0       0       0       0       0       0       0       0       0       0       0       0       
      +0       0       0       0
 11832 ;;Total ram usage:        0 bytes
 11833 ;; Hardware stack levels used: 1
 11834 ;; Hardware stack levels required when called: 2
 11835 ;; This function calls:
 11836 ;;		NULL
 11837 ;;		_EUSART1_DefaultErrorHandler
 11838 ;;		_EUSART1_DefaultFramingErrorHandler
 11839 ;;		_EUSART1_DefaultOverrunErrorHandler
 11840 ;;		_EUSART1_RxDataHandler
 11841 ;; This function is called by:
 11842 ;;		_EUSART1_Initialize
 11843 ;;		_INTERRUPT_InterruptManager
 11844 ;; This function uses a non-reentrant model
 11845 ;;
 11846                           
 11847                           	psect	text83
 11848   00312E                     __ptext83:
 11849                           	callstack 0
 11850   00312E                     _EUSART1_Receive_ISR:
 11851                           	callstack 23
 11852                           
 11853                           ;mcc_generated_files/eusart1.c: 216:     eusart1RxStatusBuffer[eusart1RxHead].status = 0
      +                          ;
 11854                           
 11855                           ;incstack = 0
 11856   00312E  0E00               	movlw	low _eusart1RxStatusBuffer
 11857   003130  0100               	movlb	0	; () banked
 11858   003132  25FC               	addwf	_eusart1RxHead& (0+255),w,b	;volatile
 11859   003134  6ED9               	movwf	fsr2l,c
 11860   003136  6ADA               	clrf	fsr2h,c
 11861   003138  0E01               	movlw	high _eusart1RxStatusBuffer
 11862   00313A  22DA               	addwfc	fsr2h,f,c
 11863   00313C  6ADF               	clrf	indf2,c
 11864                           
 11865                           ; BSR set to: 0
 11866                           ;mcc_generated_files/eusart1.c: 218:     if(RC1STAbits.FERR){
 11867   00313E  A49D               	btfss	157,2,c	;volatile
 11868   003140  D014               	goto	i2u647_49
 11869                           
 11870                           ; BSR set to: 0
 11871                           ;mcc_generated_files/eusart1.c: 219:         eusart1RxStatusBuffer[eusart1RxHead].ferr =
      +                           1;
 11872   003142  0E00               	movlw	low _eusart1RxStatusBuffer
 11873   003144  25FC               	addwf	_eusart1RxHead& (0+255),w,b	;volatile
 11874   003146  6ED9               	movwf	fsr2l,c
 11875   003148  6ADA               	clrf	fsr2h,c
 11876   00314A  0E01               	movlw	high _eusart1RxStatusBuffer
 11877   00314C  22DA               	addwfc	fsr2h,f,c
 11878   00314E  0101               	movlb	1	; () banked
 11879   003150  82DF               	bsf	indf2,1,c
 11880                           
 11881                           ; BSR set to: 1
 11882                           ;mcc_generated_files/eusart1.c: 220:         EUSART1_FramingErrorHandler();
 11883   003152  D801               	call	i2u647_48
 11884   003154  D00A               	goto	i2u647_49
 11885   003156                     i2u647_48:
 11886   003156  0005               	push	
 11887   003158  6EFA               	movwf	pclath,c
 11888   00315A  515E               	movf	_EUSART1_FramingErrorHandler& (0+255),w,b
 11889   00315C  6EFD               	movwf	tosl,c
 11890   00315E  515F               	movf	(_EUSART1_FramingErrorHandler+1)& (0+255),w,b
 11891   003160  6EFE               	movwf	tosh,c
 11892   003162  5160               	movf	(_EUSART1_FramingErrorHandler+2)& (0+255),w,b
 11893   003164  6EFF               	movwf	tosu,c
 11894   003166  50FA               	movf	pclath,w,c
 11895   003168  0012               	return		;indir
 11896   00316A                     i2u647_49:
 11897                           
 11898                           ;mcc_generated_files/eusart1.c: 223:     if(RC1STAbits.OERR){
 11899   00316A  A29D               	btfss	157,1,c	;volatile
 11900   00316C  D015               	goto	i2u649_49
 11901                           
 11902                           ;mcc_generated_files/eusart1.c: 224:         eusart1RxStatusBuffer[eusart1RxHead].oerr =
      +                           1;
 11903   00316E  0E00               	movlw	low _eusart1RxStatusBuffer
 11904   003170  0100               	movlb	0	; () banked
 11905   003172  25FC               	addwf	_eusart1RxHead& (0+255),w,b	;volatile
 11906   003174  6ED9               	movwf	fsr2l,c
 11907   003176  6ADA               	clrf	fsr2h,c
 11908   003178  0E01               	movlw	high _eusart1RxStatusBuffer
 11909   00317A  22DA               	addwfc	fsr2h,f,c
 11910   00317C  0101               	movlb	1	; () banked
 11911   00317E  84DF               	bsf	indf2,2,c
 11912                           
 11913                           ; BSR set to: 1
 11914                           ;mcc_generated_files/eusart1.c: 225:         EUSART1_OverrunErrorHandler();
 11915   003180  D801               	call	i2u649_48
 11916   003182  D00A               	goto	i2u649_49
 11917   003184                     i2u649_48:
 11918   003184  0005               	push	
 11919   003186  6EFA               	movwf	pclath,c
 11920   003188  515B               	movf	_EUSART1_OverrunErrorHandler& (0+255),w,b
 11921   00318A  6EFD               	movwf	tosl,c
 11922   00318C  515C               	movf	(_EUSART1_OverrunErrorHandler+1)& (0+255),w,b
 11923   00318E  6EFE               	movwf	tosh,c
 11924   003190  515D               	movf	(_EUSART1_OverrunErrorHandler+2)& (0+255),w,b
 11925   003192  6EFF               	movwf	tosu,c
 11926   003194  50FA               	movf	pclath,w,c
 11927   003196  0012               	return		;indir
 11928   003198                     i2u649_49:
 11929                           
 11930                           ;mcc_generated_files/eusart1.c: 228:     if(eusart1RxStatusBuffer[eusart1RxHead].status)
      +                          {
 11931   003198  0E00               	movlw	low _eusart1RxStatusBuffer
 11932   00319A  0100               	movlb	0	; () banked
 11933   00319C  25FC               	addwf	_eusart1RxHead& (0+255),w,b	;volatile
 11934   00319E  6ED9               	movwf	fsr2l,c
 11935   0031A0  6ADA               	clrf	fsr2h,c
 11936   0031A2  0E01               	movlw	high _eusart1RxStatusBuffer
 11937   0031A4  22DA               	addwfc	fsr2h,f,c
 11938   0031A6  50DF               	movf	indf2,w,c
 11939   0031A8  B4D8               	btfsc	status,2,c
 11940   0031AA  D00D               	goto	i2l7405
 11941                           
 11942                           ; BSR set to: 0
 11943                           ;mcc_generated_files/eusart1.c: 229:         EUSART1_ErrorHandler();
 11944   0031AC  D801               	call	i2u651_48
 11945   0031AE  0012               	return	
 11946   0031B0                     i2u651_48:
 11947   0031B0  0005               	push	
 11948   0031B2  6EFA               	movwf	pclath,c
 11949   0031B4  0101               	movlb	1	; () banked
 11950   0031B6  5158               	movf	_EUSART1_ErrorHandler& (0+255),w,b
 11951   0031B8  6EFD               	movwf	tosl,c
 11952   0031BA  5159               	movf	(_EUSART1_ErrorHandler+1)& (0+255),w,b
 11953   0031BC  6EFE               	movwf	tosh,c
 11954   0031BE  515A               	movf	(_EUSART1_ErrorHandler+2)& (0+255),w,b
 11955   0031C0  6EFF               	movwf	tosu,c
 11956   0031C2  50FA               	movf	pclath,w,c
 11957   0031C4  0012               	return		;indir
 11958   0031C6                     i2l7405:
 11959                           
 11960                           ; BSR set to: 0
 11961                           ;mcc_generated_files/eusart1.c: 231:         EUSART1_RxDataHandler();
 11962   0031C6  EC99  F01C         	call	_EUSART1_RxDataHandler	;wreg free
 11963   0031CA  0012               	return		;funcret
 11964   0031CC                     __end_of_EUSART1_Receive_ISR:
 11965                           	callstack 0
 11966                           
 11967 ;; *************** function _EUSART1_DefaultOverrunErrorHandler *****************
 11968 ;; Defined at:
 11969 ;;		line 249 in file "mcc_generated_files/eusart1.c"
 11970 ;; Parameters:    Size  Location     Type
 11971 ;;		None
 11972 ;; Auto vars:     Size  Location     Type
 11973 ;;		None
 11974 ;; Return value:  Size  Location     Type
 11975 ;;                  1    wreg      void 
 11976 ;; Registers used:
 11977 ;;		None
 11978 ;; Tracked objects:
 11979 ;;		On entry : 0/0
 11980 ;;		On exit  : 0/0
 11981 ;;		Unchanged: 0/0
 11982 ;; Data sizes:     COMRAM   BANK0   BANK1   BANK2   BANK3   BANK4   BANK5   BANK6   BANK7   BANK8   BANK9  BANK10  BANK1
      +1  BANK12  BANK13  BANK14
 11983 ;;      Params:         0       0       0       0       0       0       0       0       0       0       0       0       
      +0       0       0       0
 11984 ;;      Locals:         0       0       0       0       0       0       0       0       0       0       0       0       
      +0       0       0       0
 11985 ;;      Temps:          0       0       0       0       0       0       0       0       0       0       0       0       
      +0       0       0       0
 11986 ;;      Totals:         0       0       0       0       0       0       0       0       0       0       0       0       
      +0       0       0       0
 11987 ;;Total ram usage:        0 bytes
 11988 ;; Hardware stack levels used: 1
 11989 ;; This function calls:
 11990 ;;		Nothing
 11991 ;; This function is called by:
 11992 ;;		_EUSART1_Initialize
 11993 ;;		_EUSART1_Receive_ISR
 11994 ;; This function uses a non-reentrant model
 11995 ;;
 11996                           
 11997                           	psect	text84
 11998   003C02                     __ptext84:
 11999                           	callstack 0
 12000   003C02                     _EUSART1_DefaultOverrunErrorHandler:
 12001                           	callstack 24
 12002                           
 12003                           ;mcc_generated_files/eusart1.c: 252:     RC1STAbits.CREN = 0;
 12004                           
 12005                           ;incstack = 0
 12006   003C02  989D               	bcf	157,4,c	;volatile
 12007                           
 12008                           ;mcc_generated_files/eusart1.c: 253:     RC1STAbits.CREN = 1;
 12009   003C04  889D               	bsf	157,4,c	;volatile
 12010   003C06  0012               	return		;funcret
 12011   003C08                     __end_of_EUSART1_DefaultOverrunErrorHandler:
 12012                           	callstack 0
 12013                           
 12014 ;; *************** function _EUSART1_DefaultFramingErrorHandler *****************
 12015 ;; Defined at:
 12016 ;;		line 247 in file "mcc_generated_files/eusart1.c"
 12017 ;; Parameters:    Size  Location     Type
 12018 ;;		None
 12019 ;; Auto vars:     Size  Location     Type
 12020 ;;		None
 12021 ;; Return value:  Size  Location     Type
 12022 ;;                  1    wreg      void 
 12023 ;; Registers used:
 12024 ;;		None
 12025 ;; Tracked objects:
 12026 ;;		On entry : 0/0
 12027 ;;		On exit  : 0/0
 12028 ;;		Unchanged: 0/0
 12029 ;; Data sizes:     COMRAM   BANK0   BANK1   BANK2   BANK3   BANK4   BANK5   BANK6   BANK7   BANK8   BANK9  BANK10  BANK1
      +1  BANK12  BANK13  BANK14
 12030 ;;      Params:         0       0       0       0       0       0       0       0       0       0       0       0       
      +0       0       0       0
 12031 ;;      Locals:         0       0       0       0       0       0       0       0       0       0       0       0       
      +0       0       0       0
 12032 ;;      Temps:          0       0       0       0       0       0       0       0       0       0       0       0       
      +0       0       0       0
 12033 ;;      Totals:         0       0       0       0       0       0       0       0       0       0       0       0       
      +0       0       0       0
 12034 ;;Total ram usage:        0 bytes
 12035 ;; Hardware stack levels used: 1
 12036 ;; This function calls:
 12037 ;;		Nothing
 12038 ;; This function is called by:
 12039 ;;		_EUSART1_Initialize
 12040 ;;		_EUSART1_Receive_ISR
 12041 ;; This function uses a non-reentrant model
 12042 ;;
 12043                           
 12044                           	psect	text85
 12045   003C24                     __ptext85:
 12046                           	callstack 0
 12047   003C24                     _EUSART1_DefaultFramingErrorHandler:
 12048                           	callstack 24
 12049                           
 12050                           ;incstack = 0
 12051   003C24  0012               	return		;funcret
 12052   003C26                     __end_of_EUSART1_DefaultFramingErrorHandler:
 12053                           	callstack 0
 12054                           
 12055 ;; *************** function _EUSART1_DefaultErrorHandler *****************
 12056 ;; Defined at:
 12057 ;;		line 257 in file "mcc_generated_files/eusart1.c"
 12058 ;; Parameters:    Size  Location     Type
 12059 ;;		None
 12060 ;; Auto vars:     Size  Location     Type
 12061 ;;		None
 12062 ;; Return value:  Size  Location     Type
 12063 ;;                  1    wreg      void 
 12064 ;; Registers used:
 12065 ;;		wreg, fsr2l, fsr2h, status,2, status,0, cstack
 12066 ;; Tracked objects:
 12067 ;;		On entry : 0/0
 12068 ;;		On exit  : 0/0
 12069 ;;		Unchanged: 0/0
 12070 ;; Data sizes:     COMRAM   BANK0   BANK1   BANK2   BANK3   BANK4   BANK5   BANK6   BANK7   BANK8   BANK9  BANK10  BANK1
      +1  BANK12  BANK13  BANK14
 12071 ;;      Params:         0       0       0       0       0       0       0       0       0       0       0       0       
      +0       0       0       0
 12072 ;;      Locals:         0       0       0       0       0       0       0       0       0       0       0       0       
      +0       0       0       0
 12073 ;;      Temps:          0       0       0       0       0       0       0       0       0       0       0       0       
      +0       0       0       0
 12074 ;;      Totals:         0       0       0       0       0       0       0       0       0       0       0       0       
      +0       0       0       0
 12075 ;;Total ram usage:        0 bytes
 12076 ;; Hardware stack levels used: 1
 12077 ;; Hardware stack levels required when called: 1
 12078 ;; This function calls:
 12079 ;;		_EUSART1_RxDataHandler
 12080 ;; This function is called by:
 12081 ;;		_EUSART1_Initialize
 12082 ;;		_EUSART1_Receive_ISR
 12083 ;; This function uses a non-reentrant model
 12084 ;;
 12085                           
 12086                           	psect	text86
 12087   003C08                     __ptext86:
 12088                           	callstack 0
 12089   003C08                     _EUSART1_DefaultErrorHandler:
 12090                           	callstack 23
 12091                           
 12092                           ;mcc_generated_files/eusart1.c: 258:     EUSART1_RxDataHandler();
 12093                           
 12094                           ;incstack = 0
 12095   003C08  EC99  F01C         	call	_EUSART1_RxDataHandler	;wreg free
 12096   003C0C  0012               	return		;funcret
 12097   003C0E                     __end_of_EUSART1_DefaultErrorHandler:
 12098                           	callstack 0
 12099                           
 12100 ;; *************** function _EUSART1_RxDataHandler *****************
 12101 ;; Defined at:
 12102 ;;		line 237 in file "mcc_generated_files/eusart1.c"
 12103 ;; Parameters:    Size  Location     Type
 12104 ;;		None
 12105 ;; Auto vars:     Size  Location     Type
 12106 ;;		None
 12107 ;; Return value:  Size  Location     Type
 12108 ;;                  1    wreg      void 
 12109 ;; Registers used:
 12110 ;;		wreg, fsr2l, fsr2h, status,2, status,0
 12111 ;; Tracked objects:
 12112 ;;		On entry : 0/0
 12113 ;;		On exit  : 0/0
 12114 ;;		Unchanged: 0/0
 12115 ;; Data sizes:     COMRAM   BANK0   BANK1   BANK2   BANK3   BANK4   BANK5   BANK6   BANK7   BANK8   BANK9  BANK10  BANK1
      +1  BANK12  BANK13  BANK14
 12116 ;;      Params:         0       0       0       0       0       0       0       0       0       0       0       0       
      +0       0       0       0
 12117 ;;      Locals:         0       0       0       0       0       0       0       0       0       0       0       0       
      +0       0       0       0
 12118 ;;      Temps:          0       0       0       0       0       0       0       0       0       0       0       0       
      +0       0       0       0
 12119 ;;      Totals:         0       0       0       0       0       0       0       0       0       0       0       0       
      +0       0       0       0
 12120 ;;Total ram usage:        0 bytes
 12121 ;; Hardware stack levels used: 1
 12122 ;; This function calls:
 12123 ;;		Nothing
 12124 ;; This function is called by:
 12125 ;;		_EUSART1_Receive_ISR
 12126 ;;		_EUSART1_DefaultErrorHandler
 12127 ;; This function uses a non-reentrant model
 12128 ;;
 12129                           
 12130                           	psect	text87
 12131   003932                     __ptext87:
 12132                           	callstack 0
 12133   003932                     _EUSART1_RxDataHandler:
 12134                           	callstack 24
 12135                           
 12136                           ;mcc_generated_files/eusart1.c: 239:     eusart1RxBuffer[eusart1RxHead++] = RC1REG;
 12137                           
 12138                           ;incstack = 0
 12139   003932  0E08               	movlw	low _eusart1RxBuffer
 12140   003934  0100               	movlb	0	; () banked
 12141   003936  25FC               	addwf	_eusart1RxHead& (0+255),w,b	;volatile
 12142   003938  6ED9               	movwf	fsr2l,c
 12143   00393A  6ADA               	clrf	fsr2h,c
 12144   00393C  0E01               	movlw	high _eusart1RxBuffer
 12145   00393E  22DA               	addwfc	fsr2h,f,c
 12146   003940  CF99 FFDF          	movff	3993,indf2	;volatile
 12147                           
 12148                           ; BSR set to: 0
 12149   003944  2BFC               	incf	_eusart1RxHead& (0+255),f,b	;volatile
 12150                           
 12151                           ; BSR set to: 0
 12152                           ;mcc_generated_files/eusart1.c: 240:     if(sizeof(eusart1RxBuffer) <= eusart1RxHead)
 12153   003946  0E07               	movlw	7
 12154   003948  65FC               	cpfsgt	_eusart1RxHead& (0+255),b	;volatile
 12155   00394A  D002               	goto	i2l6179
 12156                           
 12157                           ; BSR set to: 0
 12158                           ;mcc_generated_files/eusart1.c: 241:     {;mcc_generated_files/eusart1.c: 242:         e
      +                          usart1RxHead = 0;
 12159   00394C  0E00               	movlw	0
 12160   00394E  6FFC               	movwf	_eusart1RxHead& (0+255),b	;volatile
 12161   003950                     i2l6179:
 12162                           
 12163                           ; BSR set to: 0
 12164                           ;mcc_generated_files/eusart1.c: 244:     eusart1RxCount++;
 12165   003950  2A53               	incf	_eusart1RxCount^0,f,c	;volatile
 12166                           
 12167                           ; BSR set to: 0
 12168   003952  0012               	return		;funcret
 12169   003954                     __end_of_EUSART1_RxDataHandler:
 12170                           	callstack 0
 12171                           
 12172                           	psect	text88
 12173   000000                     __ptext88:
 12174                           	callstack 0
 12175                           
 12176                           	psect	rparam
 12177   000000                     
 12178                           	psect	temp
 12179   00005B                     btemp:
 12180                           	callstack 0
 12181   00005B                     	ds	1
 12182   000000                     int$flags	set	btemp
 12183   000000                     wtemp8	set	btemp+1
 12184   000000                     ttemp5	set	btemp+1
 12185   000000                     ttemp6	set	btemp+4
 12186   000000                     ttemp7	set	btemp+8
 12187                           
 12188                           	psect	idloc
 12189                           
 12190                           ;Config register IDLOC0 @ 0x200000
 12191                           ;	unspecified, using default values
 12192   200000                     	org	2097152
 12193   200000  0FFF               	dw	4095
 12194                           
 12195                           ;Config register IDLOC1 @ 0x200002
 12196                           ;	unspecified, using default values
 12197   200002                     	org	2097154
 12198   200002  0FFF               	dw	4095
 12199                           
 12200                           ;Config register IDLOC2 @ 0x200004
 12201                           ;	unspecified, using default values
 12202   200004                     	org	2097156
 12203   200004  0FFF               	dw	4095
 12204                           
 12205                           ;Config register IDLOC3 @ 0x200006
 12206                           ;	unspecified, using default values
 12207   200006                     	org	2097158
 12208   200006  0FFF               	dw	4095
 12209                           
 12210                           ;Config register IDLOC4 @ 0x200008
 12211                           ;	unspecified, using default values
 12212   200008                     	org	2097160
 12213   200008  0FFF               	dw	4095
 12214                           
 12215                           ;Config register IDLOC5 @ 0x20000A
 12216                           ;	unspecified, using default values
 12217   20000A                     	org	2097162
 12218   20000A  0FFF               	dw	4095
 12219                           
 12220                           ;Config register IDLOC6 @ 0x20000C
 12221                           ;	unspecified, using default values
 12222   20000C                     	org	2097164
 12223   20000C  0FFF               	dw	4095
 12224                           
 12225                           ;Config register IDLOC7 @ 0x20000E
 12226                           ;	unspecified, using default values
 12227   20000E                     	org	2097166
 12228   20000E  0FFF               	dw	4095
 12229                           
 12230                           	psect	config
 12231                           
 12232                           ;Config register CONFIG1L @ 0x300000
 12233                           ;	External Oscillator mode Selection bits
 12234                           ;	FEXTOSC = OFF, Oscillator not enabled
 12235                           ;	Power-up default value for COSC bits
 12236                           ;	RSTOSC = HFINTOSC_64MHZ, HFINTOSC with HFFRQ = 64 MHz and CDIV = 1:1
 12237   300000                     	org	3145728
 12238   300000  8C                 	db	140
 12239                           
 12240                           ;Config register CONFIG1H @ 0x300001
 12241                           ;	Clock Out Enable bit
 12242                           ;	CLKOUTEN = OFF, CLKOUT function is disabled
 12243                           ;	Clock Switch Enable bit
 12244                           ;	CSWEN = ON, Writing to NOSC and NDIV is allowed
 12245                           ;	Fail-Safe Clock Monitor Enable bit
 12246                           ;	FCMEN = ON, Fail-Safe Clock Monitor enabled
 12247   300001                     	org	3145729
 12248   300001  FF                 	db	255
 12249                           
 12250                           ;Config register CONFIG2L @ 0x300002
 12251                           ;	Master Clear Enable bit
 12252                           ;	MCLRE = EXTMCLR, If LVP = 0, MCLR pin is MCLR; If LVP = 1, RE3 pin function is MCLR
 12253                           ;	Power-up Timer Enable bit
 12254                           ;	PWRTE = OFF, Power up timer disabled
 12255                           ;	Low-power BOR enable bit
 12256                           ;	LPBOREN = OFF, ULPBOR disabled
 12257                           ;	Brown-out Reset Enable bits
 12258                           ;	BOREN = SBORDIS, Brown-out Reset enabled , SBOREN bit is ignored
 12259   300002                     	org	3145730
 12260   300002  FF                 	db	255
 12261                           
 12262                           ;Config register CONFIG2H @ 0x300003
 12263                           ;	Brown Out Reset Voltage selection bits
 12264                           ;	BORV = VBOR_2P45, Brown-out Reset Voltage (VBOR) set to 2.45V
 12265                           ;	ZCD Disable bit
 12266                           ;	ZCD = OFF, ZCD disabled. ZCD can be enabled by setting the ZCDSEN bit of ZCDCON
 12267                           ;	PPSLOCK bit One-Way Set Enable bit
 12268                           ;	PPS1WAY = ON, PPSLOCK bit can be cleared and set only once; PPS registers remain locke
      +                          d after one clear/set cycle
 12269                           ;	Stack Full/Underflow Reset Enable bit
 12270                           ;	STVREN = ON, Stack full/underflow will cause Reset
 12271                           ;	Debugger Enable bit
 12272                           ;	DEBUG = OFF, Background debugger disabled
 12273                           ;	Extended Instruction Set Enable bit
 12274                           ;	XINST = OFF, Extended Instruction Set and Indexed Addressing Mode disabled
 12275   300003                     	org	3145731
 12276   300003  FF                 	db	255
 12277                           
 12278                           ;Config register CONFIG3L @ 0x300004
 12279                           ;	WDT Period Select bits
 12280                           ;	WDTCPS = WDTCPS_31, Divider ratio 1:65536; software control of WDTPS
 12281                           ;	WDT operating mode
 12282                           ;	WDTE = OFF, WDT Disabled
 12283   300004                     	org	3145732
 12284   300004  9F                 	db	159
 12285                           
 12286                           ;Config register CONFIG3H @ 0x300005
 12287                           ;	WDT Window Select bits
 12288                           ;	WDTCWS = WDTCWS_7, window always open (100%); software control; keyed access not requi
      +                          red
 12289                           ;	WDT input clock selector
 12290                           ;	WDTCCS = SC, Software Control
 12291   300005                     	org	3145733
 12292   300005  FF                 	db	255
 12293                           
 12294                           ;Config register CONFIG4L @ 0x300006
 12295                           ;	Write Protection Block 0
 12296                           ;	WRT0 = OFF, Block 0 (000800-003FFFh) not write-protected
 12297                           ;	Write Protection Block 1
 12298                           ;	WRT1 = OFF, Block 1 (004000-007FFFh) not write-protected
 12299                           ;	Write Protection Block 2
 12300                           ;	WRT2 = OFF, Block 2 (008000-00BFFFh) not write-protected
 12301                           ;	Write Protection Block 3
 12302                           ;	WRT3 = OFF, Block 3 (00C000-00FFFFh) not write-protected
 12303                           ;	Write Protection Block 3
 12304                           ;	WRT4 = OFF, Block 4 (010000-013FFFh) not write-protected
 12305                           ;	Write Protection Block 3
 12306                           ;	WRT5 = OFF, Block 5 (014000-017FFFh) not write-protected
 12307                           ;	Write Protection Block 3
 12308                           ;	WRT6 = OFF, Block 6 (018000-01BFFFh) not write-protected
 12309                           ;	Write Protection Block 3
 12310                           ;	WRT7 = OFF, Block 7 (01C000-01FFFFh) not write-protected
 12311   300006                     	org	3145734
 12312   300006  FF                 	db	255
 12313                           
 12314                           ;Config register CONFIG4H @ 0x300007
 12315                           ;	Configuration Register Write Protection bit
 12316                           ;	WRTC = OFF, Configuration registers (300000-30000Bh) not write-protected
 12317                           ;	Boot Block Write Protection bit
 12318                           ;	WRTB = OFF, Boot Block (000000-0007FFh) not write-protected
 12319                           ;	Data EEPROM Write Protection bit
 12320                           ;	WRTD = OFF, Data EEPROM not write-protected
 12321                           ;	Scanner Enable bit
 12322                           ;	SCANE = ON, Scanner module is available for use, SCANMD bit can control the module
 12323                           ;	Low Voltage Programming Enable bit
 12324                           ;	LVP = OFF, HV on MCLR/VPP must be used for programming
 12325   300007                     	org	3145735
 12326   300007  DF                 	db	223
 12327                           
 12328                           ;Config register CONFIG5L @ 0x300008
 12329                           ;	UserNVM Program Memory Code Protection bit
 12330                           ;	CP = OFF, UserNVM code protection disabled
 12331                           ;	DataNVM Memory Code Protection bit
 12332                           ;	CPD = OFF, DataNVM code protection disabled
 12333   300008                     	org	3145736
 12334   300008  FF                 	db	255
 12335                           
 12336                           ;Config register CONFIG5H @ 0x300009
 12337                           ;	unspecified, using default values
 12338   300009                     	org	3145737
 12339   300009  FF                 	db	255
 12340                           
 12341                           ;Config register CONFIG6L @ 0x30000A
 12342                           ;	Table Read Protection Block 0
 12343                           ;	EBTR0 = OFF, Block 0 (000800-003FFFh) not protected from table reads executed in other
      +                           blocks
 12344                           ;	Table Read Protection Block 1
 12345                           ;	EBTR1 = OFF, Block 1 (004000-007FFFh) not protected from table reads executed in other
      +                           blocks
 12346                           ;	Table Read Protection Block 2
 12347                           ;	EBTR2 = OFF, Block 2 (008000-00BFFFh) not protected from table reads executed in other
      +                           blocks
 12348                           ;	Table Read Protection Block 3
 12349                           ;	EBTR3 = OFF, Block 3 (00C000-00FFFFh) not protected from table reads executed in other
      +                           blocks
 12350                           ;	Table Read Protection Block 4
 12351                           ;	EBTR4 = OFF, Block 4 (010000-013FFFh) not protected from table reads executed in other
      +                           blocks
 12352                           ;	Table Read Protection Block 5
 12353                           ;	EBTR5 = OFF, Block 5 (014000-017FFFh) not protected from table reads executed in other
      +                           blocks
 12354                           ;	Table Read Protection Block 6
 12355                           ;	EBTR6 = OFF, Block 6 (018000-01BFFFh) not protected from table reads executed in other
      +                           blocks
 12356                           ;	Table Read Protection Block 7
 12357                           ;	EBTR7 = OFF, Block 7 (01C000-01FFFFh) not protected from table reads executed in other
      +                           blocks
 12358   30000A                     	org	3145738
 12359   30000A  FF                 	db	255
 12360                           
 12361                           ;Config register CONFIG6H @ 0x30000B
 12362                           ;	Boot Block Table Read Protection bit
 12363                           ;	EBTRB = OFF, Boot Block (000000-0007FFh) not protected from table reads executed in ot
      +                          her blocks
 12364   30000B                     	org	3145739
 12365   30000B  FF                 	db	255
 12366                           tosu	equ	0xFFF
 12367                           tosh	equ	0xFFE
 12368                           tosl	equ	0xFFD
 12369                           stkptr	equ	0xFFC
 12370                           pclatu	equ	0xFFB
 12371                           pclath	equ	0xFFA
 12372                           pcl	equ	0xFF9
 12373                           tblptru	equ	0xFF8
 12374                           tblptrh	equ	0xFF7
 12375                           tblptrl	equ	0xFF6
 12376                           tablat	equ	0xFF5
 12377                           prodh	equ	0xFF4
 12378                           prodl	equ	0xFF3
 12379                           indf0	equ	0xFEF
 12380                           postinc0	equ	0xFEE
 12381                           postdec0	equ	0xFED
 12382                           preinc0	equ	0xFEC
 12383                           plusw0	equ	0xFEB
 12384                           fsr0h	equ	0xFEA
 12385                           fsr0l	equ	0xFE9
 12386                           wreg	equ	0xFE8
 12387                           indf1	equ	0xFE7
 12388                           postinc1	equ	0xFE6
 12389                           postdec1	equ	0xFE5
 12390                           preinc1	equ	0xFE4
 12391                           plusw1	equ	0xFE3
 12392                           fsr1h	equ	0xFE2
 12393                           fsr1l	equ	0xFE1
 12394                           bsr	equ	0xFE0
 12395                           indf2	equ	0xFDF
 12396                           postinc2	equ	0xFDE
 12397                           postdec2	equ	0xFDD
 12398                           preinc2	equ	0xFDC
 12399                           plusw2	equ	0xFDB
 12400                           fsr2h	equ	0xFDA
 12401                           fsr2l	equ	0xFD9
 12402                           status	equ	0xFD8

Data Sizes:
    Strings     8
    Constant    0
    Data        22
    BSS         232
    Persistent  39
    Stack       0

Auto Spaces:
    Space          Size  Autos    Used
    COMRAM           94     75      90
    BANK0           160    139     160
    BANK1           256      0     140
    BANK2           256      0     117
    BANK3           256      0       0
    BANK4           256      0       0
    BANK5           256      0       0
    BANK6           256      0       0
    BANK7           256      0       0
    BANK8           256      0       0
    BANK9           256      0       0
    BANK10          256      0       0
    BANK11          256      0       0
    BANK12          256      0       0
    BANK13          256      0       0
    BANK14          136      0       0

Pointer List with Targets:

    i2c1_tr_queue.ptrb_list.pbuffer	PTR unsigned char  size(2) Largest target is 0
		 -> VL53L0X_StaticInit@refSpadMap(COMRAM[6]), ReadRegisters@writeBuffer(COMRAM[2]), ReadRegisters@status(COMRAM[1]), ReadRegister16@regValueL(COMRAM[1]), 
		 -> ReadRegister16@regValueH(COMRAM[1]), ReadRegister16@reg(COMRAM[1]), ReadRegister16@status(COMRAM[1]), ReadRegister@regValue(COMRAM[1]), 
		 -> ReadRegister@reg(COMRAM[1]), ReadRegister@status(COMRAM[1]), WriteRegisters@writeBuffer(COMRAM[2]), WriteRegisters@status(COMRAM[1]), 
		 -> WriteRegister32@writeBuffer(COMRAM[5]), WriteRegister32@status(COMRAM[1]), WriteRegister16@writeBuffer(COMRAM[3]), WriteRegister16@status(COMRAM[1]), 
		 -> WriteRegister@writeBuffer(COMRAM[2]), WriteRegister@status(COMRAM[1]), 

    WriteRegister@writeTRB.pbuffer	PTR unsigned char  size(2) Largest target is 0
		 -> VL53L0X_StaticInit@refSpadMap(COMRAM[6]), ReadRegisters@writeBuffer(COMRAM[2]), ReadRegisters@status(COMRAM[1]), ReadRegister16@regValueL(COMRAM[1]), 
		 -> ReadRegister16@regValueH(COMRAM[1]), ReadRegister16@reg(COMRAM[1]), ReadRegister16@status(COMRAM[1]), ReadRegister@regValue(COMRAM[1]), 
		 -> ReadRegister@reg(COMRAM[1]), ReadRegister@status(COMRAM[1]), WriteRegisters@writeBuffer(COMRAM[2]), WriteRegisters@status(COMRAM[1]), 
		 -> WriteRegister32@writeBuffer(COMRAM[5]), WriteRegister32@status(COMRAM[1]), WriteRegister16@writeBuffer(COMRAM[3]), WriteRegister16@status(COMRAM[1]), 
		 -> WriteRegister@writeBuffer(COMRAM[2]), WriteRegister@status(COMRAM[1]), 

    WriteRegister16@writeTRB.pbuffer	PTR unsigned char  size(2) Largest target is 0
		 -> VL53L0X_StaticInit@refSpadMap(COMRAM[6]), ReadRegisters@writeBuffer(COMRAM[2]), ReadRegisters@status(COMRAM[1]), ReadRegister16@regValueL(COMRAM[1]), 
		 -> ReadRegister16@regValueH(COMRAM[1]), ReadRegister16@reg(COMRAM[1]), ReadRegister16@status(COMRAM[1]), ReadRegister@regValue(COMRAM[1]), 
		 -> ReadRegister@reg(COMRAM[1]), ReadRegister@status(COMRAM[1]), WriteRegisters@writeBuffer(COMRAM[2]), WriteRegisters@status(COMRAM[1]), 
		 -> WriteRegister32@writeBuffer(COMRAM[5]), WriteRegister32@status(COMRAM[1]), WriteRegister16@writeBuffer(COMRAM[3]), WriteRegister16@status(COMRAM[1]), 
		 -> WriteRegister@writeBuffer(COMRAM[2]), WriteRegister@status(COMRAM[1]), 

    WriteRegister32@writeTRB.pbuffer	PTR unsigned char  size(2) Largest target is 0
		 -> VL53L0X_StaticInit@refSpadMap(COMRAM[6]), ReadRegisters@writeBuffer(COMRAM[2]), ReadRegisters@status(COMRAM[1]), ReadRegister16@regValueL(COMRAM[1]), 
		 -> ReadRegister16@regValueH(COMRAM[1]), ReadRegister16@reg(COMRAM[1]), ReadRegister16@status(COMRAM[1]), ReadRegister@regValue(COMRAM[1]), 
		 -> ReadRegister@reg(COMRAM[1]), ReadRegister@status(COMRAM[1]), WriteRegisters@writeBuffer(COMRAM[2]), WriteRegisters@status(COMRAM[1]), 
		 -> WriteRegister32@writeBuffer(COMRAM[5]), WriteRegister32@status(COMRAM[1]), WriteRegister16@writeBuffer(COMRAM[3]), WriteRegister16@status(COMRAM[1]), 
		 -> WriteRegister@writeBuffer(COMRAM[2]), WriteRegister@status(COMRAM[1]), 

    WriteRegisters@writeTRB.pbuffer	PTR unsigned char  size(2) Largest target is 0
		 -> VL53L0X_StaticInit@refSpadMap(COMRAM[6]), ReadRegisters@writeBuffer(COMRAM[2]), ReadRegisters@status(COMRAM[1]), ReadRegister16@regValueL(COMRAM[1]), 
		 -> ReadRegister16@regValueH(COMRAM[1]), ReadRegister16@reg(COMRAM[1]), ReadRegister16@status(COMRAM[1]), ReadRegister@regValue(COMRAM[1]), 
		 -> ReadRegister@reg(COMRAM[1]), ReadRegister@status(COMRAM[1]), WriteRegisters@writeBuffer(COMRAM[2]), WriteRegisters@status(COMRAM[1]), 
		 -> WriteRegister32@writeBuffer(COMRAM[5]), WriteRegister32@status(COMRAM[1]), WriteRegister16@writeBuffer(COMRAM[3]), WriteRegister16@status(COMRAM[1]), 
		 -> WriteRegister@writeBuffer(COMRAM[2]), WriteRegister@status(COMRAM[1]), 

    ReadRegister@readTRB.pbuffer	PTR unsigned char  size(2) Largest target is 0
		 -> VL53L0X_StaticInit@refSpadMap(COMRAM[6]), ReadRegisters@writeBuffer(COMRAM[2]), ReadRegisters@status(COMRAM[1]), ReadRegister16@regValueL(COMRAM[1]), 
		 -> ReadRegister16@regValueH(COMRAM[1]), ReadRegister16@reg(COMRAM[1]), ReadRegister16@status(COMRAM[1]), ReadRegister@regValue(COMRAM[1]), 
		 -> ReadRegister@reg(COMRAM[1]), ReadRegister@status(COMRAM[1]), WriteRegisters@writeBuffer(COMRAM[2]), WriteRegisters@status(COMRAM[1]), 
		 -> WriteRegister32@writeBuffer(COMRAM[5]), WriteRegister32@status(COMRAM[1]), WriteRegister16@writeBuffer(COMRAM[3]), WriteRegister16@status(COMRAM[1]), 
		 -> WriteRegister@writeBuffer(COMRAM[2]), WriteRegister@status(COMRAM[1]), 

    ReadRegister16@readTRB.pbuffer	PTR unsigned char  size(2) Largest target is 0
		 -> VL53L0X_StaticInit@refSpadMap(COMRAM[6]), ReadRegisters@writeBuffer(COMRAM[2]), ReadRegisters@status(COMRAM[1]), ReadRegister16@regValueL(COMRAM[1]), 
		 -> ReadRegister16@regValueH(COMRAM[1]), ReadRegister16@reg(COMRAM[1]), ReadRegister16@status(COMRAM[1]), ReadRegister@regValue(COMRAM[1]), 
		 -> ReadRegister@reg(COMRAM[1]), ReadRegister@status(COMRAM[1]), WriteRegisters@writeBuffer(COMRAM[2]), WriteRegisters@status(COMRAM[1]), 
		 -> WriteRegister32@writeBuffer(COMRAM[5]), WriteRegister32@status(COMRAM[1]), WriteRegister16@writeBuffer(COMRAM[3]), WriteRegister16@status(COMRAM[1]), 
		 -> WriteRegister@writeBuffer(COMRAM[2]), WriteRegister@status(COMRAM[1]), 

    ReadRegisters@readTRB.pbuffer	PTR unsigned char  size(2) Largest target is 0
		 -> VL53L0X_StaticInit@refSpadMap(COMRAM[6]), ReadRegisters@writeBuffer(COMRAM[2]), ReadRegisters@status(COMRAM[1]), ReadRegister16@regValueL(COMRAM[1]), 
		 -> ReadRegister16@regValueH(COMRAM[1]), ReadRegister16@reg(COMRAM[1]), ReadRegister16@status(COMRAM[1]), ReadRegister@regValue(COMRAM[1]), 
		 -> ReadRegister@reg(COMRAM[1]), ReadRegister@status(COMRAM[1]), WriteRegisters@writeBuffer(COMRAM[2]), WriteRegisters@status(COMRAM[1]), 
		 -> WriteRegister32@writeBuffer(COMRAM[5]), WriteRegister32@status(COMRAM[1]), WriteRegister16@writeBuffer(COMRAM[3]), WriteRegister16@status(COMRAM[1]), 
		 -> WriteRegister@writeBuffer(COMRAM[2]), WriteRegister@status(COMRAM[1]), 

    i2c1_tr_queue.pTrFlag	PTR enum E10053 size(2) Largest target is 0
		 -> VL53L0X_StaticInit@refSpadMap(COMRAM[6]), ReadRegisters@writeBuffer(COMRAM[2]), ReadRegisters@status(COMRAM[1]), ReadRegister16@regValueL(COMRAM[1]), 
		 -> ReadRegister16@regValueH(COMRAM[1]), ReadRegister16@reg(COMRAM[1]), ReadRegister16@status(COMRAM[1]), ReadRegister@regValue(COMRAM[1]), 
		 -> ReadRegister@reg(COMRAM[1]), ReadRegister@status(COMRAM[1]), WriteRegisters@writeBuffer(COMRAM[2]), WriteRegisters@status(COMRAM[1]), 
		 -> WriteRegister32@writeBuffer(COMRAM[5]), WriteRegister32@status(COMRAM[1]), WriteRegister16@writeBuffer(COMRAM[3]), WriteRegister16@status(COMRAM[1]), 
		 -> WriteRegister@writeBuffer(COMRAM[2]), WriteRegister@status(COMRAM[1]), 

    i2c1_tr_queue.ptrb_list	PTR struct . size(2) Largest target is 0
		 -> I2C1_MasterRead@trBlock(BANK1[5]), I2C1_MasterWrite@trBlock(BANK1[5]), ReadRegisters@readTRB(COMRAM[10]), ReadRegister16@readTRB(COMRAM[15]), 
		 -> ReadRegister@readTRB(COMRAM[10]), WriteRegisters@writeTRB(COMRAM[10]), WriteRegister32@writeTRB(COMRAM[5]), WriteRegister16@writeTRB(COMRAM[5]), 
		 -> WriteRegister@writeTRB(COMRAM[5]), 

    TMR3_SetInterruptHandler@InterruptHandler	PTR FTN()void  size(3) Largest target is 1
		 -> TMR3_DefaultInterruptHandler(), 

    TMR3_InterruptHandler	PTR FTN()void  size(3) Largest target is 1
		 -> TMR3_DefaultInterruptHandler(), NULL(), 

    TMR1_SetInterruptHandler@InterruptHandler	PTR FTN()void  size(3) Largest target is 1
		 -> TMR1_DefaultInterruptHandler(), 

    TMR1_InterruptHandler	PTR FTN()void  size(3) Largest target is 1
		 -> TMR1_DefaultInterruptHandler(), NULL(), 

    TMR4_SetInterruptHandler@InterruptHandler	PTR FTN()void  size(3) Largest target is 1
		 -> TMR4_DefaultInterruptHandler(), 

    TMR4_InterruptHandler	PTR FTN()void  size(3) Largest target is 1
		 -> TMR4_DefaultInterruptHandler(), NULL(), 

    EUSART1_SetRxInterruptHandler@interruptHandler	PTR FTN()void  size(3) Largest target is 1
		 -> EUSART1_Receive_ISR(), 

    EUSART1_SetTxInterruptHandler@interruptHandler	PTR FTN()void  size(3) Largest target is 1
		 -> EUSART1_Transmit_ISR(), 

    EUSART1_SetErrorHandler@interruptHandler	PTR FTN()void  size(3) Largest target is 1
		 -> EUSART1_DefaultErrorHandler(), 

    EUSART1_SetOverrunErrorHandler@interruptHandler	PTR FTN()void  size(3) Largest target is 1
		 -> EUSART1_DefaultOverrunErrorHandler(), 

    EUSART1_SetFramingErrorHandler@interruptHandler	PTR FTN()void  size(3) Largest target is 1
		 -> EUSART1_DefaultFramingErrorHandler(), 

    EUSART1_ErrorHandler	PTR FTN()void  size(3) Largest target is 1
		 -> EUSART1_DefaultErrorHandler(), NULL(), 

    EUSART1_OverrunErrorHandler	PTR FTN()void  size(3) Largest target is 1
		 -> EUSART1_DefaultOverrunErrorHandler(), NULL(), 

    EUSART1_FramingErrorHandler	PTR FTN()void  size(3) Largest target is 1
		 -> EUSART1_DefaultFramingErrorHandler(), NULL(), 

    TMR0_SetInterruptHandler@InterruptHandler	PTR FTN()void  size(3) Largest target is 1
		 -> TMR0_DefaultInterruptHandler(), 

    TMR0_InterruptHandler	PTR FTN()void  size(3) Largest target is 1
		 -> TMR0_DefaultInterruptHandler(), NULL(), 

    EUSART1_RxDefaultInterruptHandler	PTR FTN()void  size(3) Largest target is 1
		 -> EUSART1_Receive_ISR(), NULL(), 

    EUSART1_TxDefaultInterruptHandler	PTR FTN()void  size(3) Largest target is 1
		 -> EUSART1_Transmit_ISR(), NULL(), 

    I2C1_MasterWriteTRBBuild@ptrb.pbuffer	PTR unsigned char  size(2) Largest target is 6
		 -> VL53L0X_StaticInit@refSpadMap(COMRAM[6]), ReadRegisters@writeBuffer(COMRAM[2]), ReadRegisters@status(COMRAM[1]), ReadRegister16@regValueL(COMRAM[1]), 
		 -> ReadRegister16@regValueH(COMRAM[1]), ReadRegister16@reg(COMRAM[1]), ReadRegister16@status(COMRAM[1]), ReadRegister@regValue(COMRAM[1]), 
		 -> ReadRegister@reg(COMRAM[1]), ReadRegister@status(COMRAM[1]), WriteRegisters@writeBuffer(COMRAM[2]), WriteRegisters@status(COMRAM[1]), 
		 -> WriteRegister32@writeBuffer(COMRAM[5]), WriteRegister32@status(COMRAM[1]), WriteRegister16@writeBuffer(COMRAM[3]), WriteRegister16@status(COMRAM[1]), 
		 -> WriteRegister@writeBuffer(COMRAM[2]), WriteRegister@status(COMRAM[1]), 

    I2C1_MasterReadTRBBuild@ptrb.pbuffer	PTR unsigned char  size(2) Largest target is 6
		 -> VL53L0X_StaticInit@refSpadMap(COMRAM[6]), ReadRegisters@writeBuffer(COMRAM[2]), ReadRegisters@status(COMRAM[1]), ReadRegister16@regValueL(COMRAM[1]), 
		 -> ReadRegister16@regValueH(COMRAM[1]), ReadRegister16@reg(COMRAM[1]), ReadRegister16@status(COMRAM[1]), ReadRegister@regValue(COMRAM[1]), 
		 -> ReadRegister@reg(COMRAM[1]), ReadRegister@status(COMRAM[1]), WriteRegisters@writeBuffer(COMRAM[2]), WriteRegisters@status(COMRAM[1]), 
		 -> WriteRegister32@writeBuffer(COMRAM[5]), WriteRegister32@status(COMRAM[1]), WriteRegister16@writeBuffer(COMRAM[3]), WriteRegister16@status(COMRAM[1]), 
		 -> WriteRegister@writeBuffer(COMRAM[2]), WriteRegister@status(COMRAM[1]), 

    i2c1_object.pTrTail.ptrb_list.pbuffer	PTR unsigned char  size(2) Largest target is 6
		 -> VL53L0X_StaticInit@refSpadMap(COMRAM[6]), ReadRegisters@writeBuffer(COMRAM[2]), ReadRegisters@status(COMRAM[1]), ReadRegister16@regValueL(COMRAM[1]), 
		 -> ReadRegister16@regValueH(COMRAM[1]), ReadRegister16@reg(COMRAM[1]), ReadRegister16@status(COMRAM[1]), ReadRegister@regValue(COMRAM[1]), 
		 -> ReadRegister@reg(COMRAM[1]), ReadRegister@status(COMRAM[1]), WriteRegisters@writeBuffer(COMRAM[2]), WriteRegisters@status(COMRAM[1]), 
		 -> WriteRegister32@writeBuffer(COMRAM[5]), WriteRegister32@status(COMRAM[1]), WriteRegister16@writeBuffer(COMRAM[3]), WriteRegister16@status(COMRAM[1]), 
		 -> WriteRegister@writeBuffer(COMRAM[2]), WriteRegister@status(COMRAM[1]), 

    i2c1_object.pTrTail.pTrFlag	PTR enum E10053 size(2) Largest target is 6
		 -> VL53L0X_StaticInit@refSpadMap(COMRAM[6]), ReadRegisters@writeBuffer(COMRAM[2]), ReadRegisters@status(COMRAM[1]), ReadRegister16@regValueL(COMRAM[1]), 
		 -> ReadRegister16@regValueH(COMRAM[1]), ReadRegister16@reg(COMRAM[1]), ReadRegister16@status(COMRAM[1]), ReadRegister@regValue(COMRAM[1]), 
		 -> ReadRegister@reg(COMRAM[1]), ReadRegister@status(COMRAM[1]), WriteRegisters@writeBuffer(COMRAM[2]), WriteRegisters@status(COMRAM[1]), 
		 -> WriteRegister32@writeBuffer(COMRAM[5]), WriteRegister32@status(COMRAM[1]), WriteRegister16@writeBuffer(COMRAM[3]), WriteRegister16@status(COMRAM[1]), 
		 -> WriteRegister@writeBuffer(COMRAM[2]), WriteRegister@status(COMRAM[1]), 

    i2c1_object.pTrTail.ptrb_list	PTR struct . size(2) Largest target is 18
		 -> I2C1_MasterRead@trBlock(BANK1[5]), I2C1_MasterWrite@trBlock(BANK1[5]), ReadRegisters@readTRB(COMRAM[10]), ReadRegister16@readTRB(COMRAM[15]), 
		 -> ReadRegister@readTRB(COMRAM[10]), WriteRegisters@writeTRB(COMRAM[10]), WriteRegister32@writeTRB(COMRAM[5]), WriteRegister16@writeTRB(COMRAM[5]), 
		 -> WriteRegister@writeTRB(COMRAM[5]), 

    F10164.pbuffer	PTR unsigned char  size(2) Largest target is 6
		 -> VL53L0X_StaticInit@refSpadMap(COMRAM[6]), ReadRegisters@writeBuffer(COMRAM[2]), ReadRegisters@status(COMRAM[1]), ReadRegister16@regValueL(COMRAM[1]), 
		 -> ReadRegister16@regValueH(COMRAM[1]), ReadRegister16@reg(COMRAM[1]), ReadRegister16@status(COMRAM[1]), ReadRegister@regValue(COMRAM[1]), 
		 -> ReadRegister@reg(COMRAM[1]), ReadRegister@status(COMRAM[1]), WriteRegisters@writeBuffer(COMRAM[2]), WriteRegisters@status(COMRAM[1]), 
		 -> WriteRegister32@writeBuffer(COMRAM[5]), WriteRegister32@status(COMRAM[1]), WriteRegister16@writeBuffer(COMRAM[3]), WriteRegister16@status(COMRAM[1]), 
		 -> WriteRegister@writeBuffer(COMRAM[2]), WriteRegister@status(COMRAM[1]), 

    F10158.pbuffer	PTR unsigned char  size(2) Largest target is 6
		 -> VL53L0X_StaticInit@refSpadMap(COMRAM[6]), ReadRegisters@writeBuffer(COMRAM[2]), ReadRegisters@status(COMRAM[1]), ReadRegister16@regValueL(COMRAM[1]), 
		 -> ReadRegister16@regValueH(COMRAM[1]), ReadRegister16@reg(COMRAM[1]), ReadRegister16@status(COMRAM[1]), ReadRegister@regValue(COMRAM[1]), 
		 -> ReadRegister@reg(COMRAM[1]), ReadRegister@status(COMRAM[1]), WriteRegisters@writeBuffer(COMRAM[2]), WriteRegisters@status(COMRAM[1]), 
		 -> WriteRegister32@writeBuffer(COMRAM[5]), WriteRegister32@status(COMRAM[1]), WriteRegister16@writeBuffer(COMRAM[3]), WriteRegister16@status(COMRAM[1]), 
		 -> WriteRegister@writeBuffer(COMRAM[2]), WriteRegister@status(COMRAM[1]), 

    I2C1_ISR@pi2c_buf_ptr	PTR unsigned char  size(2) Largest target is 6
		 -> NULL(NULL[0]), VL53L0X_StaticInit@refSpadMap(COMRAM[6]), ReadRegisters@writeBuffer(COMRAM[2]), ReadRegisters@status(COMRAM[1]), 
		 -> ReadRegister16@regValueL(COMRAM[1]), ReadRegister16@regValueH(COMRAM[1]), ReadRegister16@reg(COMRAM[1]), ReadRegister16@status(COMRAM[1]), 
		 -> ReadRegister@regValue(COMRAM[1]), ReadRegister@reg(COMRAM[1]), ReadRegister@status(COMRAM[1]), WriteRegisters@writeBuffer(COMRAM[2]), 
		 -> WriteRegisters@status(COMRAM[1]), WriteRegister32@writeBuffer(COMRAM[5]), WriteRegister32@status(COMRAM[1]), WriteRegister16@writeBuffer(COMRAM[3]), 
		 -> WriteRegister16@status(COMRAM[1]), WriteRegister@writeBuffer(COMRAM[2]), WriteRegister@status(COMRAM[1]), 

    p_i2c1_trb_current.pbuffer	PTR unsigned char  size(2) Largest target is 6
		 -> VL53L0X_StaticInit@refSpadMap(COMRAM[6]), ReadRegisters@writeBuffer(COMRAM[2]), ReadRegisters@status(COMRAM[1]), ReadRegister16@regValueL(COMRAM[1]), 
		 -> ReadRegister16@regValueH(COMRAM[1]), ReadRegister16@reg(COMRAM[1]), ReadRegister16@status(COMRAM[1]), ReadRegister@regValue(COMRAM[1]), 
		 -> ReadRegister@reg(COMRAM[1]), ReadRegister@status(COMRAM[1]), WriteRegisters@writeBuffer(COMRAM[2]), WriteRegisters@status(COMRAM[1]), 
		 -> WriteRegister32@writeBuffer(COMRAM[5]), WriteRegister32@status(COMRAM[1]), WriteRegister16@writeBuffer(COMRAM[3]), WriteRegister16@status(COMRAM[1]), 
		 -> WriteRegister@writeBuffer(COMRAM[2]), WriteRegister@status(COMRAM[1]), 

    p_i2c1_trb_current	PTR struct . size(2) Largest target is 18
		 -> I2C1_MasterRead@trBlock(BANK1[5]), I2C1_MasterWrite@trBlock(BANK1[5]), NULL(NULL[0]), ReadRegisters@readTRB(COMRAM[10]), 
		 -> ReadRegister16@readTRB(COMRAM[15]), ReadRegister@readTRB(COMRAM[10]), WriteRegisters@writeTRB(COMRAM[10]), WriteRegister32@writeTRB(COMRAM[5]), 
		 -> WriteRegister16@writeTRB(COMRAM[5]), WriteRegister@writeTRB(COMRAM[5]), 

    i2c1_object.pTrHead.pTrFlag	PTR enum E10053 size(2) Largest target is 6
		 -> VL53L0X_StaticInit@refSpadMap(COMRAM[6]), ReadRegisters@writeBuffer(COMRAM[2]), ReadRegisters@status(COMRAM[1]), ReadRegister16@regValueL(COMRAM[1]), 
		 -> ReadRegister16@regValueH(COMRAM[1]), ReadRegister16@reg(COMRAM[1]), ReadRegister16@status(COMRAM[1]), ReadRegister@regValue(COMRAM[1]), 
		 -> ReadRegister@reg(COMRAM[1]), ReadRegister@status(COMRAM[1]), WriteRegisters@writeBuffer(COMRAM[2]), WriteRegisters@status(COMRAM[1]), 
		 -> WriteRegister32@writeBuffer(COMRAM[5]), WriteRegister32@status(COMRAM[1]), WriteRegister16@writeBuffer(COMRAM[3]), WriteRegister16@status(COMRAM[1]), 
		 -> WriteRegister@writeBuffer(COMRAM[2]), WriteRegister@status(COMRAM[1]), 

    i2c1_object.pTrHead.ptrb_list	PTR struct . size(2) Largest target is 18
		 -> I2C1_MasterRead@trBlock(BANK1[5]), I2C1_MasterWrite@trBlock(BANK1[5]), ReadRegisters@readTRB(COMRAM[10]), ReadRegister16@readTRB(COMRAM[15]), 
		 -> ReadRegister@readTRB(COMRAM[10]), WriteRegisters@writeTRB(COMRAM[10]), WriteRegister32@writeTRB(COMRAM[5]), WriteRegister16@writeTRB(COMRAM[5]), 
		 -> WriteRegister@writeTRB(COMRAM[5]), 

    S79$pbuffer	PTR unsigned char  size(2) Largest target is 6
		 -> VL53L0X_StaticInit@refSpadMap(COMRAM[6]), ReadRegisters@writeBuffer(COMRAM[2]), ReadRegisters@status(COMRAM[1]), ReadRegister16@regValueL(COMRAM[1]), 
		 -> ReadRegister16@regValueH(COMRAM[1]), ReadRegister16@reg(COMRAM[1]), ReadRegister16@status(COMRAM[1]), ReadRegister@regValue(COMRAM[1]), 
		 -> ReadRegister@reg(COMRAM[1]), ReadRegister@status(COMRAM[1]), WriteRegisters@writeBuffer(COMRAM[2]), WriteRegisters@status(COMRAM[1]), 
		 -> WriteRegister32@writeBuffer(COMRAM[5]), WriteRegister32@status(COMRAM[1]), WriteRegister16@writeBuffer(COMRAM[3]), WriteRegister16@status(COMRAM[1]), 
		 -> WriteRegister@writeBuffer(COMRAM[2]), WriteRegister@status(COMRAM[1]), 

    p_i2c1_current.pbuffer	PTR unsigned char  size(2) Largest target is 6
		 -> VL53L0X_StaticInit@refSpadMap(COMRAM[6]), ReadRegisters@writeBuffer(COMRAM[2]), ReadRegisters@status(COMRAM[1]), ReadRegister16@regValueL(COMRAM[1]), 
		 -> ReadRegister16@regValueH(COMRAM[1]), ReadRegister16@reg(COMRAM[1]), ReadRegister16@status(COMRAM[1]), ReadRegister@regValue(COMRAM[1]), 
		 -> ReadRegister@reg(COMRAM[1]), ReadRegister@status(COMRAM[1]), WriteRegisters@writeBuffer(COMRAM[2]), WriteRegisters@status(COMRAM[1]), 
		 -> WriteRegister32@writeBuffer(COMRAM[5]), WriteRegister32@status(COMRAM[1]), WriteRegister16@writeBuffer(COMRAM[3]), WriteRegister16@status(COMRAM[1]), 
		 -> WriteRegister@writeBuffer(COMRAM[2]), WriteRegister@status(COMRAM[1]), 

    S1793$pTrFlag	PTR enum E10053 size(2) Largest target is 6
		 -> VL53L0X_StaticInit@refSpadMap(COMRAM[6]), ReadRegisters@writeBuffer(COMRAM[2]), ReadRegisters@status(COMRAM[1]), ReadRegister16@regValueL(COMRAM[1]), 
		 -> ReadRegister16@regValueH(COMRAM[1]), ReadRegister16@reg(COMRAM[1]), ReadRegister16@status(COMRAM[1]), ReadRegister@regValue(COMRAM[1]), 
		 -> ReadRegister@reg(COMRAM[1]), ReadRegister@status(COMRAM[1]), WriteRegisters@writeBuffer(COMRAM[2]), WriteRegisters@status(COMRAM[1]), 
		 -> WriteRegister32@writeBuffer(COMRAM[5]), WriteRegister32@status(COMRAM[1]), WriteRegister16@writeBuffer(COMRAM[3]), WriteRegister16@status(COMRAM[1]), 
		 -> WriteRegister@writeBuffer(COMRAM[2]), WriteRegister@status(COMRAM[1]), 

    p_i2c1_current.pTrFlag	PTR enum E10053 size(2) Largest target is 6
		 -> VL53L0X_StaticInit@refSpadMap(COMRAM[6]), ReadRegisters@writeBuffer(COMRAM[2]), ReadRegisters@status(COMRAM[1]), ReadRegister16@regValueL(COMRAM[1]), 
		 -> ReadRegister16@regValueH(COMRAM[1]), ReadRegister16@reg(COMRAM[1]), ReadRegister16@status(COMRAM[1]), ReadRegister@regValue(COMRAM[1]), 
		 -> ReadRegister@reg(COMRAM[1]), ReadRegister@status(COMRAM[1]), WriteRegisters@writeBuffer(COMRAM[2]), WriteRegisters@status(COMRAM[1]), 
		 -> WriteRegister32@writeBuffer(COMRAM[5]), WriteRegister32@status(COMRAM[1]), WriteRegister16@writeBuffer(COMRAM[3]), WriteRegister16@status(COMRAM[1]), 
		 -> WriteRegister@writeBuffer(COMRAM[2]), WriteRegister@status(COMRAM[1]), 

    S1793$ptrb_list	PTR struct . size(2) Largest target is 18
		 -> I2C1_MasterRead@trBlock(BANK1[5]), I2C1_MasterWrite@trBlock(BANK1[5]), ReadRegisters@readTRB(COMRAM[10]), ReadRegister16@readTRB(COMRAM[15]), 
		 -> ReadRegister@readTRB(COMRAM[10]), WriteRegisters@writeTRB(COMRAM[10]), WriteRegister32@writeTRB(COMRAM[5]), WriteRegister16@writeTRB(COMRAM[5]), 
		 -> WriteRegister@writeTRB(COMRAM[5]), 

    p_i2c1_current.ptrb_list	PTR struct . size(2) Largest target is 18
		 -> I2C1_MasterRead@trBlock(BANK1[5]), I2C1_MasterWrite@trBlock(BANK1[5]), ReadRegisters@readTRB(COMRAM[10]), ReadRegister16@readTRB(COMRAM[15]), 
		 -> ReadRegister@readTRB(COMRAM[10]), WriteRegisters@writeTRB(COMRAM[10]), WriteRegister32@writeTRB(COMRAM[5]), WriteRegister16@writeTRB(COMRAM[5]), 
		 -> WriteRegister@writeTRB(COMRAM[5]), 

    p_i2c1_current	PTR volatile struct . size(2) Largest target is 7
		 -> i2c1_tr_queue(BANK1[5]), NULL(NULL[0]), 

    S1804$pTrHead	PTR struct . size(2) Largest target is 7
		 -> i2c1_tr_queue(BANK1[5]), 

    i2c1_object.pTrHead	PTR struct . size(2) Largest target is 7
		 -> i2c1_tr_queue(BANK1[5]), 

    S1804$pTrTail	PTR struct . size(2) Largest target is 7
		 -> i2c1_tr_queue(BANK1[5]), 

    i2c1_object.pTrTail	PTR struct . size(2) Largest target is 7
		 -> i2c1_tr_queue(BANK1[5]), 

    IOCCF0_SetInterruptHandler@InterruptHandler	PTR FTN()void  size(3) Largest target is 1
		 -> IOCCF0_DefaultInterruptHandler(), 

    IOCCF0_InterruptHandler	PTR FTN()void  size(3) Largest target is 1
		 -> NULL(), IOCCF0_DefaultInterruptHandler(), 

    IOCAF7_SetInterruptHandler@InterruptHandler	PTR FTN()void  size(3) Largest target is 1
		 -> IOCAF7_DefaultInterruptHandler(), 

    IOCAF7_InterruptHandler	PTR FTN()void  size(3) Largest target is 1
		 -> NULL(), IOCAF7_DefaultInterruptHandler(), 

    IOCAF6_SetInterruptHandler@InterruptHandler	PTR FTN()void  size(3) Largest target is 1
		 -> IOCAF6_DefaultInterruptHandler(), 

    IOCAF6_InterruptHandler	PTR FTN()void  size(3) Largest target is 1
		 -> NULL(), IOCAF6_DefaultInterruptHandler(), 

    IOCAF5_SetInterruptHandler@InterruptHandler	PTR FTN()void  size(3) Largest target is 1
		 -> IOCAF5_DefaultInterruptHandler(), 

    IOCAF5_InterruptHandler	PTR FTN()void  size(3) Largest target is 1
		 -> NULL(), IOCAF5_DefaultInterruptHandler(), 


Critical Paths under _main in COMRAM

    None.

Critical Paths under _INTERRUPT_InterruptManager in COMRAM

    _TMR4_ISR->_TMR4_DefaultInterruptHandler
    _TMR4_DefaultInterruptHandler->i2___fltol
    i2___fltol->i2___fladd
    i2___flmul->i2___xxtofl
    i2___fladd->i2___flmul
    _TMR3_ISR->_TMR3_WriteTimer
    _TMR3_DefaultInterruptHandler->_TMR3_WriteTimer
    _TMR1_ISR->_TMR1_WriteTimer
    _TMR1_DefaultInterruptHandler->_TMR1_WriteTimer
    _IOCCF0_DefaultInterruptHandler->___aldiv
    _IOCAF6_ISR->_IOCAF6_DefaultInterruptHandler
    _IOCAF5_DefaultInterruptHandler->___aldiv
    ___aldiv->_TMR1_ReadTimer
    ___aldiv->_TMR3_ReadTimer
    _I2C1_ISR->_I2C1_Stop

Critical Paths under _main in BANK0

    _main->_Speed_Motors
    _initLCD->_clearLCD
    _clearLCD->_writeLCD
    _writeLCD->_lcdNibble
    ___fltol->___fladd
    ___flmul->___xxtofl
    ___fladd->___flmul
    _Speed_Motors->___fltol
    _SYSTEM_Initialize->_TMR0_Initialize
    _SYSTEM_Initialize->_TMR1_Initialize
    _SYSTEM_Initialize->_TMR3_Initialize
    _TMR4_Initialize->_TMR4_SetInterruptHandler
    _TMR3_Initialize->_TMR3_SetInterruptHandler
    _TMR1_Initialize->_TMR1_SetInterruptHandler
    _TMR0_Initialize->_TMR0_SetInterruptHandler
    _PIN_MANAGER_Initialize->_IOCAF5_SetInterruptHandler
    _PIN_MANAGER_Initialize->_IOCAF6_SetInterruptHandler
    _PIN_MANAGER_Initialize->_IOCAF7_SetInterruptHandler
    _PIN_MANAGER_Initialize->_IOCCF0_SetInterruptHandler
    _EUSART1_Initialize->_EUSART1_SetErrorHandler
    _EUSART1_Initialize->_EUSART1_SetFramingErrorHandler
    _EUSART1_Initialize->_EUSART1_SetOverrunErrorHandler
    _EUSART1_Initialize->_EUSART1_SetRxInterruptHandler
    _EUSART1_Initialize->_EUSART1_SetTxInterruptHandler

Critical Paths under _INTERRUPT_InterruptManager in BANK0

    None.

Critical Paths under _main in BANK1

    None.

Critical Paths under _INTERRUPT_InterruptManager in BANK1

    None.

Critical Paths under _main in BANK2

    None.

Critical Paths under _INTERRUPT_InterruptManager in BANK2

    None.

Critical Paths under _main in BANK3

    None.

Critical Paths under _INTERRUPT_InterruptManager in BANK3

    None.

Critical Paths under _main in BANK4

    None.

Critical Paths under _INTERRUPT_InterruptManager in BANK4

    None.

Critical Paths under _main in BANK5

    None.

Critical Paths under _INTERRUPT_InterruptManager in BANK5

    None.

Critical Paths under _main in BANK6

    None.

Critical Paths under _INTERRUPT_InterruptManager in BANK6

    None.

Critical Paths under _main in BANK7

    None.

Critical Paths under _INTERRUPT_InterruptManager in BANK7

    None.

Critical Paths under _main in BANK8

    None.

Critical Paths under _INTERRUPT_InterruptManager in BANK8

    None.

Critical Paths under _main in BANK9

    None.

Critical Paths under _INTERRUPT_InterruptManager in BANK9

    None.

Critical Paths under _main in BANK10

    None.

Critical Paths under _INTERRUPT_InterruptManager in BANK10

    None.

Critical Paths under _main in BANK11

    None.

Critical Paths under _INTERRUPT_InterruptManager in BANK11

    None.

Critical Paths under _main in BANK12

    None.

Critical Paths under _INTERRUPT_InterruptManager in BANK12

    None.

Critical Paths under _main in BANK13

    None.

Critical Paths under _INTERRUPT_InterruptManager in BANK13

    None.

Critical Paths under _main in BANK14

    None.

Critical Paths under _INTERRUPT_InterruptManager in BANK14

    None.

Call Graph Tables:

 ---------------------------------------------------------------------------------
 (Depth) Function   	        Calls       Base Space   Used Autos Params    Refs
 ---------------------------------------------------------------------------------
 (0) _main                                                74    74      0   22605
                                             69 BANK0     70    70      0
           _ADCC_GetSingleConversion
                             _Buzzer
                       _Digital_read
                                _LED
                             _Motors
                  _SYSTEM_Initialize
                       _Speed_Motors
                            ___fladd
                            ___flmul
                            ___fltol
                           ___xxtofl
                           _clearLCD
                            _initLCD
                             _millis
                           _retroLCD
 ---------------------------------------------------------------------------------
 (1) _retroLCD                                             1     1      0      22
                                              0 BANK0      1     1      0
 ---------------------------------------------------------------------------------
 (1) _millis                                               4     0      4       0
                                              0 BANK0      4     0      4
 ---------------------------------------------------------------------------------
 (1) _initLCD                                              2     2      0    5108
                                              5 BANK0      2     2      0
                           _clearLCD
                          _lcdNibble
                           _writeLCD
 ---------------------------------------------------------------------------------
 (2) _clearLCD                                             1     1      0    2510
                                              4 BANK0      1     1      0
                           _writeLCD
 ---------------------------------------------------------------------------------
 (2) _writeLCD                                             2     1      1    2510
                                              2 BANK0      2     1      1
                          _lcdNibble
 ---------------------------------------------------------------------------------
 (3) _lcdNibble                                            2     2      0      88
                                              0 BANK0      2     2      0
 ---------------------------------------------------------------------------------
 (1) ___xxtofl                                            14    10      4    1534
                                              0 BANK0     14    10      4
 ---------------------------------------------------------------------------------
 (1) ___fltol                                             10     6      4     709
                                             55 BANK0     10     6      4
                            ___fladd (ARG)
                            ___flmul (ARG)
                           ___xxtofl (ARG)
 ---------------------------------------------------------------------------------
 (1) ___flmul                                             25    17      8    3968
                                             14 BANK0     25    17      8
                           ___xxtofl (ARG)
 ---------------------------------------------------------------------------------
 (1) ___fladd                                             16     8      8    4460
                                             39 BANK0     16     8      8
                            ___flmul (ARG)
                           ___xxtofl (ARG)
 ---------------------------------------------------------------------------------
 (1) _Speed_Motors                                         4     0      4     956
                                             65 BANK0      4     0      4
                            ___fladd (ARG)
                            ___flmul (ARG)
                            ___fltol (ARG)
                           ___xxtofl (ARG)
 ---------------------------------------------------------------------------------
 (1) _SYSTEM_Initialize                                    0     0      0    1274
                    _ADCC_Initialize
                 _EUSART1_Initialize
                    _I2C1_Initialize
               _INTERRUPT_Initialize
              _OSCILLATOR_Initialize
             _PIN_MANAGER_Initialize
                     _PMD_Initialize
                    _PWM1_Initialize
                    _PWM2_Initialize
                    _TMR0_Initialize
                    _TMR1_Initialize
                    _TMR2_Initialize
                    _TMR3_Initialize
                    _TMR4_Initialize
 ---------------------------------------------------------------------------------
 (2) _TMR4_Initialize                                      0     0      0      98
           _TMR4_SetInterruptHandler
 ---------------------------------------------------------------------------------
 (3) _TMR4_SetInterruptHandler                             3     0      3      98
                                              0 BANK0      3     0      3
 ---------------------------------------------------------------------------------
 (2) _TMR3_Initialize                                      2     2      0      98
                                              3 BANK0      2     2      0
           _TMR3_SetInterruptHandler
 ---------------------------------------------------------------------------------
 (3) _TMR3_SetInterruptHandler                             3     0      3      98
                                              0 BANK0      3     0      3
 ---------------------------------------------------------------------------------
 (2) _TMR2_Initialize                                      0     0      0       0
 ---------------------------------------------------------------------------------
 (2) _TMR1_Initialize                                      2     2      0      98
                                              3 BANK0      2     2      0
           _TMR1_SetInterruptHandler
 ---------------------------------------------------------------------------------
 (3) _TMR1_SetInterruptHandler                             3     0      3      98
                                              0 BANK0      3     0      3
 ---------------------------------------------------------------------------------
 (2) _TMR0_Initialize                                      2     2      0      98
                                              3 BANK0      2     2      0
           _TMR0_SetInterruptHandler
 ---------------------------------------------------------------------------------
 (3) _TMR0_SetInterruptHandler                             3     0      3      98
                                              0 BANK0      3     0      3
 ---------------------------------------------------------------------------------
 (2) _PWM2_Initialize                                      0     0      0       0
 ---------------------------------------------------------------------------------
 (2) _PWM1_Initialize                                      0     0      0       0
 ---------------------------------------------------------------------------------
 (2) _PMD_Initialize                                       0     0      0       0
 ---------------------------------------------------------------------------------
 (2) _PIN_MANAGER_Initialize                               0     0      0     392
         _IOCAF5_SetInterruptHandler
         _IOCAF6_SetInterruptHandler
         _IOCAF7_SetInterruptHandler
         _IOCCF0_SetInterruptHandler
 ---------------------------------------------------------------------------------
 (3) _IOCCF0_SetInterruptHandler                           3     0      3      98
                                              0 BANK0      3     0      3
 ---------------------------------------------------------------------------------
 (3) _IOCAF7_SetInterruptHandler                           3     0      3      98
                                              0 BANK0      3     0      3
 ---------------------------------------------------------------------------------
 (3) _IOCAF6_SetInterruptHandler                           3     0      3      98
                                              0 BANK0      3     0      3
 ---------------------------------------------------------------------------------
 (3) _IOCAF5_SetInterruptHandler                           3     0      3      98
                                              0 BANK0      3     0      3
 ---------------------------------------------------------------------------------
 (2) _OSCILLATOR_Initialize                                0     0      0       0
 ---------------------------------------------------------------------------------
 (2) _INTERRUPT_Initialize                                 0     0      0       0
 ---------------------------------------------------------------------------------
 (2) _I2C1_Initialize                                      0     0      0       0
 ---------------------------------------------------------------------------------
 (2) _EUSART1_Initialize                                   0     0      0     490
            _EUSART1_SetErrorHandler
     _EUSART1_SetFramingErrorHandler
     _EUSART1_SetOverrunErrorHandler
      _EUSART1_SetRxInterruptHandler
      _EUSART1_SetTxInterruptHandler
 ---------------------------------------------------------------------------------
 (3) _EUSART1_SetTxInterruptHandler                        3     0      3      98
                                              0 BANK0      3     0      3
 ---------------------------------------------------------------------------------
 (3) _EUSART1_SetRxInterruptHandler                        3     0      3      98
                                              0 BANK0      3     0      3
 ---------------------------------------------------------------------------------
 (3) _EUSART1_SetOverrunErrorHandler                       3     0      3      98
                                              0 BANK0      3     0      3
 ---------------------------------------------------------------------------------
 (3) _EUSART1_SetFramingErrorHandler                       3     0      3      98
                                              0 BANK0      3     0      3
 ---------------------------------------------------------------------------------
 (3) _EUSART1_SetErrorHandler                              3     0      3      98
                                              0 BANK0      3     0      3
 ---------------------------------------------------------------------------------
 (2) _ADCC_Initialize                                      0     0      0       0
 ---------------------------------------------------------------------------------
 (1) _Motors                                               1     1      0      22
                                              0 BANK0      1     1      0
 ---------------------------------------------------------------------------------
 (1) _LED                                                  4     3      1     218
                                              0 BANK0      4     3      1
 ---------------------------------------------------------------------------------
 (1) _Digital_read                                         3     3      0      22
                                              0 BANK0      3     3      0
 ---------------------------------------------------------------------------------
 (1) _Buzzer                                               1     1      0      22
                                              0 BANK0      1     1      0
 ---------------------------------------------------------------------------------
 (1) _ADCC_GetSingleConversion                             5     3      2      22
                                              0 BANK0      5     3      2
 ---------------------------------------------------------------------------------
 Estimated maximum stack depth 3
 ---------------------------------------------------------------------------------
 (Depth) Function   	        Calls       Base Space   Used Autos Params    Refs
 ---------------------------------------------------------------------------------
 (5) _INTERRUPT_InterruptManager                           6     6      0    8723
                                             69 COMRAM     6     6      0
                                NULL *
                _EUSART1_Receive_ISR *
               _EUSART1_Transmit_ISR *
               _I2C1_BusCollisionISR
                           _I2C1_ISR
                    _PIN_MANAGER_IOC
                           _TMR0_ISR
                           _TMR1_ISR
                           _TMR3_ISR
                           _TMR4_ISR
 ---------------------------------------------------------------------------------
 (6) _TMR4_ISR                                             0     0      0    5003
                                NULL *
       _TMR4_DefaultInterruptHandler *
 ---------------------------------------------------------------------------------
 (7) _TMR4_DefaultInterruptHandler                         4     4      0    5003
                                             65 COMRAM     4     4      0
                 _PWM1_LoadDutyValue
                 _PWM2_LoadDutyValue
                          i2___fladd
                          i2___flmul
                          i2___fltol
                         i2___xxtofl
 ---------------------------------------------------------------------------------
 (8) i2___xxtofl                                          14    10      4     478
                                              0 COMRAM    14    10      4
 ---------------------------------------------------------------------------------
 (8) i2___fltol                                           10     6      4     281
                                             55 COMRAM    10     6      4
                          i2___fladd (ARG)
                          i2___flmul (ARG)
                         i2___xxtofl (ARG)
 ---------------------------------------------------------------------------------
 (8) i2___flmul                                           25    17      8    1674
                                             14 COMRAM    25    17      8
                         i2___xxtofl (ARG)
 ---------------------------------------------------------------------------------
 (8) i2___fladd                                           16     8      8    2192
                                             39 COMRAM    16     8      8
                          i2___flmul (ARG)
                         i2___xxtofl (ARG)
 ---------------------------------------------------------------------------------
 (8) _PWM2_LoadDutyValue                                   2     0      2     166
                                              0 COMRAM     2     0      2
 ---------------------------------------------------------------------------------
 (8) _PWM1_LoadDutyValue                                   2     0      2     166
                                              0 COMRAM     2     0      2
 ---------------------------------------------------------------------------------
 (6) _TMR3_ISR                                             0     0      0     784
                                NULL *
       _TMR3_DefaultInterruptHandler *
                    _TMR3_WriteTimer
 ---------------------------------------------------------------------------------
 (7) _TMR3_DefaultInterruptHandler                         0     0      0     392
                     _TMR3_StopTimer
                    _TMR3_WriteTimer
 ---------------------------------------------------------------------------------
 (6) _TMR1_ISR                                             0     0      0     784
                                NULL *
       _TMR1_DefaultInterruptHandler *
                    _TMR1_WriteTimer
 ---------------------------------------------------------------------------------
 (7) _TMR1_DefaultInterruptHandler                         0     0      0     392
                     _TMR1_StopTimer
                    _TMR1_WriteTimer
 ---------------------------------------------------------------------------------
 (6) _TMR0_ISR                                             0     0      0       0
                                NULL *
       _TMR0_DefaultInterruptHandler *
 ---------------------------------------------------------------------------------
 (7) _TMR0_DefaultInterruptHandler                         0     0      0       0
 ---------------------------------------------------------------------------------
 (6) _PIN_MANAGER_IOC                                      0     0      0    2130
                         _IOCAF5_ISR
                         _IOCAF6_ISR
                         _IOCAF7_ISR
                         _IOCCF0_ISR
 ---------------------------------------------------------------------------------
 (7) _IOCCF0_ISR                                           0     0      0    1065
                                NULL *
     _IOCCF0_DefaultInterruptHandler *
 ---------------------------------------------------------------------------------
 (8) _IOCCF0_DefaultInterruptHandler                       0     0      0    1065
                     _TMR3_ReadTimer
                    _TMR3_StartTimer
                     _TMR3_StopTimer
                    _TMR3_WriteTimer
                            ___aldiv
 ---------------------------------------------------------------------------------
 (7) _TMR3_WriteTimer                                      2     0      2     392
                                              0 COMRAM     2     0      2
 ---------------------------------------------------------------------------------
 (8) _TMR3_StopTimer                                       0     0      0       0
 ---------------------------------------------------------------------------------
 (9) _TMR3_StartTimer                                      0     0      0       0
 ---------------------------------------------------------------------------------
 (9) _TMR3_ReadTimer                                       8     6      2      69
                                              0 COMRAM     8     6      2
 ---------------------------------------------------------------------------------
 (7) _IOCAF7_ISR                                           0     0      0       0
                                NULL *
     _IOCAF7_DefaultInterruptHandler *
 ---------------------------------------------------------------------------------
 (8) _IOCAF7_DefaultInterruptHandler                       0     0      0       0
 ---------------------------------------------------------------------------------
 (7) _IOCAF6_ISR                                           0     0      0       0
                                NULL *
     _IOCAF6_DefaultInterruptHandler *
 ---------------------------------------------------------------------------------
 (8) _IOCAF6_DefaultInterruptHandler                       2     2      0       0
                                              0 COMRAM     2     2      0
 ---------------------------------------------------------------------------------
 (7) _IOCAF5_ISR                                           0     0      0    1065
                                NULL *
     _IOCAF5_DefaultInterruptHandler *
 ---------------------------------------------------------------------------------
 (8) _IOCAF5_DefaultInterruptHandler                       0     0      0    1065
                     _TMR1_ReadTimer
                    _TMR1_StartTimer
                     _TMR1_StopTimer
                    _TMR1_WriteTimer
                            ___aldiv
 ---------------------------------------------------------------------------------
 (9) ___aldiv                                             14     6      8     604
                                              8 COMRAM    14     6      8
                     _TMR1_ReadTimer (ARG)
                     _TMR3_ReadTimer (ARG)
 ---------------------------------------------------------------------------------
 (7) _TMR1_WriteTimer                                      2     0      2     392
                                              0 COMRAM     2     0      2
 ---------------------------------------------------------------------------------
 (8) _TMR1_StopTimer                                       0     0      0       0
 ---------------------------------------------------------------------------------
 (9) _TMR1_StartTimer                                      0     0      0       0
 ---------------------------------------------------------------------------------
 (9) _TMR1_ReadTimer                                       8     6      2      69
                                              0 COMRAM     8     6      2
 ---------------------------------------------------------------------------------
 (6) _I2C1_ISR                                             2     2      0      22
                                              3 COMRAM     2     2      0
              _I2C1_FunctionComplete
                          _I2C1_Stop
 ---------------------------------------------------------------------------------
 (7) _I2C1_Stop                                            3     3      0      22
                                              0 COMRAM     3     3      0
 ---------------------------------------------------------------------------------
 (7) _I2C1_FunctionComplete                                0     0      0       0
 ---------------------------------------------------------------------------------
 (6) _I2C1_BusCollisionISR                                 0     0      0       0
 ---------------------------------------------------------------------------------
 (6) _EUSART1_Transmit_ISR                                 0     0      0       0
 ---------------------------------------------------------------------------------
 (6) _EUSART1_Receive_ISR                                  0     0      0       0
                                NULL *
        _EUSART1_DefaultErrorHandler *
 _EUSART1_DefaultFramingErrorHandler *
 _EUSART1_DefaultOverrunErrorHandler *
              _EUSART1_RxDataHandler
 ---------------------------------------------------------------------------------
 (7) _EUSART1_DefaultOverrunErrorHandler                   0     0      0       0
 ---------------------------------------------------------------------------------
 (7) _EUSART1_DefaultFramingErrorHandler                   0     0      0       0
 ---------------------------------------------------------------------------------
 (7) _EUSART1_DefaultErrorHandler                          0     0      0       0
              _EUSART1_RxDataHandler
 ---------------------------------------------------------------------------------
 (7) _EUSART1_RxDataHandler                                0     0      0       0
 ---------------------------------------------------------------------------------
 (7) NULL(Fake)                                            0     0      0       0
 ---------------------------------------------------------------------------------
 Estimated maximum stack depth 9
 ---------------------------------------------------------------------------------

 Call Graph Graphs:

 _main (ROOT)
   _ADCC_GetSingleConversion
   _Buzzer
   _Digital_read
   _LED
   _Motors
   _SYSTEM_Initialize
     _ADCC_Initialize
     _EUSART1_Initialize
       _EUSART1_SetErrorHandler
       _EUSART1_SetFramingErrorHandler
       _EUSART1_SetOverrunErrorHandler
       _EUSART1_SetRxInterruptHandler
       _EUSART1_SetTxInterruptHandler
     _I2C1_Initialize
     _INTERRUPT_Initialize
     _OSCILLATOR_Initialize
     _PIN_MANAGER_Initialize
       _IOCAF5_SetInterruptHandler
       _IOCAF6_SetInterruptHandler
       _IOCAF7_SetInterruptHandler
       _IOCCF0_SetInterruptHandler
     _PMD_Initialize
     _PWM1_Initialize
     _PWM2_Initialize
     _TMR0_Initialize
       _TMR0_SetInterruptHandler
     _TMR1_Initialize
       _TMR1_SetInterruptHandler
     _TMR2_Initialize
     _TMR3_Initialize
       _TMR3_SetInterruptHandler
     _TMR4_Initialize
       _TMR4_SetInterruptHandler
   _Speed_Motors
     ___fladd (ARG)
       ___flmul (ARG)
         ___xxtofl (ARG)
       ___xxtofl (ARG)
     ___flmul (ARG)
     ___fltol (ARG)
       ___fladd (ARG)
       ___flmul (ARG)
       ___xxtofl (ARG)
     ___xxtofl (ARG)
   ___fladd
   ___flmul
   ___fltol
   ___xxtofl
   _clearLCD
     _writeLCD
       _lcdNibble
   _initLCD
     _clearLCD
     _lcdNibble
     _writeLCD
   _millis
   _retroLCD

 _INTERRUPT_InterruptManager (ROOT)
   NULL(Fake) *
   _EUSART1_Receive_ISR *
     NULL(Fake) *
     _EUSART1_DefaultErrorHandler *
       _EUSART1_RxDataHandler
     _EUSART1_DefaultFramingErrorHandler *
     _EUSART1_DefaultOverrunErrorHandler *
     _EUSART1_RxDataHandler *
   _EUSART1_Transmit_ISR *
   _I2C1_BusCollisionISR *
   _I2C1_ISR *
     _I2C1_FunctionComplete
     _I2C1_Stop
   _PIN_MANAGER_IOC *
     _IOCAF5_ISR
       NULL(Fake) *
       _IOCAF5_DefaultInterruptHandler *
         _TMR1_ReadTimer
         _TMR1_StartTimer
         _TMR1_StopTimer
         _TMR1_WriteTimer
         ___aldiv
           _TMR1_ReadTimer (ARG)
           _TMR3_ReadTimer (ARG)
     _IOCAF6_ISR
       NULL(Fake) *
       _IOCAF6_DefaultInterruptHandler *
     _IOCAF7_ISR
       NULL(Fake) *
       _IOCAF7_DefaultInterruptHandler *
     _IOCCF0_ISR
       NULL(Fake) *
       _IOCCF0_DefaultInterruptHandler *
         _TMR3_ReadTimer
         _TMR3_StartTimer
         _TMR3_StopTimer
         _TMR3_WriteTimer
         ___aldiv
   _TMR0_ISR *
     NULL(Fake) *
     _TMR0_DefaultInterruptHandler *
   _TMR1_ISR *
     NULL(Fake) *
     _TMR1_DefaultInterruptHandler *
       _TMR1_StopTimer
       _TMR1_WriteTimer
     _TMR1_WriteTimer *
   _TMR3_ISR *
     NULL(Fake) *
     _TMR3_DefaultInterruptHandler *
       _TMR3_StopTimer
       _TMR3_WriteTimer
     _TMR3_WriteTimer *
   _TMR4_ISR *
     NULL(Fake) *
     _TMR4_DefaultInterruptHandler *
       _PWM1_LoadDutyValue
       _PWM2_LoadDutyValue
       i2___fladd
         i2___flmul (ARG)
           i2___xxtofl (ARG)
         i2___xxtofl (ARG)
       i2___flmul
       i2___fltol
         i2___fladd (ARG)
         i2___flmul (ARG)
         i2___xxtofl (ARG)
       i2___xxtofl

 Address spaces:
Name               Size   Autos  Total    Cost      Usage
BIGRAM             E87      0       0      61        0.0%
EEDATA             400      0       0       0        0.0%
BITBANK13          100      0       0      30        0.0%
BANK13             100      0       0      31        0.0%
BITBANK12          100      0       0      28        0.0%
BANK12             100      0       0      29        0.0%
BITBANK11          100      0       0      26        0.0%
BANK11             100      0       0      27        0.0%
BITBANK10          100      0       0      24        0.0%
BANK10             100      0       0      25        0.0%
BITBANK9           100      0       0      22        0.0%
BANK9              100      0       0      23        0.0%
BITBANK8           100      0       0      20        0.0%
BANK8              100      0       0      21        0.0%
BITBANK7           100      0       0      18        0.0%
BANK7              100      0       0      19        0.0%
BITBANK6           100      0       0      16        0.0%
BANK6              100      0       0      17        0.0%
BITBANK5           100      0       0      14        0.0%
BANK5              100      0       0      15        0.0%
BITBANK4           100      0       0      12        0.0%
BANK4              100      0       0      13        0.0%
BITBANK3           100      0       0      10        0.0%
BANK3              100      0       0      11        0.0%
BITBANK2           100      0       0       8        0.0%
BANK2              100      0      75       9       45.7%
BITBANK1           100      0       0       6        0.0%
BANK1              100      0      8C       7       54.7%
BITBANK0            A0      0       0       4        0.0%
BANK0               A0     8B      A0       5      100.0%
BITBANK14           88      0       0      32        0.0%
BANK14              88      0       0      33        0.0%
BITCOMRAM           5E      0       0       0        0.0%
COMRAM              5E     4B      5A       1       95.7%
BITBIGSFRllllll     28      0       0      59        0.0%
BITBIGSFRlhhlll     27      0       0      44        0.0%
BITBIGSFRhhhhhh     1B      0       0      35        0.0%
BITBIGSFRllllll     11      0       0      49        0.0%
BITBIGSFRhhhhhh      D      0       0      34        0.0%
BITBIGSFRllllll      C      0       0      47        0.0%
BITBIGSFRlhhhhh      A      0       0      43        0.0%
BITBIGSFRllllll      9      0       0      53        0.0%
BITBIGSFRllllll      9      0       0      57        0.0%
BITBIGSFRhhhhhh      6      0       0      37        0.0%
BITBIGSFRhhhhhh      6      0       0      36        0.0%
BITBIGSFRhhhhhh      6      0       0      40        0.0%
BITBIGSFRllllll      3      0       0      55        0.0%
BITBIGSFRllllh       3      0       0      46        0.0%
BITBIGSFRlhl         3      0       0      45        0.0%
BITBIGSFRllllll      2      0       0      50        0.0%
BITBIGSFRllllll      2      0       0      54        0.0%
BITBIGSFRllllll      2      0       0      56        0.0%
BITBIGSFRhhhhhh      1      0       0      39        0.0%
BITBIGSFRhhhhhh      1      0       0      38        0.0%
BITBIGSFRllllll      1      0       0      51        0.0%
BITBIGSFRllllll      1      0       0      52        0.0%
BITBIGSFRhhhhlh      1      0       0      41        0.0%
BITBIGSFRllllll      1      0       0      48        0.0%
BITBIGSFRllllll      1      0       0      58        0.0%
BITBIGSFRhhhl        1      0       0      42        0.0%
BIGSFR               0      0       0     200        0.0%
BITSFR_2             0      0       0     200        0.0%
SFR_2                0      0       0     200        0.0%
BITSFR_1             0      0       0     200        0.0%
SFR_1                0      0       0     200        0.0%
BITSFR               0      0       0     200        0.0%
SFR                  0      0       0     200        0.0%
STACK                0      0       0       2        0.0%
NULL                 0      0       0       0        0.0%
ABS                  0      0     1FB      60        0.0%
DATA                 0      0     1FB       3        0.0%
CODE                 0      0       0       0        0.0%


Microchip Technology PIC18 Macro Assembler V2.41 build 20230208172133 
Symbol Table                                                                                   Wed May 03 19:25:57 2023

                      _eusart1TxBufferRemaining 00FD                ??_IOCAF7_DefaultInterruptHandler 0001  
               ?_IOCAF7_DefaultInterruptHandler 0001                                              _R0 0124  
                                            _R1 0120                                             l382 367C  
                                           l399 3AE2                                             _DMD 0118  
                                           _DMG 011C                                             _GIE 7F97  
                                           _LED 35B0                                             _PR2 0FBC  
                                           _PR4 0FB6                                     i2___fladd@a 002C  
                                   i2___fladd@b 0028                                 _timer1ReloadVal 00F4  
                                    i2___xxtofl 2BB2                                 _TMR2_Initialize 39B4  
                                           tosl 0FFD                                             wreg 0FE8  
                                   i2___flmul@a 0013                                     i2___flmul@b 000F  
                               lcdNibble@nibble 0061                                    ___flmul@aexp 007F  
            __end_of_IOCAF5_SetInterruptHandler 3BB6                      _IOCAF5_SetInterruptHandler 3BA8  
                                  ___flmul@bexp 0080              __end_of_IOCCF0_SetInterruptHandler 3B8C  
                    _IOCCF0_SetInterruptHandler 3B7E                                    ___flmul@sign 007A  
                                  ___flmul@temp 0085                                    ___flmul@prod 0081  
                                          ?_LED 0060                                __end_of_I2C1_ISR 2A6E  
                                  ___fltol@exp1 00A0                                            l1067 3888  
                               _timer3ReloadVal 00F2                                            l2408 21DC  
                                          l2409 21D8                                            l1803 335A  
                                          l1820 3B0A                                            l2516 2B2E  
                                          l2509 2AB0                                            l1806 3366  
                                          l1807 3372                                            l1831 35CE  
                                          l1815 3AF6                                            l2383 20A4  
                                          l2384 2082                                            l1827 35C0  
                                          l2468 193C                                            l2485 1BDA  
                                          l2477 1B54                                            l2478 1B50  
                                          l2399 2176                                            l6103 367E  
                                          l7413 35C4                                            l7501 1FD6  
                                  main@aValLeft 00E7                                            l8303 10F2  
                                          l7441 337E                                            l7409 35B6  
                                          l7513 1FFA                                            l7505 1FDA  
                                          l7419 35D2                                            l8315 1430  
                                          l8307 1124                                            l8251 0FE2  
                                          l8333 14C2                                            l8309 1146  
                                          l7607 219A                                            l7623 21BA  
                                          l7543 2036                                            l8351 1552  
                                          l7617 21B0                                            l7481 1F92  
                                          l8281 1072                                            l7651 2248  
                                          l7643 2222                                            l7571 20C8  
                                          l7555 2090                                            l7707 195A  
                                          l7803 2FD8                                            l8275 1066  
                                          l7581 20EE                                            l7557 2094  
                                          l7477 1F8E                                            l7655 2250  
                                          l7831 3046                                            l7823 3032  
                                          l8359 15A2                                            l7657 2252  
                                          l7681 18EC                                            l8297 10B4  
                                          l7579 20EA                                            l7755 1B1A  
                                          l7683 18FC                                            l7819 3022  
                                          l7589 2100                                            l7749 1AFC  
                                          l7837 3062                                            l7829 303A  
                                          l7853 2ADE                                            l7599 2166  
                                          l7791 1BF8                                            l7775 1B98  
                                          l7679 18E8                                            l7855 2AE4  
                                          l7847 2AC0                                            l7697 1928  
                                          l7865 2B54                                            l7857 2AF0  
                                          l7779 1BB6                                            l7699 192C  
                                          l7883 2BA0                                            l7867 2B60  
                                          l7859 2B16                                            STR_1 0F05  
                                          STR_2 0F01                         __end_of_PWM1_Initialize 3AD2  
                                          _LATA 0F83                                            _LATB 0F84  
                                          _LATC 0F85                                            _LATD 0F86  
                                          _LATE 0F87                                            _T2PR 0FBC  
                                          u4400 3276                                            _T4PR 0FB6  
                                          u4420 3292                                            u4440 32B0  
                                          u4418 327A                                            u4460 32CA  
                                          _PMD0 0EE1                                            _PMD1 0EE2  
                                          u4438 3296                                            _PMD2 0EE3  
                                          _PMD3 0EE4                                            u7120 1B4A  
                                          u7200 2FF6                                            _PMD4 0EE5  
                                          _PMD5 0EE6                                            u4458 32B4  
                                          u7205 2FEC                                            u7070 1948  
                                          u4478 32CE                                            u7160 1BA6  
                                          u7080 1ABE                                            u7240 304C  
                                          u7320 2B6A                                            u7170 1BC4  
                                          u8050 18B8                                            u6700 2058  
                                          u7085 1AB4                                            u6550 3362  
                                          u6710 2068                                            u7190 2FC6  
                                          u6560 336E                                            u6720 206A  
                                          u6570 337A                                            u6900 21D2  
                                          u6750 20AC                                            u8407 2E3A  
                                          u8417 2E52                                            u8507 32EC  
                                          u8427 2E6A                                            u7900 1478  
                                          u8437 2E88                                            u8357 0F60  
                                          u7910 1488                                            u8447 2EA6  
                                          u8367 1572                                            u7911 1486  
                                          u6960 222E                                            u6880 21BE  
                                          u7920 1498                                            u8457 2EBC  
                                          u8377 1592                                            u7761 0FD2  
                                          u8467 2EDA                                            u8387 2E06  
                                          u7860 10F2                                            u8477 3968  
                                          u8397 2E22                                            u7950 14BC  
                                          u8487 3680                                            u8497 32DC  
                                          u7970 150C                                            u7980 151C  
                                          u7981 151A                                            u7990 152C  
                                          _TMR2 0FBB                                            _TMR4 0FB5  
                                          _WPUA 0F10                                            _WPUB 0F18  
                                          _WPUC 0F20                                            _WPUD 0F25  
                                          _WPUE 0F2D                            __end_of_Digital_read 33A4  
                                          _main 0F0A                                            fsr2h 0FDA  
                                          indf2 0FDF                                            fsr1l 0FE1  
                                          fsr2l 0FD9                                            btemp 005B  
                            _ancien_dutyValue_D 0184                              _ancien_dutyValue_G 0186  
                                          prodh 0FF4                                            prodl 0FF3  
                                          start 00D2                                    i2___fltol@f1 0038  
                               _TMR3_Initialize 3490                      ??_TMR1_SetInterruptHandler 0063  
                    ??_TMR4_SetInterruptHandler 0063                                    ___param_bank 0000  
                                         ??_LED 0061                                    main@cptDLeft 00D0  
                       __end_of_PWM2_Initialize 3ABC                         __end_of_TMR0_Initialize 35B0  
                                         LED@io 0063                                      _i2c1_state 0058  
                ??_TMR0_DefaultInterruptHandler 0001                   __end_of_OSCILLATOR_Initialize 3A90  
                         _eusart1RxStatusBuffer 0100                                   ___fltol@sign1 009F  
                               __end_of___aldiv 2FB8                                           _ADACQ 0F5C  
                                         _ADCAP 0F5D                                           _ADACT 0F56  
                               __end_of___fladd 226E                                           ?_main 0001  
                                         _ADCLK 0F57                                           _ADCNT 0F67  
                                         _ADPCH 0F5F                                           _ADREF 0F58  
                             __end_of_I2C1_Stop 3632                                           _ADPRE 0F5E  
                                         _ADRPT 0F66                                 __end_of___flmul 1C0E  
                               __end_of___fltol 3074                                 _TMR1_StartTimer 3C1E  
                                         _T1CLK 0FD2                                   main@aValRight 00E4  
                                         _T1CON 0FCF                                           _T3CLK 0FCC  
                                         _T2CON 0FBD                                           _T3CON 0FC9  
                                         _T4CON 0FB7                                           _T2HLT 0FBE  
                                         _T4HLT 0FB8                                           _T2TMR 0FBB  
                                         _T2RST 0FC0                                           _T4TMR 0FB5  
                                         _T4RST 0FBA                                           i2l701 28BE  
                                         i2l711 2962                                           i2l607 354E  
                                         i2l721 29A0                                           i2l706 28EC  
                                         i2l707 28FC                                           i2l724 29B8  
                                         i2l725 29CA                                           i2l717 2970  
                                         i2l831 0030                                           i2l840 0074  
                                         i2l729 29FC                                           i2l833 003C  
                                         i2l842 0094                                           i2l844 00A0  
                                         i2l836 004C                                           i2l845 00B6  
                                         i2l846 00AC                                           i2l838 0058  
                                         i2l695 285A                                           i2l698 28B6  
                                         _OSCEN 0EDC                                           _TMR0H 0FD4  
                                         _TMR1H 0FCE                                           _TMR0L 0FD3  
                                         _TMR1L 0FCD                                           _TMR3H 0FC8  
                                         _TMR3L 0FC7                                           _TRISA 0F88  
                                         _TRISB 0F89                                           _TRISC 0F8A  
                                         _TRISD 0F8B                                           _TRISE 0F8C  
                     TMR3_ReadTimer@readValHigh 0007                    __end_of_I2C1_BusCollisionISR 3C02  
                               _TMR4_Initialize 3740                       ?_TMR0_SetInterruptHandler 0060  
                                 i2___fladd@grs 0037                            _EUSART1_Transmit_ISR 37A4  
                     ?_TMR3_SetInterruptHandler 0060                               ??_I2C1_Initialize 0060  
                              __end_of_TMR0_ISR 37A4                                __end_of_TMR1_ISR 3740  
                              __end_of_TMR3_ISR 370C                                __end_of_TMR4_ISR 38CA  
                               __end_of_initLCD 2EEC                  ??_TMR3_DefaultInterruptHandler 0003  
                       __end_of_PIN_MANAGER_IOC 38EE                         __end_of_TMR1_Initialize 3524  
                                         pclath 0FFA                                           pclatu 0FFB  
                                         tablat 0FF5                                           plusw1 0FE3  
                                         plusw2 0FDB                                           ttemp5 005C  
                                         ttemp6 005F                                           ttemp7 0063  
                                         status 0FD8                                           wtemp8 005C  
                                 i2___flmul@grs 001C      __end_of_EUSART1_DefaultFramingErrorHandler 3C26  
          ??_EUSART1_DefaultFramingErrorHandler 0001             ?_EUSART1_DefaultFramingErrorHandler 0001  
            _EUSART1_DefaultFramingErrorHandler 3C24                                 _TMR1_WriteTimer 3A42  
                             main@integralError 00E0                                 __initialization 32FA  
                    __end_of_EUSART1_Initialize 3266                                    __end_of_main 18BA  
                    Speed_Motors@Cons_Vit_Mot_D 00A3                      Speed_Motors@Cons_Vit_Mot_G 00A1  
                       __end_of_TMR2_Initialize 39D2                     ?_INTERRUPT_InterruptManager 0001  
                                 main@cptDRight 00D1                                     _i2c1_object 00EB  
                                        ??_main 00A5                                 _TMR3_StartTimer 3C16  
                                 __activetblptr 0003                           _TMR3_InterruptHandler 014F  
                                   ?i2___xxtofl 0001                           ?_EUSART1_Transmit_ISR 0001  
                                main@aValCenter 00E2                                          _ADACCH 0F71  
                                        _ADACCL 0F70                    ??_IOCAF6_SetInterruptHandler 0063  
                                        _ADCON0 0F60                                          _ADCON1 0F59  
                                        _ADCON2 0F5A                                          _ADCON3 0F5B  
                                        _ADERRH 0F6F                                          _ADERRL 0F6E  
                                        _ADLTHH 0F6B                                          _ADLTHL 0F6A  
                                        _ADRESH 0F64                                          _ADRESL 0F63  
                                        _CCPR1H 0FAB                                          _CCPR2H 0FA7  
                                        _CCPR1L 0FAA                                   main@lastDLeft 00BB  
                                        _CCPR2L 0FA6                                          _ADSTAT 0F65  
                                        _ADUTHH 0F6D                                          _ADUTHL 0F6C  
                                        _ANSELA 0F11                                          _ANSELB 0F19  
                                        _ANSELC 0F21                                          _ANSELD 0F26  
                                        _ANSELE 0F2E                                          _T0CON0 0FD5  
                                        _T0CON1 0FD6                                          _T1GATE 0FD1  
                                        _T1GCON 0FD0                                          _T3GATE 0FCB  
                                        _T3GCON 0FCA                                          _RC1REG 0F99  
                                        _RC1PPS 0EF8                                          _RC1STA 0F9D  
                                        _RC2PPS 0EF9                                          _RC3PPS 0EFA  
                       TMR1_WriteTimer@timerVal 0001                                          _RC4PPS 0EFB  
                              ?_PWM1_Initialize 0001                                          _ODCONA 0F0F  
                                        _ODCONB 0F17                                          _RC6PPS 0EFD  
                                        _ODCONC 0F1F                                          _ODCOND 0F24  
                                        _ODCONE 0F2C                         __end_of_TMR3_Initialize 34DA  
                                        i2l1242 37CC                                          i2l2408 24E8  
                                        i2l2409 24E4                                          i2l2516 2C6E  
                                        i2l2509 2BF0                                          i2l2383 23B0  
                                        i2l2384 238E                                          i2l2468 1C8E  
                                        i2l2485 1F2C                                          i2l2477 1EA6  
                                        i2l2478 1EA2                                          i2l2399 2482  
                                        i2l6203 3928                                   main@lastError 00DE  
                                        i2l6221 3092                                          i2l7013 27FE  
                                        i2l6127 3432                                          i2l6145 3554  
                                        i2l6401 24A6                                          i2l6241 30EC  
                                        i2l7009 27F2                                          _INLVLA 0F0D  
                                        _INLVLB 0F15                                          i2l7211 2926  
                                        i2l6139 3544                                          i2l6155 33E2  
                                        i2l6411 24BC                                          i2l6307 2306  
                                        _INLVLC 0F1D                                          _INLVLD 0F22  
                                        i2l6501 1CAC                                          i2l6237 30DC  
                                        _INLVLE 0F2A                                          i2l6351 23A0  
                                        i2l6271 229A                                          i2l6255 311C  
                                        i2l6247 30F4                                          i2l6417 24C6  
                                        i2l6337 2342                                          i2l6249 3100  
                                        i2l6179 3950                                          i2l6451 255E  
                                        i2l6275 229E                                          i2l6603 2C1E  
                                        i2l7405 31C6                                          i2l7261 29D2  
                                        i2l6189 3906                                          i2l6445 2554  
                                        i2l6437 252E                                          i2l6373 23F6  
                                        i2l6365 23D4                                          i2l6349 239C  
                                        i2l6605 2C24                                          i2l7239 2982  
                                        i2l7191 28CE                                          i2l7183 28B8  
                                        i2l5823 3A54                                          i2l6375 23FA  
                                        i2l6383 240C                                          i2l6295 22E2  
                                        i2l6543 1E4E                                          i2l6615 2C94  
                                        i2l6607 2C30                                          i2l7281 2A0E  
                                        i2l7265 29DA                                          i2l7249 29A4  
                                        i2l6449 255C                                          i2l6393 2472  
                                        i2l6473 1C3A                                          i2l6633 2CE0  
                                        i2l6617 2CA0                                          i2l6609 2C56  
                                        i2l7179 28A6                                          i2l6299 22E6  
                                        i2l6491 1C7A                                          i2l6475 1C3E  
                                        i2l7277 2A02                                          i2l7197 28E6  
                                        i2l6573 1F08                                          i2l6549 1E6C  
                                        i2l6493 1C7E                                          i2l6477 1C4E  
                                        i2l7279 2A06                                          i2l7287 2A1A  
                                        i2l5863 2F08                                          i2l7385 37C8  
                                        i2l5849 3A38                                          i2l6585 1F4A  
                                        i2l6569 1EEA                                          i2l5875 2F42  
                                        i2l5891 2F90                                          i2l5877 2F4E  
                                        i2l5869 2F20                                          i2l6597 2C00  
                                        i2l5895 2FA6                                          i2l5887 2F82  
                                        i2l6885 3A72                                          i2l6877 362C  
                                        i2l6991 26AC                                          i2l6995 26B8  
                                        _OSCFRQ 0EDE                                          _NVMDAT 0F80  
                                        _RX1PPS 0EB5                                          _TX1REG 0F9A  
                                        _TX1STA 0F9E                                __end_of___xxtofl 2BB2  
                              __end_of_clearLCD 3974                                 _TMR3_WriteTimer 3A26  
                                i2___fladd@aexp 0035                                  i2___fladd@bexp 0036  
                                        _Buzzer 3AFA                                  _laserAddresses 0181  
          __end_of_TMR1_DefaultInterruptHandler 3A26                    _TMR1_DefaultInterruptHandler 3A0A  
                                        _Motors 3AE6                _Ancienne_Erreur_Vitesse_Moteur_D 012C  
              _Ancienne_Erreur_Vitesse_Moteur_G 0130                                  _p_i2c1_current 00F8  
                       __end_of_TMR1_StartTimer 3C22                                       ??___aldiv 0011  
                                     ??___fladd 008F                                       ??___flmul 0076  
                                     ??___fltol 009B                        ?_EUSART1_SetErrorHandler 0060  
                              ?_TMR0_Initialize 0001                                ?_PWM2_Initialize 0001  
                       __end_of_TMR4_Initialize 3772                                       ?_I2C1_ISR 0001  
                                        _millis 3B22                                          clear_0 3320  
                                        clear_1 332C                                          clear_2 3338  
                                        clear_3 3344                                          isa$std 0001  
              ??_EUSART1_SetOverrunErrorHandler 0063                 ?_EUSART1_SetOverrunErrorHandler 0060  
                            main@elasped_rotate 00CC                                       ??_initLCD 0065  
                               _ADCC_Initialize 3444            __end_of_TMR4_DefaultInterruptHandler 2820  
                  _TMR4_DefaultInterruptHandler 257A                                  _PMD_Initialize 39D2  
                              __end_of_retroLCD 3AE6                               __end_ofi2___fladd 257A  
                             __end_ofi2___flmul 1F60                               __end_ofi2___fltol 312E  
                                  __mediumconst 0000                                          tblptrh 0FF7  
                                        tblptrl 0FF6                                          tblptru 0FF8  
                     ?_ADCC_GetSingleConversion 0060        TMR3_SetInterruptHandler@InterruptHandler 0060  
      TMR1_SetInterruptHandler@InterruptHandler 0060        TMR4_SetInterruptHandler@InterruptHandler 0060  
      TMR0_SetInterruptHandler@InterruptHandler 0060      IOCCF0_SetInterruptHandler@InterruptHandler 0060  
    IOCAF7_SetInterruptHandler@InterruptHandler 0060      IOCAF6_SetInterruptHandler@InterruptHandler 0060  
    IOCAF5_SetInterruptHandler@InterruptHandler 0060                                ?_PIN_MANAGER_IOC 0001  
                       __end_of_TMR1_WriteTimer 3A5E                                 _eusart1RxBuffer 0108  
                                i2___flmul@aexp 0020                                  i2___flmul@bexp 0021  
                                  ??_IOCAF5_ISR 0017                                    ??_IOCAF6_ISR 0003  
                                i2___flmul@sign 001B                                  i2___flmul@temp 0026  
                                  ??_IOCAF7_ISR 0001                                __end_of_writeLCD 36A2  
                                i2___flmul@prod 0022                                    ??_IOCCF0_ISR 0017  
                               _eusart1TxBuffer 0110                                ?_TMR1_Initialize 0001  
                                  ___xxtofl@arg 006A                                    ___xxtofl@exp 0069  
                             _SYSTEM_Initialize 3632                                    ___xxtofl@val 0060  
                                    __accesstop 0060                         __end_of__initialization 334A  
                                i2___fltol@exp1 0041                              ?_SYSTEM_Initialize 0001  
                    __end_of_PWM2_LoadDutyValue 3910                                   ___rparam_used 0001  
                                    ___fltol@f1 0097                                       LED@on_off 0060  
                                _i2c1_trb_count 0057                     PWM1_LoadDutyValue@dutyValue 0001  
                 __end_of_EUSART1_RxDataHandler 3954                           _I2C1_FunctionComplete 3A5E  
                          _I2C1_BusCollisionISR 3BFC                                  __pcstackCOMRAM 0001  
                                  __pidataBANK1 3A90                             ??_SYSTEM_Initialize 0065  
                       __end_of_TMR3_StartTimer 3C1A                                       ?_TMR0_ISR 0001  
                                     ?_TMR1_ISR 0001                   ?_TMR1_DefaultInterruptHandler 0001  
                                     ?_TMR3_ISR 0001                                       ?_TMR4_ISR 0001  
                            _PWM1_LoadDutyValue 3910                                      ??_I2C1_ISR 0004  
                              ?_TMR2_Initialize 0001                          __end_of_PMD_Initialize 39EE  
                            __end_of_IOCAF5_ISR 387A                              __end_of_IOCAF6_ISR 3850  
                            __end_of_IOCAF7_ISR 3826                                    _Digital_read 3354  
                            __end_of_IOCCF0_ISR 37FC                          ??_EUSART1_Transmit_ISR 0001  
                           ?_PWM1_LoadDutyValue 0001                     __end_of_EUSART1_Receive_ISR 31CC  
                 ?_TMR4_DefaultInterruptHandler 0001                     ?_IOCAF5_SetInterruptHandler 0060  
        __end_of_IOCAF7_DefaultInterruptHandler 3C24                  _IOCAF7_DefaultInterruptHandler 3C22  
                   ?_IOCCF0_SetInterruptHandler 0060                       __end_of_SYSTEM_Initialize 366C  
                       __end_of_TMR3_WriteTimer 3A42                                   _eusart1RxHead 00FC  
                                 _eusart1TxHead 00FF                                   _eusart1RxTail 0054  
                                    __pbssBANK0 00EB                                      __pbssBANK1 0100  
                                    __pbssBANK2 0200                                   _eusart1TxTail 00FE  
             _EUSART1_TxDefaultInterruptHandler 0173                 ??_EUSART1_SetRxInterruptHandler 0063  
                              ?_TMR3_Initialize 0001                           _TMR4_InterruptHandler 0155  
              ??_IOCAF5_DefaultInterruptHandler 0017                 ?_IOCAF5_DefaultInterruptHandler 0001  
                                    _vl53l0xDev 0200                            ??_PWM1_LoadDutyValue 0003  
                       _IOCAF5_InterruptHandler 016D                                         ?_Buzzer 0001  
                         ?_I2C1_BusCollisionISR 0001                 __end_of_EUSART1_SetErrorHandler 3BFC  
                                       ?_Motors 0001                __end_of_TMR0_SetInterruptHandler 3B7E  
              __end_of_TMR3_SetInterruptHandler 3B62                                ?_TMR1_StartTimer 0001  
                                    ??_TMR0_ISR 0001                                      ??_TMR1_ISR 0003  
                                    ??_TMR3_ISR 0003                                      ??_TMR4_ISR 0046  
                       __end_of_ADCC_Initialize 3490                                 _I2C1_Initialize 36A2  
                                       _CCP1CON 0FAC                                         _CCP2CON 0FA8  
                                       _ADFLTRH 0F73                                         _ADFLTRL 0F72  
                                       ?_millis 0060                                         _ADPREVH 0F62  
                                       _ADPREVL 0F61                                ?_TMR4_Initialize 0001  
              ??_IOCCF0_DefaultInterruptHandler 0017                 ?_IOCCF0_DefaultInterruptHandler 0001  
                                       _ADSTPTH 0F69                                         _ADSTPTL 0F68  
                                main@lastDRight 00BA                                 ?_PMD_Initialize 0001  
        __end_of_EUSART1_SetFramingErrorHandler 3BEE                  _EUSART1_SetFramingErrorHandler 3BE0  
                                     ?___xxtofl 0060                    ?_EUSART1_DefaultErrorHandler 0001  
                                     ?_clearLCD 0001                                         _SP1BRGH 0F9C  
                                       _SP1BRGL 0F9B                                   ?_Speed_Motors 00A1  
                                       _OSCCON1 0ED8                                         _OSCCON3 0EDA  
            __end_of_IOCAF6_SetInterruptHandler 3BA8                      _IOCAF6_SetInterruptHandler 3B9A  
                                     _I2C1_Stop 35F2                                         _NVMADRH 0F7F  
                                       _NVMADRL 0F7E                                         _OSCTUNE 0EDD  
                                       _NVMCON2 0F82                                         _SSP1ADD 0F93  
                                       _SLRCONA 0F0E                                         _SLRCONB 0F16  
                                       _SLRCONC 0F1E                                         _SLRCOND 0F23  
                                       _SLRCONE 0F2B                                         _SSP1BUF 0F92  
                              ?_TMR1_WriteTimer 0001                                    Buzzer@on_off 0060  
                                main@currentSeq 00B8                               __end_of_lcdNibble 32FA  
                               i2___fladd@signs 0034                          ?_I2C1_FunctionComplete 0001  
                                       __Hparam 0000                         _Erreur_Vitesse_Moteur_D 012E  
                       _Erreur_Vitesse_Moteur_G 0132                                         __Lparam 0000  
                                retroLCD@on_off 0060                                       ?_retroLCD 0001  
                            _p_i2c1_trb_current 00FA                                         ___aldiv 2EEC  
                                       ___fladd 1F60                                         ___flmul 18BA  
                              ?_TMR3_StartTimer 0001                                         ___fltol 2FB8  
                                  __psmallconst 0F00                                         __pcinit 32FA  
                                  writeLCD@byte 0063                                         __ramtop 0F00  
                      TMR1_ReadTimer@readValLow 0008                                       ?_writeLCD 0062  
                                  writeLCD@type 0062                                         __ptext0 0F0A  
                                       __ptext1 3AD2                                         __ptext2 3B22  
                                       __ptext3 2DF6                                         __ptext4 3954  
                                       __ptext5 366C                                         __ptext6 3266  
                                       __ptext7 2A6E                                         __ptext8 2FB8  
                                       __ptext9 18BA                  ??_TMR1_DefaultInterruptHandler 0003  
                     TMR1_ReadTimer@readValHigh 0007                                         _initLCD 2DF6  
                                     _T1CONbits 0FCF                           _OSCILLATOR_Initialize 3A78  
                                     _T2CONbits 0FBD                                  ??_Speed_Motors 00A5  
                                  ??i2___xxtofl 0005                                      ??___xxtofl 0064  
                                     _T3CONbits 0FC9                                      ??_clearLCD 0064  
                              ___aldiv@dividend 0009                                       _T4CONbits 0FB7  
                            _EUSART1_Initialize 31CC                        ??_PIN_MANAGER_Initialize 0063  
                     ?_TMR1_SetInterruptHandler 0060                                       _IOCAFbits 0F0A  
                                     _T2HLTbits 0FBE                                       _IOCCFbits 0F1A  
                     ?_TMR4_SetInterruptHandler 0060                                      ?_I2C1_Stop 0001  
                                     _IOCANbits 0F0B                                       _IOCAPbits 0F0C  
                                     _IOCCNbits 0F1B                                       _IOCCPbits 0F1C  
                                     _T4HLTbits 0FB8                   ??_EUSART1_DefaultErrorHandler 0001  
                          I2C1_ISR@pi2c_buf_ptr 0138                            end_of_initialization 334A  
                              ?_TMR3_WriteTimer 0001                   _Sigma_Erreur_Vitesse_Moteur_D 0188  
                 _Sigma_Erreur_Vitesse_Moteur_G 018A                                       _T2RSTbits 0FC0  
                ??_TMR4_DefaultInterruptHandler 0042                             ?_EUSART1_Initialize 0001  
                                     _T4RSTbits 0FBA                     _EUSART1_OverrunErrorHandler 015B  
                                i2___xxtofl@arg 000B                                  i2___xxtofl@exp 000A  
                                i2___xxtofl@val 0001                          ??_I2C1_BusCollisionISR 0001  
                       __end_of_I2C1_Initialize 36D8           __end_of_EUSART1_SetRxInterruptHandler 3BD2  
                 _EUSART1_SetRxInterruptHandler 3BC4                                      ??_retroLCD 0060  
                         TMR3_ReadTimer@readVal 0005                              __end_ofi2___xxtofl 2CF2  
                              ___aldiv@quotient 0013                                         postdec1 0FE5  
                                       postdec2 0FDD                                         postinc0 0FEE  
                                       postinc2 0FDE                                      main@F11533 0176  
                              ?_ADCC_Initialize 0001                __end_of_ADCC_GetSingleConversion 38A2  
                          ??_EUSART1_Initialize 0063                                      ??_writeLCD 0063  
                      _TMR0_SetInterruptHandler 3B70                                       _PORTAbits 0F8D  
                                     _PORTBbits 0F8E                                       _PORTDbits 0F90  
                                     _PORTEbits 0F91                        _TMR3_SetInterruptHandler 3B54  
                                   ___fladd@grs 0096                         _IOCAF6_InterruptHandler 016A  
                                _TMR1_ReadTimer 3994                                   ___xxtofl@sign 0068  
                               i2___fltol@sign1 0040                    ??_IOCAF7_SetInterruptHandler 0063  
                                     i2___fladd 226E                                       i2___flmul 1C0E  
                                     i2___fltol 3074               I2C1_ISR@i2c_10bit_address_restart 0055  
                                   ___flmul@grs 007B                                     _CCP1CONbits 0FAC  
                                   _CCP2CONbits 0FA8                                  _TMR3_ReadTimer 3974  
                          _timer0ReloadVal16bit 00F6                                  __end_of_Buzzer 3B0E  
                                __end_of_Motors 3AFA                    __end_of_INTERRUPT_Initialize 3C12  
                       I2C1_MasterWrite@trBlock 0145                        I2C1_Stop@completion_code 0003  
                            _PWM2_LoadDutyValue 38EE                                  _TMR1_StopTimer 3C1A  
                        ?_OSCILLATOR_Initialize 0001                          __end_of_TMR1_ReadTimer 39B4  
                                __end_of_millis 3B34                             start_initialization 32FA  
                                   __end_of_LED 35F2                                     ??_I2C1_Stop 0001  
                           ?_PWM2_LoadDutyValue 0001                                      ?i2___fladd 0028  
 EUSART1_SetRxInterruptHandler@interruptHandler 0060   EUSART1_SetTxInterruptHandler@interruptHandler 0060  
                                    ?i2___flmul 000F                                      ?i2___fltol 0038  
                                _TMR3_StopTimer 3C12                          __end_of_TMR3_ReadTimer 3994  
                              ?_I2C1_Initialize 0001                                        ??_Buzzer 0060  
                          __end_of_Speed_Motors 3B46                            ??_PWM2_LoadDutyValue 0003  
                                      ??_Motors 0060                     PWM2_LoadDutyValue@dutyValue 0001  
                              ??_PMD_Initialize 0060                           _EUSART1_RxDataHandler 3932  
                                   _CCPTMRSbits 0FAE                  ?_EUSART1_SetRxInterruptHandler 0060  
                        __end_of_TMR1_StopTimer 3C1E                                     __pdataBANK1 0176  
                                      ??_millis 0064          __end_of_IOCAF5_DefaultInterruptHandler 3444  
                _IOCAF5_DefaultInterruptHandler 33F4                                 ?_TMR1_ReadTimer 0001  
                                _eusart1RxCount 0053                                       ___fladd@a 008B  
                                     ___fladd@b 0087                        _ADCC_GetSingleConversion 387A  
                                     ___flmul@a 0072                                       ___flmul@b 006E  
                                   __pbssCOMRAM 004C               _EUSART1_RxDefaultInterruptHandler 0170  
                                 __pcstackBANK0 0060                     ?_IOCAF6_SetInterruptHandler 0060  
                                 _i2c1_tr_queue 014A          __end_of_IOCCF0_DefaultInterruptHandler 33F4  
                _IOCCF0_DefaultInterruptHandler 33A4                          __end_of_TMR3_StopTimer 3C16  
               ??_EUSART1_SetTxInterruptHandler 0063                ??_EUSART1_SetFramingErrorHandler 0063  
               ?_EUSART1_SetFramingErrorHandler 0060                         ??_I2C1_FunctionComplete 0001  
                               ?_TMR3_ReadTimer 0001                           _TMR0_InterruptHandler 0161  
                                     __pnvBANK1 014F                         _IOCAF7_InterruptHandler 0167  
                                     _main$5546 00BC                                       _main$5547 00C0  
                                     _main$5548 00C4                                       _main$5549 00C8  
                        _PIN_MANAGER_Initialize 2CF2                ??_IOCAF6_DefaultInterruptHandler 0001  
               ?_IOCAF6_DefaultInterruptHandler 0001                                       __pintcode 0008  
              __end_of_TMR1_SetInterruptHandler 3B70                                       _lcdNibble 3266  
                                      ?___aldiv 0009                 ADCC_GetSingleConversion@channel 0064  
                                      ?___fladd 0087                __end_of_TMR4_SetInterruptHandler 3B54  
                                      ?___flmul 006E                                        ?___fltol 0097  
                               ?_TMR1_StopTimer 0001                                        _I2C1_ISR 2820  
                              main@rightCounter 00B7                               ??_PWM1_Initialize 0060  
                  ??_INTERRUPT_InterruptManager 0046                                        _BAUD1CON 0F9F  
                                      ?_initLCD 0001                                     __smallconst 0F00  
    __end_of_EUSART1_DefaultOverrunErrorHandler 3C08            ??_EUSART1_DefaultOverrunErrorHandler 0001  
           ?_EUSART1_DefaultOverrunErrorHandler 0001              _EUSART1_DefaultOverrunErrorHandler 3C02  
                          _EUSART1_ErrorHandler 0158                                 main@leftCounter 00B6  
            __end_of_IOCAF7_SetInterruptHandler 3B9A                      _IOCAF7_SetInterruptHandler 3B8C  
                       _EUSART1_SetErrorHandler 3BEE                                     ??i2___fladd 0030  
                                   ??i2___flmul 0017                                     ??i2___fltol 003C  
                                      _T2CLKCON 0FBF                                        _T4CLKCON 0FB9  
                          _INTERRUPT_Initialize 3C0E                                 ?_TMR3_StopTimer 0001  
                     _Consigne_Vitesse_Moteur_D 0134                       _Consigne_Vitesse_Moteur_G 0136  
                               ___aldiv@divisor 000D                          I2C1_MasterRead@trBlock 0140  
                             ??_TMR0_Initialize 0063                               ??_PWM2_Initialize 0060  
                               ___aldiv@counter 0011                                        _LATAbits 0F83  
       EUSART1_SetErrorHandler@interruptHandler 0060                                        _LATBbits 0F84  
                                      _LATCbits 0F85                                        _LATDbits 0F86  
                                      _LATEbits 0F87                                        _PIE0bits 0EC2  
                               _millisec_32bits 0128                                        _PIE3bits 0EC5  
                                      _PIE4bits 0EC6                                       _selection 013A  
                                      i2u500_45 38FC                      ??_TMR0_SetInterruptHandler 0063  
                                      i2u502_45 391E                                        i2u503_40 3080  
                                      _PIR0bits 0ECA                                        i2u520_40 2374  
                                      i2u504_40 30B0                                        i2u504_45 30A6  
                                      i2u600_48 3836                                        i2u521_40 2376  
                                      i2u600_49 384A                                        i2u602_48 380C  
                                      i2u602_49 3820                                        i2u524_40 23B8  
                                      i2u508_40 3106                                        i2u453_40 2F52  
                                      i2u604_48 37E2                                        i2u604_49 37F6  
                                      _PIR3bits 0ECD                                        i2u519_40 2364  
                                      _PIR4bits 0ECE                      ??_TMR3_SetInterruptHandler 0063  
                                      i2u640_48 36F8                                        i2u545_40 253A  
                                      i2u537_40 24CA                                        i2u561_40 1E9C  
                                      i2u642_48 372C                                        i2u539_40 24DE  
                                      i2u651_48 31B0                                        i2u556_40 1C9A  
                                      i2u636_48 3790                                        i2u565_40 1EF8  
                                      i2u557_40 1E10                                        i2u557_45 1E06  
                                      i2u566_40 1F16                                        i2u574_40 2CAA  
                                      i2u495_40 353C                                        i2u638_48 38B6  
                                      i2u647_48 3156                                        i2u647_49 316A  
                                      i2u649_48 3184                                        i2u761_48 0062  
                                      i2u649_49 3198                                        i2u851_47 352A  
                                      i2u852_47 355E                                        i2u764_48 007E  
                                      i2u598_48 3860                                        i2u598_49 3874  
                        ?_EUSART1_RxDataHandler 0001                                      ?_lcdNibble 0001  
                                      _SSP1CON1 0F96                                        _SSP1CON3 0F98  
                                      _TMR0_ISR 3772                                        _TMR1_ISR 370C  
                                      _TMR3_ISR 36D8                                        _TMR4_ISR 38A2  
                                      _SSP1STAT 0F95                               ??_PIN_MANAGER_IOC 0017  
                             ??_TMR1_Initialize 0063                        TMR3_ReadTimer@readValLow 0008  
                                    _ADCON0bits 0F60                                      _ADCON1bits 0F59  
                                    _ADCON2bits 0F5A                                      _ADCON3bits 0F5B  
                                     main@vBase 00B4                                       main@coefD 00D6  
                                     main@coefI 00DA                                       main@coefP 00D2  
                             main@stateSequence 00A9                                       main@error 00E9  
                                     main@state 00E6                                       copy_data0 330E  
                         ?_INTERRUPT_Initialize 0001                                    Motors@on_off 0060  
                             ??_TMR2_Initialize 0060                                      _ADSTATbits 0F65  
         __end_of_EUSART1_SetTxInterruptHandler 3BC4                   _EUSART1_SetTxInterruptHandler 3BB6  
                                      __Hrparam 0000                                        __Lrparam 0000  
                         TMR1_ReadTimer@readVal 0005                          I2C1_ISR@i2c_bytes_left 0056  
                       ??_OSCILLATOR_Initialize 0060                                   ?_Digital_read 0001  
                             ??_TMR3_Initialize 0063                        _TMR1_SetInterruptHandler 3B62  
                      _TMR4_SetInterruptHandler 3B46                           _TMR1_InterruptHandler 0152  
                     ??_EUSART1_SetErrorHandler 0063             __end_of_EUSART1_DefaultErrorHandler 3C0E  
                   _EUSART1_DefaultErrorHandler 3C08                         _IOCCF0_InterruptHandler 0164  
                                      ___xxtofl 2A6E                                      _T0CON0bits 0FD5  
                                      _clearLCD 3954                                  Digital_read@io 0062  
                                  _Speed_Motors 3B34                             I2C1_ISR@i2c_address 0059  
                                      __ptext10 1F60                                        __ptext11 3B34  
                                      __ptext20 356E                                        __ptext12 3632  
                                      __ptext21 3B70                                        __ptext13 3740  
                                    _T1GCONbits 0FD0                                        __ptext30 3A78  
                                      __ptext22 3AA6                                        __ptext14 3B46  
                                      __ptext31 3C0E                                        __ptext23 3ABC  
                                      __ptext15 3490                                        __ptext40 3AE6  
                                      __ptext32 36A2                                        __ptext24 39D2  
                                      __ptext16 3B54                                        __ptext41 35B0  
                                      __ptext33 31CC                                        __ptext25 2CF2  
                                      __ptext17 39B4                                        __ptext50 1C0E  
                                      __ptext42 3354                                        __ptext34 3BB6  
                                      __ptext26 3B7E                                        __ptext18 34DA  
                                      __ptext51 226E                                        __ptext43 3AFA  
                                      __ptext35 3BC4                                        __ptext27 3B8C  
                                      __ptext19 3B62                                        __ptext60 38CA  
                                      __ptext52 38EE                                        __ptext44 387A  
                                      __ptext36 3BD2                                        __ptext28 3B9A  
                                      __ptext61 37D2                                        __ptext53 3910  
                                      __ptext37 3BE0                                        __ptext29 3BA8  
                                      __ptext70 3524                                        __ptext62 33A4  
                                      __ptext54 36D8                                        __ptext46 38A2  
                                      __ptext38 3BEE                                        __ptext71 3850  
                                      __ptext63 3A26                                        __ptext55 39EE  
                                      __ptext47 257A                                        __ptext39 3444  
                                      __ptext80 3A5E                                        __ptext72 33F4  
                                      __ptext64 3C12                                        __ptext56 370C  
                                      __ptext48 2BB2                                        __ptext81 3BFC  
                                      __ptext73 2EEC                                        __ptext65 3C16  
                                      __ptext57 3A0A                                        __ptext49 3074  
                                      __ptext82 37A4                                        __ptext74 3A42  
                                      __ptext66 3974                                        __ptext58 3772  
                                      __ptext83 312E                                        __ptext75 3C1A  
                                      __ptext67 37FC                                        __ptext59 3B0E  
                                      __ptext84 3C02                                        __ptext76 3C1E  
                                      __ptext68 3C22                                        __ptext85 3C24  
                                      __ptext77 3994                                        __ptext69 3826  
                                      __ptext86 3C08                                        __ptext78 2820  
                                      __ptext87 3932                                        __ptext79 35F2  
                                      __ptext88 0000                    ??_IOCAF5_SetInterruptHandler 0063  
                                  _SSP1CON1bits 0F96                                    _SSP1CON2bits 0F97  
                  ??_IOCCF0_SetInterruptHandler 0063                               ??_TMR1_StartTimer 0001  
                                    _IOCAF5_ISR 3850                                     _dutyValue_D 004C  
                                   _dutyValue_G 004E                                      _IOCAF6_ISR 3826  
                                    _IOCAF7_ISR 37FC                                      _T3GCONbits 0FCA  
                                    _IOCCF0_ISR 37D2                         TMR3_WriteTimer@timerVal 0001  
                             ??_TMR4_Initialize 0063                                        _millisec 0050  
          __end_of_TMR0_DefaultInterruptHandler 3B22                    _TMR0_DefaultInterruptHandler 3B0E  
                                    _RC1STAbits 0F9D                                        _retroLCD 3AD2  
EUSART1_SetOverrunErrorHandler@interruptHandler 0060                                        isa$xinst 0000  
                                   ??_lcdNibble 0060                      ??_ADCC_GetSingleConversion 0062  
                              ??_TMR1_ReadTimer 0003               _TMR4_DefaultInterruptHandler$5646 0042  
                                      int$flags 005B              __end_of_INTERRUPT_InterruptManager 00D2  
                    _INTERRUPT_InterruptManager 0008                               ??_TMR1_WriteTimer 0003  
                                ??_Digital_read 0060            __end_of_TMR3_DefaultInterruptHandler 3A0A  
                  _TMR3_DefaultInterruptHandler 39EE                     _EUSART1_FramingErrorHandler 015E  
                                      _writeLCD 366C                             _EUSART1_Receive_ISR 312E  
                                    _INTCONbits 0FF2                                     _NVMCON1bits 0F81  
                        ??_INTERRUPT_Initialize 0060                                ??_TMR3_ReadTimer 0003  
                             ??_TMR3_StartTimer 0001                                        intlevel2 0000  
                          ?_EUSART1_Receive_ISR 0001                                 i2___xxtofl@sign 0009  
                       ?_PIN_MANAGER_Initialize 0001          __end_of_EUSART1_SetOverrunErrorHandler 3BE0  
                _EUSART1_SetOverrunErrorHandler 3BD2                   __end_of_I2C1_FunctionComplete 3A78  
                  __end_of_EUSART1_Transmit_ISR 37D2                                 _PWM1_Initialize 3ABC  
                              ??_TMR1_StopTimer 0001                   ?_TMR0_DefaultInterruptHandler 0001  
EUSART1_SetFramingErrorHandler@interruptHandler 0060                  ?_EUSART1_SetTxInterruptHandler 0060  
                             ??_TMR3_WriteTimer 0003                              _eusart1RxLastError 0052  
                 ?_TMR3_DefaultInterruptHandler 0001                                      _SSP1DATPPS 0EB8  
                                    _SSP1CLKPPS 0EB7          __end_of_IOCAF6_DefaultInterruptHandler 356E  
                _IOCAF6_DefaultInterruptHandler 3524                                 _TMR0_Initialize 356E  
                               _PWM2_Initialize 3AA6                                ??_TMR3_StopTimer 0001  
                                  ___aldiv@sign 0012                     ?_IOCAF7_SetInterruptHandler 0060  
                                    _TX1STAbits 0F9E                                   ___fladd@signs 0093  
                                   ?_IOCAF5_ISR 0001                                     ?_IOCAF6_ISR 0001  
                                   ?_IOCAF7_ISR 0001                                     ?_IOCCF0_ISR 0001  
                         ??_EUSART1_Receive_ISR 0001                  __end_of_PIN_MANAGER_Initialize 2DF6  
                             ??_ADCC_Initialize 0060                                _Vitesse_Moteur_D 013C  
                              _Vitesse_Moteur_G 013E                                    ___fladd@aexp 0094  
                                  ___fladd@bexp 0095                      __end_of_PWM1_LoadDutyValue 3932  
                               _PIN_MANAGER_IOC 38CA                         ??_EUSART1_RxDataHandler 0001  
                               _TMR1_Initialize 34DA  
